
PNEWELS.elf:     file format elf32-avr

Sections:
Idx Name          Size      VMA       LMA       File off  Algn
  0 .data         000007a0  00800200  0000a32a  0000a3de  2**0
                  CONTENTS, ALLOC, LOAD, DATA
  1 .text         0000a32a  00000000  00000000  000000b4  2**1
                  CONTENTS, ALLOC, LOAD, READONLY, CODE
  2 .bss          000019c0  008009a0  008009a0  0000ab7e  2**0
                  ALLOC
  3 .fuse         00000003  00820000  00820000  0000ab7e  2**0
                  CONTENTS, ALLOC, LOAD, DATA
  4 .comment      00000030  00000000  00000000  0000ab81  2**0
                  CONTENTS, READONLY
  5 .note.gnu.avr.deviceinfo 00000044  00000000  00000000  0000abb4  2**2
                  CONTENTS, READONLY
  6 .debug_aranges 00000aa0  00000000  00000000  0000abf8  2**0
                  CONTENTS, READONLY, DEBUGGING
  7 .debug_info   0001656c  00000000  00000000  0000b698  2**0
                  CONTENTS, READONLY, DEBUGGING
  8 .debug_abbrev 00003d7a  00000000  00000000  00021c04  2**0
                  CONTENTS, READONLY, DEBUGGING
  9 .debug_line   000088ab  00000000  00000000  0002597e  2**0
                  CONTENTS, READONLY, DEBUGGING
 10 .debug_frame  000020a8  00000000  00000000  0002e22c  2**2
                  CONTENTS, READONLY, DEBUGGING
 11 .debug_str    000042ac  00000000  00000000  000302d4  2**0
                  CONTENTS, READONLY, DEBUGGING
 12 .debug_loc    0000a4a8  00000000  00000000  00034580  2**0
                  CONTENTS, READONLY, DEBUGGING
 13 .debug_ranges 00000a50  00000000  00000000  0003ea28  2**0
                  CONTENTS, READONLY, DEBUGGING

Disassembly of section .text:

00000000 <__vectors>:
       0:	99 c1       	rjmp	.+818    	; 0x334 <__ctors_end>
       2:	00 00       	nop
       4:	0c 94 21 08 	jmp	0x1042	; 0x1042 <__vector_1>
       8:	0c 94 4e 08 	jmp	0x109c	; 0x109c <__vector_2>
       c:	0c 94 7b 08 	jmp	0x10f6	; 0x10f6 <__vector_3>
      10:	0c 94 a8 08 	jmp	0x1150	; 0x1150 <__vector_4>
      14:	0c 94 d5 08 	jmp	0x11aa	; 0x11aa <__vector_5>
      18:	0c 94 02 09 	jmp	0x1204	; 0x1204 <__vector_6>
      1c:	0c 94 2f 09 	jmp	0x125e	; 0x125e <__vector_7>
      20:	0c 94 5c 09 	jmp	0x12b8	; 0x12b8 <__vector_8>
      24:	0c 94 89 09 	jmp	0x1312	; 0x1312 <__vector_9>
      28:	0c 94 b6 09 	jmp	0x136c	; 0x136c <__vector_10>
      2c:	a3 c1       	rjmp	.+838    	; 0x374 <__bad_interrupt>
      2e:	00 00       	nop
      30:	a1 c1       	rjmp	.+834    	; 0x374 <__bad_interrupt>
      32:	00 00       	nop
      34:	9f c1       	rjmp	.+830    	; 0x374 <__bad_interrupt>
      36:	00 00       	nop
      38:	9d c1       	rjmp	.+826    	; 0x374 <__bad_interrupt>
      3a:	00 00       	nop
      3c:	0c 94 cb 3a 	jmp	0x7596	; 0x7596 <__vector_15>
      40:	99 c1       	rjmp	.+818    	; 0x374 <__bad_interrupt>
      42:	00 00       	nop
      44:	97 c1       	rjmp	.+814    	; 0x374 <__bad_interrupt>
      46:	00 00       	nop
      48:	95 c1       	rjmp	.+810    	; 0x374 <__bad_interrupt>
      4a:	00 00       	nop
      4c:	93 c1       	rjmp	.+806    	; 0x374 <__bad_interrupt>
      4e:	00 00       	nop
      50:	91 c1       	rjmp	.+802    	; 0x374 <__bad_interrupt>
      52:	00 00       	nop
      54:	8f c1       	rjmp	.+798    	; 0x374 <__bad_interrupt>
      56:	00 00       	nop
      58:	8d c1       	rjmp	.+794    	; 0x374 <__bad_interrupt>
      5a:	00 00       	nop
      5c:	0c 94 9d 3a 	jmp	0x753a	; 0x753a <__vector_23>
      60:	89 c1       	rjmp	.+786    	; 0x374 <__bad_interrupt>
      62:	00 00       	nop
      64:	87 c1       	rjmp	.+782    	; 0x374 <__bad_interrupt>
      66:	00 00       	nop
      68:	85 c1       	rjmp	.+778    	; 0x374 <__bad_interrupt>
      6a:	00 00       	nop
      6c:	83 c1       	rjmp	.+774    	; 0x374 <__bad_interrupt>
      6e:	00 00       	nop
      70:	81 c1       	rjmp	.+770    	; 0x374 <__bad_interrupt>
      72:	00 00       	nop
      74:	7f c1       	rjmp	.+766    	; 0x374 <__bad_interrupt>
      76:	00 00       	nop
      78:	7d c1       	rjmp	.+762    	; 0x374 <__bad_interrupt>
      7a:	00 00       	nop
      7c:	7b c1       	rjmp	.+758    	; 0x374 <__bad_interrupt>
      7e:	00 00       	nop
      80:	79 c1       	rjmp	.+754    	; 0x374 <__bad_interrupt>
      82:	00 00       	nop
      84:	77 c1       	rjmp	.+750    	; 0x374 <__bad_interrupt>
      86:	00 00       	nop
      88:	75 c1       	rjmp	.+746    	; 0x374 <__bad_interrupt>
      8a:	00 00       	nop
      8c:	73 c1       	rjmp	.+742    	; 0x374 <__bad_interrupt>
      8e:	00 00       	nop
      90:	6c c7       	rjmp	.+3800   	; 0xf6a <__vector_36>
      92:	00 00       	nop
      94:	6f c1       	rjmp	.+734    	; 0x374 <__bad_interrupt>
      96:	00 00       	nop
      98:	6d c1       	rjmp	.+730    	; 0x374 <__bad_interrupt>
      9a:	00 00       	nop
      9c:	c0 c4       	rjmp	.+2432   	; 0xa1e <__vector_39>
      9e:	00 00       	nop
      a0:	69 c1       	rjmp	.+722    	; 0x374 <__bad_interrupt>
      a2:	00 00       	nop
      a4:	67 c1       	rjmp	.+718    	; 0x374 <__bad_interrupt>
      a6:	00 00       	nop
      a8:	0c 94 bd 0c 	jmp	0x197a	; 0x197a <__vector_42>
      ac:	63 c1       	rjmp	.+710    	; 0x374 <__bad_interrupt>
      ae:	00 00       	nop
      b0:	61 c1       	rjmp	.+706    	; 0x374 <__bad_interrupt>
      b2:	00 00       	nop
      b4:	5f c1       	rjmp	.+702    	; 0x374 <__bad_interrupt>
      b6:	00 00       	nop
      b8:	5d c1       	rjmp	.+698    	; 0x374 <__bad_interrupt>
      ba:	00 00       	nop
      bc:	5b c1       	rjmp	.+694    	; 0x374 <__bad_interrupt>
      be:	00 00       	nop
      c0:	59 c1       	rjmp	.+690    	; 0x374 <__bad_interrupt>
      c2:	00 00       	nop
      c4:	57 c1       	rjmp	.+686    	; 0x374 <__bad_interrupt>
      c6:	00 00       	nop
      c8:	55 c1       	rjmp	.+682    	; 0x374 <__bad_interrupt>
      ca:	00 00       	nop
      cc:	53 c1       	rjmp	.+678    	; 0x374 <__bad_interrupt>
      ce:	00 00       	nop
      d0:	51 c1       	rjmp	.+674    	; 0x374 <__bad_interrupt>
      d2:	00 00       	nop
      d4:	4f c1       	rjmp	.+670    	; 0x374 <__bad_interrupt>
      d6:	00 00       	nop
      d8:	4d c1       	rjmp	.+666    	; 0x374 <__bad_interrupt>
      da:	00 00       	nop
      dc:	4b c1       	rjmp	.+662    	; 0x374 <__bad_interrupt>
      de:	00 00       	nop
      e0:	49 c1       	rjmp	.+658    	; 0x374 <__bad_interrupt>
      e2:	00 00       	nop
      e4:	47 c1       	rjmp	.+654    	; 0x374 <__bad_interrupt>
      e6:	00 00       	nop
      e8:	45 c1       	rjmp	.+650    	; 0x374 <__bad_interrupt>
      ea:	00 00       	nop
      ec:	43 c1       	rjmp	.+646    	; 0x374 <__bad_interrupt>
      ee:	00 00       	nop
      f0:	41 c1       	rjmp	.+642    	; 0x374 <__bad_interrupt>
      f2:	00 00       	nop
      f4:	3f c1       	rjmp	.+638    	; 0x374 <__bad_interrupt>
      f6:	00 00       	nop
      f8:	3d c1       	rjmp	.+634    	; 0x374 <__bad_interrupt>
      fa:	00 00       	nop
      fc:	3b c1       	rjmp	.+630    	; 0x374 <__bad_interrupt>
      fe:	00 00       	nop
     100:	39 c1       	rjmp	.+626    	; 0x374 <__bad_interrupt>
     102:	00 00       	nop
     104:	37 c1       	rjmp	.+622    	; 0x374 <__bad_interrupt>
     106:	00 00       	nop
     108:	35 c1       	rjmp	.+618    	; 0x374 <__bad_interrupt>
     10a:	00 00       	nop
     10c:	33 c1       	rjmp	.+614    	; 0x374 <__bad_interrupt>
     10e:	00 00       	nop
     110:	31 c1       	rjmp	.+610    	; 0x374 <__bad_interrupt>
     112:	00 00       	nop
     114:	2f c1       	rjmp	.+606    	; 0x374 <__bad_interrupt>
     116:	00 00       	nop
     118:	2d c1       	rjmp	.+602    	; 0x374 <__bad_interrupt>
     11a:	00 00       	nop
     11c:	2b c1       	rjmp	.+598    	; 0x374 <__bad_interrupt>
     11e:	00 00       	nop
     120:	29 c1       	rjmp	.+594    	; 0x374 <__bad_interrupt>
     122:	00 00       	nop
     124:	27 c1       	rjmp	.+590    	; 0x374 <__bad_interrupt>
     126:	00 00       	nop
     128:	25 c1       	rjmp	.+586    	; 0x374 <__bad_interrupt>
     12a:	00 00       	nop
     12c:	23 c1       	rjmp	.+582    	; 0x374 <__bad_interrupt>
     12e:	00 00       	nop
     130:	21 c1       	rjmp	.+578    	; 0x374 <__bad_interrupt>
     132:	00 00       	nop
     134:	ba 05       	cpc	r27, r10
     136:	b6 06       	cpc	r11, r22
     138:	b6 06       	cpc	r11, r22
     13a:	b6 06       	cpc	r11, r22
     13c:	b6 06       	cpc	r11, r22
     13e:	b6 06       	cpc	r11, r22
     140:	b6 06       	cpc	r11, r22
     142:	b6 06       	cpc	r11, r22
     144:	31 05       	cpc	r19, r1
     146:	b6 06       	cpc	r11, r22
     148:	b6 06       	cpc	r11, r22
     14a:	b6 06       	cpc	r11, r22
     14c:	b6 06       	cpc	r11, r22
     14e:	b6 06       	cpc	r11, r22
     150:	b6 06       	cpc	r11, r22
     152:	b6 06       	cpc	r11, r22
     154:	31 05       	cpc	r19, r1
     156:	b6 06       	cpc	r11, r22
     158:	b6 06       	cpc	r11, r22
     15a:	b6 06       	cpc	r11, r22
     15c:	b6 06       	cpc	r11, r22
     15e:	b6 06       	cpc	r11, r22
     160:	b6 06       	cpc	r11, r22
     162:	b6 06       	cpc	r11, r22
     164:	56 05       	cpc	r21, r6
     166:	b6 06       	cpc	r11, r22
     168:	b6 06       	cpc	r11, r22
     16a:	b6 06       	cpc	r11, r22
     16c:	b6 06       	cpc	r11, r22
     16e:	b6 06       	cpc	r11, r22
     170:	b6 06       	cpc	r11, r22
     172:	b6 06       	cpc	r11, r22
     174:	ba 05       	cpc	r27, r10
     176:	b6 06       	cpc	r11, r22
     178:	b6 06       	cpc	r11, r22
     17a:	b6 06       	cpc	r11, r22
     17c:	b6 06       	cpc	r11, r22
     17e:	b6 06       	cpc	r11, r22
     180:	b6 06       	cpc	r11, r22
     182:	b6 06       	cpc	r11, r22
     184:	56 05       	cpc	r21, r6
     186:	b6 06       	cpc	r11, r22
     188:	b6 06       	cpc	r11, r22
     18a:	b6 06       	cpc	r11, r22
     18c:	b6 06       	cpc	r11, r22
     18e:	b6 06       	cpc	r11, r22
     190:	b6 06       	cpc	r11, r22
     192:	b6 06       	cpc	r11, r22
     194:	ba 05       	cpc	r27, r10
     196:	b6 06       	cpc	r11, r22
     198:	b6 06       	cpc	r11, r22
     19a:	b6 06       	cpc	r11, r22
     19c:	b6 06       	cpc	r11, r22
     19e:	b6 06       	cpc	r11, r22
     1a0:	b6 06       	cpc	r11, r22
     1a2:	b6 06       	cpc	r11, r22
     1a4:	47 06       	cpc	r4, r23
     1a6:	b6 06       	cpc	r11, r22
     1a8:	b6 06       	cpc	r11, r22
     1aa:	b6 06       	cpc	r11, r22
     1ac:	b6 06       	cpc	r11, r22
     1ae:	b6 06       	cpc	r11, r22
     1b0:	b6 06       	cpc	r11, r22
     1b2:	b6 06       	cpc	r11, r22
     1b4:	bf 05       	cpc	r27, r15
     1b6:	b6 06       	cpc	r11, r22
     1b8:	b6 06       	cpc	r11, r22
     1ba:	b6 06       	cpc	r11, r22
     1bc:	b6 06       	cpc	r11, r22
     1be:	b6 06       	cpc	r11, r22
     1c0:	b6 06       	cpc	r11, r22
     1c2:	b6 06       	cpc	r11, r22
     1c4:	ba 05       	cpc	r27, r10
     1c6:	b6 06       	cpc	r11, r22
     1c8:	b6 06       	cpc	r11, r22
     1ca:	b6 06       	cpc	r11, r22
     1cc:	b6 06       	cpc	r11, r22
     1ce:	b6 06       	cpc	r11, r22
     1d0:	b6 06       	cpc	r11, r22
     1d2:	b6 06       	cpc	r11, r22
     1d4:	e8 05       	cpc	r30, r8
     1d6:	b6 06       	cpc	r11, r22
     1d8:	b6 06       	cpc	r11, r22
     1da:	b6 06       	cpc	r11, r22
     1dc:	b6 06       	cpc	r11, r22
     1de:	b6 06       	cpc	r11, r22
     1e0:	b6 06       	cpc	r11, r22
     1e2:	b6 06       	cpc	r11, r22
     1e4:	20 06       	cpc	r2, r16
     1e6:	b6 06       	cpc	r11, r22
     1e8:	b6 06       	cpc	r11, r22
     1ea:	b6 06       	cpc	r11, r22
     1ec:	b6 06       	cpc	r11, r22
     1ee:	b6 06       	cpc	r11, r22
     1f0:	b6 06       	cpc	r11, r22
     1f2:	b6 06       	cpc	r11, r22
     1f4:	7b 06       	cpc	r7, r27
     1f6:	b6 06       	cpc	r11, r22
     1f8:	b6 06       	cpc	r11, r22
     1fa:	b6 06       	cpc	r11, r22
     1fc:	b6 06       	cpc	r11, r22
     1fe:	b6 06       	cpc	r11, r22
     200:	b6 06       	cpc	r11, r22
     202:	b6 06       	cpc	r11, r22
     204:	7b 06       	cpc	r7, r27
     206:	b6 06       	cpc	r11, r22
     208:	b6 06       	cpc	r11, r22
     20a:	b6 06       	cpc	r11, r22
     20c:	b6 06       	cpc	r11, r22
     20e:	b6 06       	cpc	r11, r22
     210:	b6 06       	cpc	r11, r22
     212:	b6 06       	cpc	r11, r22
     214:	7b 06       	cpc	r7, r27
     216:	b6 06       	cpc	r11, r22
     218:	b6 06       	cpc	r11, r22
     21a:	b6 06       	cpc	r11, r22
     21c:	b6 06       	cpc	r11, r22
     21e:	b6 06       	cpc	r11, r22
     220:	b6 06       	cpc	r11, r22
     222:	b6 06       	cpc	r11, r22
     224:	7b 06       	cpc	r7, r27
     226:	b6 06       	cpc	r11, r22
     228:	b6 06       	cpc	r11, r22
     22a:	b6 06       	cpc	r11, r22
     22c:	b6 06       	cpc	r11, r22
     22e:	b6 06       	cpc	r11, r22
     230:	b6 06       	cpc	r11, r22
     232:	b6 06       	cpc	r11, r22
     234:	85 06       	cpc	r8, r21
     236:	b6 06       	cpc	r11, r22
     238:	b6 06       	cpc	r11, r22
     23a:	b6 06       	cpc	r11, r22
     23c:	b6 06       	cpc	r11, r22
     23e:	b6 06       	cpc	r11, r22
     240:	b6 06       	cpc	r11, r22
     242:	b6 06       	cpc	r11, r22
     244:	aa 06       	cpc	r10, r26
     246:	b6 06       	cpc	r11, r22
     248:	b6 06       	cpc	r11, r22
     24a:	b6 06       	cpc	r11, r22
     24c:	b6 06       	cpc	r11, r22
     24e:	b6 06       	cpc	r11, r22
     250:	b6 06       	cpc	r11, r22
     252:	b6 06       	cpc	r11, r22
     254:	85 06       	cpc	r8, r21
     256:	b6 06       	cpc	r11, r22
     258:	b6 06       	cpc	r11, r22
     25a:	b6 06       	cpc	r11, r22
     25c:	b6 06       	cpc	r11, r22
     25e:	b6 06       	cpc	r11, r22
     260:	b6 06       	cpc	r11, r22
     262:	b6 06       	cpc	r11, r22
     264:	aa 06       	cpc	r10, r26
     266:	b6 06       	cpc	r11, r22
     268:	b6 06       	cpc	r11, r22
     26a:	b6 06       	cpc	r11, r22
     26c:	b6 06       	cpc	r11, r22
     26e:	b6 06       	cpc	r11, r22
     270:	b6 06       	cpc	r11, r22
     272:	b6 06       	cpc	r11, r22
     274:	9e 06       	cpc	r9, r30
     276:	b6 06       	cpc	r11, r22
     278:	b6 06       	cpc	r11, r22
     27a:	b6 06       	cpc	r11, r22
     27c:	b6 06       	cpc	r11, r22
     27e:	b6 06       	cpc	r11, r22
     280:	b6 06       	cpc	r11, r22
     282:	b6 06       	cpc	r11, r22
     284:	50 06       	cpc	r5, r16
     286:	b6 06       	cpc	r11, r22
     288:	b6 06       	cpc	r11, r22
     28a:	b6 06       	cpc	r11, r22
     28c:	b6 06       	cpc	r11, r22
     28e:	b6 06       	cpc	r11, r22
     290:	b6 06       	cpc	r11, r22
     292:	b6 06       	cpc	r11, r22
     294:	50 06       	cpc	r5, r16
     296:	b6 06       	cpc	r11, r22
     298:	b6 06       	cpc	r11, r22
     29a:	b6 06       	cpc	r11, r22
     29c:	b6 06       	cpc	r11, r22
     29e:	b6 06       	cpc	r11, r22
     2a0:	b6 06       	cpc	r11, r22
     2a2:	b6 06       	cpc	r11, r22
     2a4:	54 06       	cpc	r5, r20
     2a6:	b6 06       	cpc	r11, r22
     2a8:	b6 06       	cpc	r11, r22
     2aa:	b6 06       	cpc	r11, r22
     2ac:	b6 06       	cpc	r11, r22
     2ae:	b6 06       	cpc	r11, r22
     2b0:	b6 06       	cpc	r11, r22
     2b2:	b6 06       	cpc	r11, r22
     2b4:	6f 06       	cpc	r6, r31
     2b6:	b6 06       	cpc	r11, r22
     2b8:	b6 06       	cpc	r11, r22
     2ba:	b6 06       	cpc	r11, r22
     2bc:	b6 06       	cpc	r11, r22
     2be:	b6 06       	cpc	r11, r22
     2c0:	b6 06       	cpc	r11, r22
     2c2:	b6 06       	cpc	r11, r22
     2c4:	aa 06       	cpc	r10, r26
     2c6:	bd 19       	sub	r27, r13
     2c8:	5b 19       	sub	r21, r11
     2ca:	3c 1b       	sub	r19, r28
     2cc:	8d 1a       	sub	r8, r29
     2ce:	d6 1b       	sub	r29, r22
     2d0:	99 1b       	sub	r25, r25
     2d2:	87 1c       	adc	r8, r7
     2d4:	d9 2a       	or	r13, r25
     2d6:	c4 2a       	or	r12, r20
     2d8:	c6 2a       	or	r12, r22
     2da:	c8 2a       	or	r12, r24
     2dc:	ca 2a       	or	r12, r26
     2de:	cc 2a       	or	r12, r28
     2e0:	ce 2a       	or	r12, r30
     2e2:	d0 2a       	or	r13, r16
     2e4:	d2 2a       	or	r13, r18
     2e6:	28 2c       	mov	r2, r8
     2e8:	fa 2c       	mov	r15, r10
     2ea:	94 2d       	mov	r25, r4
     2ec:	2e 2e       	mov	r2, r30
     2ee:	c8 2e       	mov	r12, r24
     2f0:	62 2f       	mov	r22, r18
     2f2:	fc 2f       	mov	r31, r28
     2f4:	96 30       	cpi	r25, 0x06	; 6
     2f6:	40 31       	cpi	r20, 0x10	; 16
     2f8:	0d 32       	cpi	r16, 0x2D	; 45
     2fa:	24 33       	cpi	r18, 0x34	; 52
     2fc:	37 33       	cpi	r19, 0x37	; 55
     2fe:	45 33       	cpi	r20, 0x35	; 53
     300:	55 33       	cpi	r21, 0x35	; 53
     302:	65 33       	cpi	r22, 0x35	; 53
     304:	79 33       	cpi	r23, 0x39	; 57
     306:	97 33       	cpi	r25, 0x37	; 55
     308:	86 33       	cpi	r24, 0x36	; 54
     30a:	c8 34       	cpi	r28, 0x48	; 72
     30c:	cb 34       	cpi	r28, 0x4B	; 75
     30e:	ee 34       	cpi	r30, 0x4E	; 78
     310:	cd 34       	cpi	r28, 0x4D	; 77
     312:	f1 34       	cpi	r31, 0x41	; 65
     314:	f3 34       	cpi	r31, 0x43	; 67
     316:	f5 34       	cpi	r31, 0x45	; 69
     318:	f7 34       	cpi	r31, 0x47	; 71
     31a:	cf 34       	cpi	r28, 0x4F	; 79
     31c:	78 37       	cpi	r23, 0x78	; 120
     31e:	81 37       	cpi	r24, 0x71	; 113
     320:	95 37       	cpi	r25, 0x75	; 117
     322:	8b 37       	cpi	r24, 0x7B	; 123
     324:	9f 37       	cpi	r25, 0x7F	; 127
     326:	a9 37       	cpi	r26, 0x79	; 121
     328:	b3 37       	cpi	r27, 0x73	; 115
     32a:	bd 37       	cpi	r27, 0x7D	; 125
     32c:	c7 37       	cpi	r28, 0x77	; 119
     32e:	db 37       	cpi	r29, 0x7B	; 123
     330:	e5 37       	cpi	r30, 0x75	; 117
     332:	d1 37       	cpi	r29, 0x71	; 113

00000334 <__ctors_end>:
     334:	11 24       	eor	r1, r1
     336:	1f be       	out	0x3f, r1	; 63
     338:	cf ef       	ldi	r28, 0xFF	; 255
     33a:	d1 e8       	ldi	r29, 0x81	; 129
     33c:	de bf       	out	0x3e, r29	; 62
     33e:	cd bf       	out	0x3d, r28	; 61
     340:	00 e0       	ldi	r16, 0x00	; 0
     342:	0c bf       	out	0x3c, r16	; 60

00000344 <__do_copy_data>:
     344:	19 e0       	ldi	r17, 0x09	; 9
     346:	a0 e0       	ldi	r26, 0x00	; 0
     348:	b2 e0       	ldi	r27, 0x02	; 2
     34a:	ea e2       	ldi	r30, 0x2A	; 42
     34c:	f3 ea       	ldi	r31, 0xA3	; 163
     34e:	00 e0       	ldi	r16, 0x00	; 0
     350:	0b bf       	out	0x3b, r16	; 59
     352:	02 c0       	rjmp	.+4      	; 0x358 <__do_copy_data+0x14>
     354:	07 90       	elpm	r0, Z+
     356:	0d 92       	st	X+, r0
     358:	a0 3a       	cpi	r26, 0xA0	; 160
     35a:	b1 07       	cpc	r27, r17
     35c:	d9 f7       	brne	.-10     	; 0x354 <__do_copy_data+0x10>

0000035e <__do_clear_bss>:
     35e:	23 e2       	ldi	r18, 0x23	; 35
     360:	a0 ea       	ldi	r26, 0xA0	; 160
     362:	b9 e0       	ldi	r27, 0x09	; 9
     364:	01 c0       	rjmp	.+2      	; 0x368 <.do_clear_bss_start>

00000366 <.do_clear_bss_loop>:
     366:	1d 92       	st	X+, r1

00000368 <.do_clear_bss_start>:
     368:	a0 36       	cpi	r26, 0x60	; 96
     36a:	b2 07       	cpc	r27, r18
     36c:	e1 f7       	brne	.-8      	; 0x366 <.do_clear_bss_loop>
     36e:	3e d6       	rcall	.+3196   	; 0xfec <main>
     370:	0c 94 93 51 	jmp	0xa326	; 0xa326 <_exit>

00000374 <__bad_interrupt>:
     374:	45 ce       	rjmp	.-886    	; 0x0 <__vectors>

00000376 <APP_EepromReadByte>:
  for (uint16_t i = 0; i < size; i++)
  {
    if (APP_EepromReadByte(address + i) != data[i])
      APP_EepromWriteByte(address + i, data[i]);
  }
}
     376:	f9 99       	sbic	0x1f, 1	; 31
     378:	fe cf       	rjmp	.-4      	; 0x376 <APP_EepromReadByte>
     37a:	92 bd       	out	0x22, r25	; 34
     37c:	81 bd       	out	0x21, r24	; 33
     37e:	f8 9a       	sbi	0x1f, 0	; 31
     380:	80 b5       	in	r24, 0x20	; 32
     382:	08 95       	ret

00000384 <APP_EepromRead>:

/*****************************************************************************
*****************************************************************************/
void APP_EepromRead(uint16_t address, uint8_t *data, uint16_t size)
{
     384:	ef 92       	push	r14
     386:	ff 92       	push	r15
     388:	0f 93       	push	r16
     38a:	1f 93       	push	r17
     38c:	cf 93       	push	r28
     38e:	df 93       	push	r29
  for (uint16_t i = 0; i < size; i++)
     390:	41 15       	cp	r20, r1
     392:	51 05       	cpc	r21, r1
     394:	79 f0       	breq	.+30     	; 0x3b4 <APP_EepromRead+0x30>
     396:	8b 01       	movw	r16, r22
     398:	04 0f       	add	r16, r20
     39a:	15 1f       	adc	r17, r21
     39c:	eb 01       	movw	r28, r22
     39e:	7c 01       	movw	r14, r24
     3a0:	e6 1a       	sub	r14, r22
     3a2:	f7 0a       	sbc	r15, r23
  {
    data[i] = APP_EepromReadByte(address + i);
     3a4:	c7 01       	movw	r24, r14
     3a6:	8c 0f       	add	r24, r28
     3a8:	9d 1f       	adc	r25, r29
     3aa:	e5 df       	rcall	.-54     	; 0x376 <APP_EepromReadByte>
     3ac:	89 93       	st	Y+, r24

/*****************************************************************************
*****************************************************************************/
void APP_EepromRead(uint16_t address, uint8_t *data, uint16_t size)
{
  for (uint16_t i = 0; i < size; i++)
     3ae:	c0 17       	cp	r28, r16
     3b0:	d1 07       	cpc	r29, r17
     3b2:	c1 f7       	brne	.-16     	; 0x3a4 <APP_EepromRead+0x20>
  {
    data[i] = APP_EepromReadByte(address + i);
  }
}
     3b4:	df 91       	pop	r29
     3b6:	cf 91       	pop	r28
     3b8:	1f 91       	pop	r17
     3ba:	0f 91       	pop	r16
     3bc:	ff 90       	pop	r15
     3be:	ef 90       	pop	r14
     3c0:	08 95       	ret

000003c2 <APP_IbLoadSettings>:
}

/*****************************************************************************
*****************************************************************************/
void APP_IbLoadSettings(void)
{
     3c2:	ef 92       	push	r14
     3c4:	ff 92       	push	r15
     3c6:	0f 93       	push	r16
     3c8:	1f 93       	push	r17
     3ca:	cf 93       	push	r28
     3cc:	df 93       	push	r29
     3ce:	cd b7       	in	r28, 0x3d	; 61
     3d0:	de b7       	in	r29, 0x3e	; 62
     3d2:	61 97       	sbiw	r28, 0x11	; 17
     3d4:	0f b6       	in	r0, 0x3f	; 63
     3d6:	f8 94       	cli
     3d8:	de bf       	out	0x3e, r29	; 62
     3da:	0f be       	out	0x3f, r0	; 63
     3dc:	cd bf       	out	0x3d, r28	; 61
  APP_EepromRead(APP_IB_EEPROM_OFFSET, (uint8_t *)&appIb, sizeof(appIb));
     3de:	4a e2       	ldi	r20, 0x2A	; 42
     3e0:	50 e0       	ldi	r21, 0x00	; 0
     3e2:	6e eb       	ldi	r22, 0xBE	; 190
     3e4:	70 e2       	ldi	r23, 0x20	; 32
     3e6:	80 e0       	ldi	r24, 0x00	; 0
     3e8:	90 e0       	ldi	r25, 0x00	; 0
     3ea:	cc df       	rcall	.-104    	; 0x384 <APP_EepromRead>

  if (APP_EEPROM_MAGIC != appIb.magic)
     3ec:	80 91 e4 20 	lds	r24, 0x20E4
     3f0:	90 91 e5 20 	lds	r25, 0x20E5
     3f4:	a0 91 e6 20 	lds	r26, 0x20E6
     3f8:	b0 91 e7 20 	lds	r27, 0x20E7
     3fc:	81 34       	cpi	r24, 0x41	; 65
     3fe:	9c 46       	sbci	r25, 0x6C	; 108
     400:	a5 46       	sbci	r26, 0x65	; 101
     402:	b8 47       	sbci	r27, 0x78	; 120
     404:	09 f4       	brne	.+2      	; 0x408 <APP_IbLoadSettings+0x46>
     406:	7b c0       	rjmp	.+246    	; 0x4fe <APP_IbLoadSettings+0x13c>
  {
    char hex[] = "0123456789abcdef";
     408:	81 e1       	ldi	r24, 0x11	; 17
     40a:	e7 e1       	ldi	r30, 0x17	; 23
     40c:	f2 e0       	ldi	r31, 0x02	; 2
     40e:	de 01       	movw	r26, r28
     410:	11 96       	adiw	r26, 0x01	; 1
     412:	01 90       	ld	r0, Z+
     414:	0d 92       	st	X+, r0
     416:	8a 95       	dec	r24
     418:	e1 f7       	brne	.-8      	; 0x412 <APP_IbLoadSettings+0x50>

/*-------------Initialize RF parameter----------------*/
    appIb.addr = rf_init(DEVICE_ADDRESS_L,PNEWELS_Buffer.deviceAddress);
     41a:	0f 2e       	mov	r0, r31
     41c:	f6 e1       	ldi	r31, 0x16	; 22
     41e:	ef 2e       	mov	r14, r31
     420:	f0 e2       	ldi	r31, 0x20	; 32
     422:	ff 2e       	mov	r15, r31
     424:	f0 2d       	mov	r31, r0
     426:	f7 01       	movw	r30, r14
     428:	63 8d       	ldd	r22, Z+27	; 0x1b
     42a:	74 8d       	ldd	r23, Z+28	; 0x1c
     42c:	8c ef       	ldi	r24, 0xFC	; 252
     42e:	9f e0       	ldi	r25, 0x0F	; 15
     430:	0e 94 c5 23 	call	0x478a	; 0x478a <rf_init>
     434:	0e eb       	ldi	r16, 0xBE	; 190
     436:	10 e2       	ldi	r17, 0x20	; 32
     438:	f8 01       	movw	r30, r16
     43a:	91 83       	std	Z+1, r25	; 0x01
     43c:	80 83       	st	Z, r24
    appIb.panId = rf_init(DEVICE_PAN_L,PNEWELS_Buffer.devicePAN);
     43e:	f7 01       	movw	r30, r14
     440:	65 8d       	ldd	r22, Z+29	; 0x1d
     442:	76 8d       	ldd	r23, Z+30	; 0x1e
     444:	80 e0       	ldi	r24, 0x00	; 0
     446:	90 e1       	ldi	r25, 0x10	; 16
     448:	0e 94 c5 23 	call	0x478a	; 0x478a <rf_init>
     44c:	f8 01       	movw	r30, r16
     44e:	95 83       	std	Z+5, r25	; 0x05
     450:	84 83       	std	Z+4, r24	; 0x04
    appIb.channel = rf_init(DEVICE_CHANNEL_L,PNEWELS_Buffer.deviceChannel);
     452:	f7 01       	movw	r30, r14
     454:	61 8d       	ldd	r22, Z+25	; 0x19
     456:	72 8d       	ldd	r23, Z+26	; 0x1a
     458:	8e ef       	ldi	r24, 0xFE	; 254
     45a:	9f e0       	ldi	r25, 0x0F	; 15
     45c:	0e 94 c5 23 	call	0x478a	; 0x478a <rf_init>
     460:	f8 01       	movw	r30, r16
     462:	93 83       	std	Z+3, r25	; 0x03
     464:	82 83       	std	Z+2, r24	; 0x02
//------------------------------------------------------
/*-------------Initialize Device parameter----------------*/
	/*PNEWELS_Buffer.groupID = readE2prom(GROUP_ID);*/

    memset(appIb.name, ' ', sizeof(appIb.name));
     466:	40 e2       	ldi	r20, 0x20	; 32
     468:	50 e0       	ldi	r21, 0x00	; 0
     46a:	60 e2       	ldi	r22, 0x20	; 32
     46c:	70 e0       	ldi	r23, 0x00	; 0
     46e:	84 ec       	ldi	r24, 0xC4	; 196
     470:	90 e2       	ldi	r25, 0x20	; 32
     472:	0e 94 70 51 	call	0xa2e0	; 0xa2e0 <memset>
    memcpy(appIb.name, "Device_xxxx", strlen("Device_xxxx"));
     476:	8b e0       	ldi	r24, 0x0B	; 11
     478:	eb e0       	ldi	r30, 0x0B	; 11
     47a:	f2 e0       	ldi	r31, 0x02	; 2
     47c:	a4 ec       	ldi	r26, 0xC4	; 196
     47e:	b0 e2       	ldi	r27, 0x20	; 32
     480:	01 90       	ld	r0, Z+
     482:	0d 92       	st	X+, r0
     484:	8a 95       	dec	r24
     486:	e1 f7       	brne	.-8      	; 0x480 <APP_IbLoadSettings+0xbe>
    appIb.name[7] = hex[(appIb.addr >> 12) & 0x0f];
     488:	f8 01       	movw	r30, r16
     48a:	80 81       	ld	r24, Z
     48c:	91 81       	ldd	r25, Z+1	; 0x01
     48e:	fc 01       	movw	r30, r24
     490:	ef 2f       	mov	r30, r31
     492:	ff 27       	eor	r31, r31
     494:	e2 95       	swap	r30
     496:	ef 70       	andi	r30, 0x0F	; 15
     498:	21 e0       	ldi	r18, 0x01	; 1
     49a:	30 e0       	ldi	r19, 0x00	; 0
     49c:	2c 0f       	add	r18, r28
     49e:	3d 1f       	adc	r19, r29
     4a0:	e2 0f       	add	r30, r18
     4a2:	f3 1f       	adc	r31, r19
     4a4:	20 81       	ld	r18, Z
     4a6:	f8 01       	movw	r30, r16
     4a8:	25 87       	std	Z+13, r18	; 0x0d
    appIb.name[8] = hex[(appIb.addr >> 8) & 0x0f];
     4aa:	e9 2f       	mov	r30, r25
     4ac:	ff 27       	eor	r31, r31
     4ae:	ef 70       	andi	r30, 0x0F	; 15
     4b0:	ff 27       	eor	r31, r31
     4b2:	21 e0       	ldi	r18, 0x01	; 1
     4b4:	30 e0       	ldi	r19, 0x00	; 0
     4b6:	2c 0f       	add	r18, r28
     4b8:	3d 1f       	adc	r19, r29
     4ba:	e2 0f       	add	r30, r18
     4bc:	f3 1f       	adc	r31, r19
     4be:	20 81       	ld	r18, Z
     4c0:	f8 01       	movw	r30, r16
     4c2:	26 87       	std	Z+14, r18	; 0x0e
    appIb.name[9] = hex[(appIb.addr >> 4) & 0x0f];
     4c4:	fc 01       	movw	r30, r24
     4c6:	f2 95       	swap	r31
     4c8:	e2 95       	swap	r30
     4ca:	ef 70       	andi	r30, 0x0F	; 15
     4cc:	ef 27       	eor	r30, r31
     4ce:	ff 70       	andi	r31, 0x0F	; 15
     4d0:	ef 27       	eor	r30, r31
     4d2:	ef 70       	andi	r30, 0x0F	; 15
     4d4:	ff 27       	eor	r31, r31
     4d6:	21 e0       	ldi	r18, 0x01	; 1
     4d8:	30 e0       	ldi	r19, 0x00	; 0
     4da:	2c 0f       	add	r18, r28
     4dc:	3d 1f       	adc	r19, r29
     4de:	e2 0f       	add	r30, r18
     4e0:	f3 1f       	adc	r31, r19
     4e2:	20 81       	ld	r18, Z
     4e4:	f8 01       	movw	r30, r16
     4e6:	27 87       	std	Z+15, r18	; 0x0f
    appIb.name[10] = hex[appIb.addr & 0x0f];
     4e8:	8f 70       	andi	r24, 0x0F	; 15
     4ea:	99 27       	eor	r25, r25
     4ec:	e1 e0       	ldi	r30, 0x01	; 1
     4ee:	f0 e0       	ldi	r31, 0x00	; 0
     4f0:	ec 0f       	add	r30, r28
     4f2:	fd 1f       	adc	r31, r29
     4f4:	e8 0f       	add	r30, r24
     4f6:	f9 1f       	adc	r31, r25
     4f8:	80 81       	ld	r24, Z
     4fa:	f8 01       	movw	r30, r16
     4fc:	80 8b       	std	Z+16, r24	; 0x10
  }
}
     4fe:	61 96       	adiw	r28, 0x11	; 17
     500:	0f b6       	in	r0, 0x3f	; 63
     502:	f8 94       	cli
     504:	de bf       	out	0x3e, r29	; 62
     506:	0f be       	out	0x3f, r0	; 63
     508:	cd bf       	out	0x3d, r28	; 61
     50a:	df 91       	pop	r29
     50c:	cf 91       	pop	r28
     50e:	1f 91       	pop	r17
     510:	0f 91       	pop	r16
     512:	ff 90       	pop	r15
     514:	ef 90       	pop	r14
     516:	08 95       	ret

00000518 <APP_IbLoadSettings_WPS>:

void APP_IbLoadSettings_WPS(void)
{
     518:	cf 93       	push	r28
     51a:	df 93       	push	r29
	APP_EepromRead(APP_IB_EEPROM_OFFSET, (uint8_t *)&appIb, sizeof(appIb));
     51c:	4a e2       	ldi	r20, 0x2A	; 42
     51e:	50 e0       	ldi	r21, 0x00	; 0
     520:	6e eb       	ldi	r22, 0xBE	; 190
     522:	70 e2       	ldi	r23, 0x20	; 32
     524:	80 e0       	ldi	r24, 0x00	; 0
     526:	90 e0       	ldi	r25, 0x00	; 0
     528:	2d df       	rcall	.-422    	; 0x384 <APP_EepromRead>

	if (APP_EEPROM_MAGIC != appIb.magic)
     52a:	80 91 e4 20 	lds	r24, 0x20E4
     52e:	90 91 e5 20 	lds	r25, 0x20E5
     532:	a0 91 e6 20 	lds	r26, 0x20E6
     536:	b0 91 e7 20 	lds	r27, 0x20E7
     53a:	81 34       	cpi	r24, 0x41	; 65
     53c:	9c 46       	sbci	r25, 0x6C	; 108
     53e:	a5 46       	sbci	r26, 0x65	; 101
     540:	b8 47       	sbci	r27, 0x78	; 120
     542:	11 f1       	breq	.+68     	; 0x588 <APP_IbLoadSettings_WPS+0x70>
	{
		char hex[] = "0123456789abcdef";

		/*-------------Initialize RF parameter----------------*/
		appIb.addr = WPS_ADDRESS;
     544:	ce eb       	ldi	r28, 0xBE	; 190
     546:	d0 e2       	ldi	r29, 0x20	; 32
     548:	8f ef       	ldi	r24, 0xFF	; 255
     54a:	9f ef       	ldi	r25, 0xFF	; 255
     54c:	99 83       	std	Y+1, r25	; 0x01
     54e:	88 83       	st	Y, r24
		appIb.panId = WPS_PANID;
     550:	9d 83       	std	Y+5, r25	; 0x05
     552:	8c 83       	std	Y+4, r24	; 0x04
		appIb.channel = WPS_CHANNEL;
     554:	8f e0       	ldi	r24, 0x0F	; 15
     556:	90 e0       	ldi	r25, 0x00	; 0
     558:	9b 83       	std	Y+3, r25	; 0x03
     55a:	8a 83       	std	Y+2, r24	; 0x02
		//------------------------------------------------------

		memset(appIb.name, ' ', sizeof(appIb.name));
     55c:	40 e2       	ldi	r20, 0x20	; 32
     55e:	50 e0       	ldi	r21, 0x00	; 0
     560:	60 e2       	ldi	r22, 0x20	; 32
     562:	70 e0       	ldi	r23, 0x00	; 0
     564:	84 ec       	ldi	r24, 0xC4	; 196
     566:	90 e2       	ldi	r25, 0x20	; 32
     568:	0e 94 70 51 	call	0xa2e0	; 0xa2e0 <memset>
		memcpy(appIb.name, "Device_xxxx", strlen("Device_xxxx"));
     56c:	8b e0       	ldi	r24, 0x0B	; 11
     56e:	eb e0       	ldi	r30, 0x0B	; 11
     570:	f2 e0       	ldi	r31, 0x02	; 2
     572:	a4 ec       	ldi	r26, 0xC4	; 196
     574:	b0 e2       	ldi	r27, 0x20	; 32
     576:	01 90       	ld	r0, Z+
     578:	0d 92       	st	X+, r0
     57a:	8a 95       	dec	r24
     57c:	e1 f7       	brne	.-8      	; 0x576 <APP_IbLoadSettings_WPS+0x5e>
		appIb.name[7] = hex[(appIb.addr >> 12) & 0x0f];
     57e:	86 e6       	ldi	r24, 0x66	; 102
     580:	8d 87       	std	Y+13, r24	; 0x0d
		appIb.name[8] = hex[(appIb.addr >> 8) & 0x0f];
     582:	8e 87       	std	Y+14, r24	; 0x0e
		appIb.name[9] = hex[(appIb.addr >> 4) & 0x0f];
     584:	8f 87       	std	Y+15, r24	; 0x0f
		appIb.name[10] = hex[appIb.addr & 0x0f];
     586:	88 8b       	std	Y+16, r24	; 0x10
	}
	APP_NwkInit(); //execute new setting
     588:	eb d0       	rcall	.+470    	; 0x760 <APP_NwkInit>
}
     58a:	df 91       	pop	r29
     58c:	cf 91       	pop	r28
     58e:	08 95       	ret

00000590 <APP_IbLoadSettings_BROADCAST>:

void APP_IbLoadSettings_BROADCAST(void)
{
     590:	ef 92       	push	r14
     592:	ff 92       	push	r15
     594:	0f 93       	push	r16
     596:	1f 93       	push	r17
     598:	cf 93       	push	r28
     59a:	df 93       	push	r29
     59c:	cd b7       	in	r28, 0x3d	; 61
     59e:	de b7       	in	r29, 0x3e	; 62
     5a0:	61 97       	sbiw	r28, 0x11	; 17
     5a2:	0f b6       	in	r0, 0x3f	; 63
     5a4:	f8 94       	cli
     5a6:	de bf       	out	0x3e, r29	; 62
     5a8:	0f be       	out	0x3f, r0	; 63
     5aa:	cd bf       	out	0x3d, r28	; 61
	APP_EepromRead(APP_IB_EEPROM_OFFSET, (uint8_t *)&appIb, sizeof(appIb));
     5ac:	4a e2       	ldi	r20, 0x2A	; 42
     5ae:	50 e0       	ldi	r21, 0x00	; 0
     5b0:	6e eb       	ldi	r22, 0xBE	; 190
     5b2:	70 e2       	ldi	r23, 0x20	; 32
     5b4:	80 e0       	ldi	r24, 0x00	; 0
     5b6:	90 e0       	ldi	r25, 0x00	; 0
     5b8:	e5 de       	rcall	.-566    	; 0x384 <APP_EepromRead>

	if (APP_EEPROM_MAGIC != appIb.magic)
     5ba:	80 91 e4 20 	lds	r24, 0x20E4
     5be:	90 91 e5 20 	lds	r25, 0x20E5
     5c2:	a0 91 e6 20 	lds	r26, 0x20E6
     5c6:	b0 91 e7 20 	lds	r27, 0x20E7
     5ca:	81 34       	cpi	r24, 0x41	; 65
     5cc:	9c 46       	sbci	r25, 0x6C	; 108
     5ce:	a5 46       	sbci	r26, 0x65	; 101
     5d0:	b8 47       	sbci	r27, 0x78	; 120
     5d2:	09 f4       	brne	.+2      	; 0x5d6 <APP_IbLoadSettings_BROADCAST+0x46>
     5d4:	6c c0       	rjmp	.+216    	; 0x6ae <APP_IbLoadSettings_BROADCAST+0x11e>
	{
		char hex[] = "0123456789abcdef";
     5d6:	81 e1       	ldi	r24, 0x11	; 17
     5d8:	e7 e1       	ldi	r30, 0x17	; 23
     5da:	f2 e0       	ldi	r31, 0x02	; 2
     5dc:	de 01       	movw	r26, r28
     5de:	11 96       	adiw	r26, 0x01	; 1
     5e0:	01 90       	ld	r0, Z+
     5e2:	0d 92       	st	X+, r0
     5e4:	8a 95       	dec	r24
     5e6:	e1 f7       	brne	.-8      	; 0x5e0 <APP_IbLoadSettings_BROADCAST+0x50>

		/*-------------Initialize RF parameter----------------*/
		appIb.addr = rf_init(DEVICE_ADDRESS_L,PNEWELS_Buffer.deviceAddress);
     5e8:	60 91 31 20 	lds	r22, 0x2031
     5ec:	70 91 32 20 	lds	r23, 0x2032
     5f0:	8c ef       	ldi	r24, 0xFC	; 252
     5f2:	9f e0       	ldi	r25, 0x0F	; 15
     5f4:	0e 94 c5 23 	call	0x478a	; 0x478a <rf_init>
     5f8:	8c 01       	movw	r16, r24
     5fa:	0f 2e       	mov	r0, r31
     5fc:	fe eb       	ldi	r31, 0xBE	; 190
     5fe:	ef 2e       	mov	r14, r31
     600:	f0 e2       	ldi	r31, 0x20	; 32
     602:	ff 2e       	mov	r15, r31
     604:	f0 2d       	mov	r31, r0
     606:	f7 01       	movw	r30, r14
     608:	91 83       	std	Z+1, r25	; 0x01
     60a:	80 83       	st	Z, r24
		appIb.panId = BROADCAST_PANID;
     60c:	8f ef       	ldi	r24, 0xFF	; 255
     60e:	9f ef       	ldi	r25, 0xFF	; 255
     610:	95 83       	std	Z+5, r25	; 0x05
     612:	84 83       	std	Z+4, r24	; 0x04
		appIb.channel = BROADCAST_CHANNEL;
     614:	80 e1       	ldi	r24, 0x10	; 16
     616:	90 e0       	ldi	r25, 0x00	; 0
     618:	93 83       	std	Z+3, r25	; 0x03
     61a:	82 83       	std	Z+2, r24	; 0x02
		//------------------------------------------------------

		memset(appIb.name, ' ', sizeof(appIb.name));
     61c:	40 e2       	ldi	r20, 0x20	; 32
     61e:	50 e0       	ldi	r21, 0x00	; 0
     620:	60 e2       	ldi	r22, 0x20	; 32
     622:	70 e0       	ldi	r23, 0x00	; 0
     624:	84 ec       	ldi	r24, 0xC4	; 196
     626:	90 e2       	ldi	r25, 0x20	; 32
     628:	0e 94 70 51 	call	0xa2e0	; 0xa2e0 <memset>
		memcpy(appIb.name, "Device_xxxx", strlen("Device_xxxx"));
     62c:	8b e0       	ldi	r24, 0x0B	; 11
     62e:	eb e0       	ldi	r30, 0x0B	; 11
     630:	f2 e0       	ldi	r31, 0x02	; 2
     632:	a4 ec       	ldi	r26, 0xC4	; 196
     634:	b0 e2       	ldi	r27, 0x20	; 32
     636:	01 90       	ld	r0, Z+
     638:	0d 92       	st	X+, r0
     63a:	8a 95       	dec	r24
     63c:	e1 f7       	brne	.-8      	; 0x636 <APP_IbLoadSettings_BROADCAST+0xa6>
		appIb.name[7] = hex[(appIb.addr >> 12) & 0x0f];
     63e:	f8 01       	movw	r30, r16
     640:	ef 2f       	mov	r30, r31
     642:	ff 27       	eor	r31, r31
     644:	e2 95       	swap	r30
     646:	ef 70       	andi	r30, 0x0F	; 15
     648:	81 e0       	ldi	r24, 0x01	; 1
     64a:	90 e0       	ldi	r25, 0x00	; 0
     64c:	8c 0f       	add	r24, r28
     64e:	9d 1f       	adc	r25, r29
     650:	e8 0f       	add	r30, r24
     652:	f9 1f       	adc	r31, r25
     654:	80 81       	ld	r24, Z
     656:	f7 01       	movw	r30, r14
     658:	85 87       	std	Z+13, r24	; 0x0d
		appIb.name[8] = hex[(appIb.addr >> 8) & 0x0f];
     65a:	e1 2f       	mov	r30, r17
     65c:	ff 27       	eor	r31, r31
     65e:	ef 70       	andi	r30, 0x0F	; 15
     660:	ff 27       	eor	r31, r31
     662:	81 e0       	ldi	r24, 0x01	; 1
     664:	90 e0       	ldi	r25, 0x00	; 0
     666:	8c 0f       	add	r24, r28
     668:	9d 1f       	adc	r25, r29
     66a:	e8 0f       	add	r30, r24
     66c:	f9 1f       	adc	r31, r25
     66e:	80 81       	ld	r24, Z
     670:	f7 01       	movw	r30, r14
     672:	86 87       	std	Z+14, r24	; 0x0e
		appIb.name[9] = hex[(appIb.addr >> 4) & 0x0f];
     674:	f8 01       	movw	r30, r16
     676:	f2 95       	swap	r31
     678:	e2 95       	swap	r30
     67a:	ef 70       	andi	r30, 0x0F	; 15
     67c:	ef 27       	eor	r30, r31
     67e:	ff 70       	andi	r31, 0x0F	; 15
     680:	ef 27       	eor	r30, r31
     682:	ef 70       	andi	r30, 0x0F	; 15
     684:	ff 27       	eor	r31, r31
     686:	81 e0       	ldi	r24, 0x01	; 1
     688:	90 e0       	ldi	r25, 0x00	; 0
     68a:	8c 0f       	add	r24, r28
     68c:	9d 1f       	adc	r25, r29
     68e:	e8 0f       	add	r30, r24
     690:	f9 1f       	adc	r31, r25
     692:	80 81       	ld	r24, Z
     694:	f7 01       	movw	r30, r14
     696:	87 87       	std	Z+15, r24	; 0x0f
		appIb.name[10] = hex[appIb.addr & 0x0f];
     698:	0f 70       	andi	r16, 0x0F	; 15
     69a:	11 27       	eor	r17, r17
     69c:	e1 e0       	ldi	r30, 0x01	; 1
     69e:	f0 e0       	ldi	r31, 0x00	; 0
     6a0:	ec 0f       	add	r30, r28
     6a2:	fd 1f       	adc	r31, r29
     6a4:	e0 0f       	add	r30, r16
     6a6:	f1 1f       	adc	r31, r17
     6a8:	80 81       	ld	r24, Z
     6aa:	f7 01       	movw	r30, r14
     6ac:	80 8b       	std	Z+16, r24	; 0x10
	}
	APP_NwkInit_Broadcast(); //execute new setting
     6ae:	d9 d0       	rcall	.+434    	; 0x862 <APP_NwkInit_Broadcast>
}
     6b0:	61 96       	adiw	r28, 0x11	; 17
     6b2:	0f b6       	in	r0, 0x3f	; 63
     6b4:	f8 94       	cli
     6b6:	de bf       	out	0x3e, r29	; 62
     6b8:	0f be       	out	0x3f, r0	; 63
     6ba:	cd bf       	out	0x3d, r28	; 61
     6bc:	df 91       	pop	r29
     6be:	cf 91       	pop	r28
     6c0:	1f 91       	pop	r17
     6c2:	0f 91       	pop	r16
     6c4:	ff 90       	pop	r15
     6c6:	ef 90       	pop	r14
     6c8:	08 95       	ret

000006ca <appNwkDataConf>:
static void appNwkDataConf(NWK_DataReq_t *req)
{
  uint8_t idx;

  for (idx = 0; idx < APP_NWK_BUFFERS_SIZE; idx++)
    if (req == &appNwkBuffer[idx].req)
     6ca:	29 e0       	ldi	r18, 0x09	; 9
     6cc:	82 3a       	cpi	r24, 0xA2	; 162
     6ce:	92 07       	cpc	r25, r18
     6d0:	69 f0       	breq	.+26     	; 0x6ec <appNwkDataConf+0x22>
     6d2:	43 e2       	ldi	r20, 0x23	; 35
     6d4:	5a e0       	ldi	r21, 0x0A	; 10
     6d6:	bc 01       	movw	r22, r24
*****************************************************************************/
static void appNwkDataConf(NWK_DataReq_t *req)
{
  uint8_t idx;

  for (idx = 0; idx < APP_NWK_BUFFERS_SIZE; idx++)
     6d8:	21 e0       	ldi	r18, 0x01	; 1
    if (req == &appNwkBuffer[idx].req)
     6da:	46 17       	cp	r20, r22
     6dc:	57 07       	cpc	r21, r23
     6de:	39 f0       	breq	.+14     	; 0x6ee <appNwkDataConf+0x24>
*****************************************************************************/
static void appNwkDataConf(NWK_DataReq_t *req)
{
  uint8_t idx;

  for (idx = 0; idx < APP_NWK_BUFFERS_SIZE; idx++)
     6e0:	2f 5f       	subi	r18, 0xFF	; 255
     6e2:	4f 57       	subi	r20, 0x7F	; 127
     6e4:	5f 4f       	sbci	r21, 0xFF	; 255
     6e6:	24 31       	cpi	r18, 0x14	; 20
     6e8:	c1 f7       	brne	.-16     	; 0x6da <appNwkDataConf+0x10>
     6ea:	01 c0       	rjmp	.+2      	; 0x6ee <appNwkDataConf+0x24>
     6ec:	20 e0       	ldi	r18, 0x00	; 0
    if (req == &appNwkBuffer[idx].req)
      break;

  if (NWK_SUCCESS_STATUS == req->status)
     6ee:	fc 01       	movw	r30, r24
     6f0:	37 85       	ldd	r19, Z+15	; 0x0f
     6f2:	31 11       	cpse	r19, r1
     6f4:	0e c0       	rjmp	.+28     	; 0x712 <appNwkDataConf+0x48>
  {
    appNwkBuffer[idx].busy = false;
     6f6:	30 e0       	ldi	r19, 0x00	; 0
     6f8:	f9 01       	movw	r30, r18
     6fa:	f6 95       	lsr	r31
     6fc:	fe 2f       	mov	r31, r30
     6fe:	ee 27       	eor	r30, r30
     700:	f7 95       	ror	r31
     702:	e7 95       	ror	r30
     704:	2e 0f       	add	r18, r30
     706:	3f 1f       	adc	r19, r31
     708:	f9 01       	movw	r30, r18
     70a:	e0 56       	subi	r30, 0x60	; 96
     70c:	f6 4f       	sbci	r31, 0xF6	; 246
     70e:	10 82       	st	Z, r1
     710:	08 95       	ret
  }
  else
  {
    if (--appNwkBuffer[idx].retries)
     712:	30 e0       	ldi	r19, 0x00	; 0
     714:	f9 01       	movw	r30, r18
     716:	f6 95       	lsr	r31
     718:	fe 2f       	mov	r31, r30
     71a:	ee 27       	eor	r30, r30
     71c:	f7 95       	ror	r31
     71e:	e7 95       	ror	r30
     720:	e2 0f       	add	r30, r18
     722:	f3 1f       	adc	r31, r19
     724:	e0 56       	subi	r30, 0x60	; 96
     726:	f6 4f       	sbci	r31, 0xF6	; 246
     728:	41 81       	ldd	r20, Z+1	; 0x01
     72a:	41 50       	subi	r20, 0x01	; 1
     72c:	41 83       	std	Z+1, r20	; 0x01
     72e:	44 23       	and	r20, r20
     730:	19 f0       	breq	.+6      	; 0x738 <appNwkDataConf+0x6e>
      NWK_DataReq(req);
     732:	0c 94 27 0d 	jmp	0x1a4e	; 0x1a4e <NWK_DataReq>
     736:	08 95       	ret
    else
      appNwkBuffer[idx].busy = false;
     738:	f9 01       	movw	r30, r18
     73a:	f6 95       	lsr	r31
     73c:	fe 2f       	mov	r31, r30
     73e:	ee 27       	eor	r30, r30
     740:	f7 95       	ror	r31
     742:	e7 95       	ror	r30
     744:	2e 0f       	add	r18, r30
     746:	3f 1f       	adc	r19, r31
     748:	f9 01       	movw	r30, r18
     74a:	e0 56       	subi	r30, 0x60	; 96
     74c:	f6 4f       	sbci	r31, 0xF6	; 246
     74e:	10 82       	st	Z, r1
     750:	08 95       	ret

00000752 <appNwkDataInd>:
/*************************************************************************//**
*****************************************************************************/
static bool appNwkDataInd(NWK_DataInd_t *ind)
{
  //return APP_CommandReceived(ind->data, ind->size);
  return pneIncomingData(ind->data, ind->size);
     752:	fc 01       	movw	r30, r24
     754:	61 85       	ldd	r22, Z+9	; 0x09
     756:	87 81       	ldd	r24, Z+7	; 0x07
     758:	90 85       	ldd	r25, Z+8	; 0x08
     75a:	0c 94 0d 1e 	jmp	0x3c1a	; 0x3c1a <pneIncomingData>
}
     75e:	08 95       	ret

00000760 <APP_NwkInit>:
}

/*************************************************************************//**
*****************************************************************************/
void APP_NwkInit(void)
{
     760:	cf 93       	push	r28
     762:	df 93       	push	r29
  NWK_SetAddr(appIb.addr);
     764:	ce eb       	ldi	r28, 0xBE	; 190
     766:	d0 e2       	ldi	r29, 0x20	; 32
     768:	88 81       	ld	r24, Y
     76a:	99 81       	ldd	r25, Y+1	; 0x01
     76c:	0e 94 e5 0c 	call	0x19ca	; 0x19ca <NWK_SetAddr>
  NWK_SetPanId(appIb.panId);
     770:	8c 81       	ldd	r24, Y+4	; 0x04
     772:	9d 81       	ldd	r25, Y+5	; 0x05
     774:	0e 94 eb 0c 	call	0x19d6	; 0x19d6 <NWK_SetPanId>
  PHY_SetChannel(appIb.channel);
     778:	8a 81       	ldd	r24, Y+2	; 0x02
     77a:	0e 94 b5 14 	call	0x296a	; 0x296a <PHY_SetChannel>
  PHY_SetRxState(true);
     77e:	81 e0       	ldi	r24, 0x01	; 1
     780:	0e 94 b1 14 	call	0x2962	; 0x2962 <PHY_SetRxState>

  #ifdef NWK_ENABLE_SECURITY
  NWK_SetSecurityKey((uint8_t *)"Security12345678");	//passphrase for AES encryption
     784:	88 e2       	ldi	r24, 0x28	; 40
     786:	92 e0       	ldi	r25, 0x02	; 2
     788:	0e 94 2b 11 	call	0x2256	; 0x2256 <NWK_SetSecurityKey>
  #endif

  NWK_OpenEndpoint(APP_ENDPOINT, appNwkDataInd);
     78c:	69 ea       	ldi	r22, 0xA9	; 169
     78e:	73 e0       	ldi	r23, 0x03	; 3
     790:	81 e0       	ldi	r24, 0x01	; 1
     792:	0e 94 f1 0c 	call	0x19e2	; 0x19e2 <NWK_OpenEndpoint>
     796:	a0 ea       	ldi	r26, 0xA0	; 160
     798:	b9 e0       	ldi	r27, 0x09	; 9
     79a:	eb ea       	ldi	r30, 0xAB	; 171
     79c:	f9 e0       	ldi	r31, 0x09	; 9
     79e:	6f eb       	ldi	r22, 0xBF	; 191
     7a0:	73 e1       	ldi	r23, 0x13	; 19

  for (uint8_t i = 0; i < APP_NWK_BUFFERS_SIZE; i++)
  {
    appNwkBuffer[i].busy = false;
    appNwkBuffer[i].req.dstAddr = 0;
    appNwkBuffer[i].req.dstEndpoint = APP_ENDPOINT;
     7a2:	81 e0       	ldi	r24, 0x01	; 1
    appNwkBuffer[i].req.srcEndpoint = APP_ENDPOINT;
    appNwkBuffer[i].req.options = NWK_OPT_ACK_REQUEST | NWK_OPT_ENABLE_SECURITY; //enable security mode AES
     7a4:	93 e0       	ldi	r25, 0x03	; 3
    appNwkBuffer[i].req.data = appNwkBuffer[i].data;
    appNwkBuffer[i].req.confirm = appNwkDataConf;
     7a6:	45 e6       	ldi	r20, 0x65	; 101
     7a8:	53 e0       	ldi	r21, 0x03	; 3

  NWK_OpenEndpoint(APP_ENDPOINT, appNwkDataInd);

  for (uint8_t i = 0; i < APP_NWK_BUFFERS_SIZE; i++)
  {
    appNwkBuffer[i].busy = false;
     7aa:	1c 92       	st	X, r1
    appNwkBuffer[i].req.dstAddr = 0;
     7ac:	18 96       	adiw	r26, 0x08	; 8
     7ae:	1c 92       	st	X, r1
     7b0:	1e 92       	st	-X, r1
     7b2:	17 97       	sbiw	r26, 0x07	; 7
     7b4:	ef 01       	movw	r28, r30
     7b6:	22 97       	sbiw	r28, 0x02	; 2
    appNwkBuffer[i].req.dstEndpoint = APP_ENDPOINT;
     7b8:	88 83       	st	Y, r24
     7ba:	21 96       	adiw	r28, 0x01	; 1
    appNwkBuffer[i].req.srcEndpoint = APP_ENDPOINT;
     7bc:	88 83       	st	Y, r24
    appNwkBuffer[i].req.options = NWK_OPT_ACK_REQUEST | NWK_OPT_ENABLE_SECURITY; //enable security mode AES
     7be:	90 83       	st	Z, r25
     7c0:	9f 01       	movw	r18, r30
     7c2:	28 5f       	subi	r18, 0xF8	; 248
     7c4:	3f 4f       	sbci	r19, 0xFF	; 255
    appNwkBuffer[i].req.data = appNwkBuffer[i].data;
     7c6:	32 83       	std	Z+2, r19	; 0x02
     7c8:	21 83       	std	Z+1, r18	; 0x01
    appNwkBuffer[i].req.confirm = appNwkDataConf;
     7ca:	55 83       	std	Z+5, r21	; 0x05
     7cc:	44 83       	std	Z+4, r20	; 0x04
     7ce:	af 57       	subi	r26, 0x7F	; 127
     7d0:	bf 4f       	sbci	r27, 0xFF	; 255
     7d2:	ef 57       	subi	r30, 0x7F	; 127
     7d4:	ff 4f       	sbci	r31, 0xFF	; 255
  NWK_SetSecurityKey((uint8_t *)"Security12345678");	//passphrase for AES encryption
  #endif

  NWK_OpenEndpoint(APP_ENDPOINT, appNwkDataInd);

  for (uint8_t i = 0; i < APP_NWK_BUFFERS_SIZE; i++)
     7d6:	e6 17       	cp	r30, r22
     7d8:	f7 07       	cpc	r31, r23
     7da:	39 f7       	brne	.-50     	; 0x7aa <APP_NwkInit+0x4a>
    appNwkBuffer[i].req.data = appNwkBuffer[i].data;
    appNwkBuffer[i].req.confirm = appNwkDataConf;
  }

  //APP_CommandReport();
  pneOutgoingData();
     7dc:	0e 94 ab 1c 	call	0x3956	; 0x3956 <pneOutgoingData>
}
     7e0:	df 91       	pop	r29
     7e2:	cf 91       	pop	r28
     7e4:	08 95       	ret

000007e6 <APP_NwkGetBuffer>:
*****************************************************************************/
AppNwkBuffer_t *APP_NwkGetBuffer(void)
{
  for (uint8_t i = 0; i < APP_NWK_BUFFERS_SIZE; i++)
  {
    if (false == appNwkBuffer[i].busy)
     7e6:	80 91 a0 09 	lds	r24, 0x09A0
     7ea:	88 23       	and	r24, r24
     7ec:	59 f0       	breq	.+22     	; 0x804 <APP_NwkGetBuffer+0x1e>
     7ee:	e1 e2       	ldi	r30, 0x21	; 33
     7f0:	fa e0       	ldi	r31, 0x0A	; 10
     7f2:	64 eb       	ldi	r22, 0xB4	; 180
     7f4:	73 e1       	ldi	r23, 0x13	; 19
     7f6:	81 e0       	ldi	r24, 0x01	; 1
     7f8:	90 e0       	ldi	r25, 0x00	; 0
     7fa:	ac 01       	movw	r20, r24
     7fc:	20 81       	ld	r18, Z
     7fe:	21 11       	cpse	r18, r1
     800:	18 c0       	rjmp	.+48     	; 0x832 <APP_NwkGetBuffer+0x4c>
     802:	02 c0       	rjmp	.+4      	; 0x808 <APP_NwkGetBuffer+0x22>
     804:	40 e0       	ldi	r20, 0x00	; 0
     806:	50 e0       	ldi	r21, 0x00	; 0
    {
      appNwkBuffer[i].busy = true;
     808:	fa 01       	movw	r30, r20
     80a:	f6 95       	lsr	r31
     80c:	fe 2f       	mov	r31, r30
     80e:	ee 27       	eor	r30, r30
     810:	f7 95       	ror	r31
     812:	e7 95       	ror	r30
     814:	4e 0f       	add	r20, r30
     816:	5f 1f       	adc	r21, r31
     818:	fa 01       	movw	r30, r20
     81a:	e0 56       	subi	r30, 0x60	; 96
     81c:	f6 4f       	sbci	r31, 0xF6	; 246
     81e:	81 e0       	ldi	r24, 0x01	; 1
     820:	80 83       	st	Z, r24
      appNwkBuffer[i].size = 0;
     822:	df 01       	movw	r26, r30
     824:	a0 58       	subi	r26, 0x80	; 128
     826:	bf 4f       	sbci	r27, 0xFF	; 255
     828:	1c 92       	st	X, r1
      appNwkBuffer[i].retries = APP_NWK_RETRIES;
     82a:	81 83       	std	Z+1, r24	; 0x01
      return &appNwkBuffer[i];
     82c:	8e 2f       	mov	r24, r30
     82e:	9f 2f       	mov	r25, r31
     830:	08 95       	ret
     832:	01 96       	adiw	r24, 0x01	; 1
     834:	ef 57       	subi	r30, 0x7F	; 127
     836:	ff 4f       	sbci	r31, 0xFF	; 255

/*************************************************************************//**
*****************************************************************************/
AppNwkBuffer_t *APP_NwkGetBuffer(void)
{
  for (uint8_t i = 0; i < APP_NWK_BUFFERS_SIZE; i++)
     838:	e6 17       	cp	r30, r22
     83a:	f7 07       	cpc	r31, r23
     83c:	f1 f6       	brne	.-68     	; 0x7fa <APP_NwkGetBuffer+0x14>
      appNwkBuffer[i].retries = APP_NWK_RETRIES;
      return &appNwkBuffer[i];
    }
  }

  return NULL;
     83e:	80 e0       	ldi	r24, 0x00	; 0
     840:	90 e0       	ldi	r25, 0x00	; 0
}
     842:	08 95       	ret

00000844 <APP_NwkSendBuffer>:

/*************************************************************************//**
*****************************************************************************/
void APP_NwkSendBuffer(AppNwkBuffer_t *buf)
{
  if (buf->size)
     844:	fc 01       	movw	r30, r24
     846:	e0 58       	subi	r30, 0x80	; 128
     848:	ff 4f       	sbci	r31, 0xFF	; 255
     84a:	20 81       	ld	r18, Z
     84c:	22 23       	and	r18, r18
     84e:	31 f0       	breq	.+12     	; 0x85c <APP_NwkSendBuffer+0x18>
  {
    buf->req.size = buf->size;
     850:	fc 01       	movw	r30, r24
     852:	26 87       	std	Z+14, r18	; 0x0e
    NWK_DataReq(&buf->req);
     854:	02 96       	adiw	r24, 0x02	; 2
     856:	0c 94 27 0d 	jmp	0x1a4e	; 0x1a4e <NWK_DataReq>
     85a:	08 95       	ret
  }
  else
  {
    buf->busy = false;
     85c:	fc 01       	movw	r30, r24
     85e:	10 82       	st	Z, r1
     860:	08 95       	ret

00000862 <APP_NwkInit_Broadcast>:
  }
}

void APP_NwkInit_Broadcast(void)
{
     862:	cf 93       	push	r28
     864:	df 93       	push	r29
	NWK_SetAddr(appIb.addr);
     866:	ce eb       	ldi	r28, 0xBE	; 190
     868:	d0 e2       	ldi	r29, 0x20	; 32
     86a:	88 81       	ld	r24, Y
     86c:	99 81       	ldd	r25, Y+1	; 0x01
     86e:	0e 94 e5 0c 	call	0x19ca	; 0x19ca <NWK_SetAddr>
	NWK_SetPanId(appIb.panId);
     872:	8c 81       	ldd	r24, Y+4	; 0x04
     874:	9d 81       	ldd	r25, Y+5	; 0x05
     876:	0e 94 eb 0c 	call	0x19d6	; 0x19d6 <NWK_SetPanId>
	PHY_SetChannel(appIb.channel);
     87a:	8a 81       	ldd	r24, Y+2	; 0x02
     87c:	0e 94 b5 14 	call	0x296a	; 0x296a <PHY_SetChannel>
	PHY_SetRxState(true);
     880:	81 e0       	ldi	r24, 0x01	; 1
     882:	0e 94 b1 14 	call	0x2962	; 0x2962 <PHY_SetRxState>

	#ifdef NWK_ENABLE_SECURITY
	NWK_SetSecurityKey((uint8_t *)"Security12345678");	//passphrase for AES encryption
     886:	88 e2       	ldi	r24, 0x28	; 40
     888:	92 e0       	ldi	r25, 0x02	; 2
     88a:	0e 94 2b 11 	call	0x2256	; 0x2256 <NWK_SetSecurityKey>
	#endif

	NWK_OpenEndpoint(APP_ENDPOINT, appNwkDataInd);
     88e:	69 ea       	ldi	r22, 0xA9	; 169
     890:	73 e0       	ldi	r23, 0x03	; 3
     892:	81 e0       	ldi	r24, 0x01	; 1
     894:	0e 94 f1 0c 	call	0x19e2	; 0x19e2 <NWK_OpenEndpoint>
     898:	a0 ea       	ldi	r26, 0xA0	; 160
     89a:	b9 e0       	ldi	r27, 0x09	; 9
     89c:	eb ea       	ldi	r30, 0xAB	; 171
     89e:	f9 e0       	ldi	r31, 0x09	; 9
     8a0:	6f eb       	ldi	r22, 0xBF	; 191
     8a2:	73 e1       	ldi	r23, 0x13	; 19

	for (uint8_t i = 0; i < APP_NWK_BUFFERS_SIZE; i++)
	{
		appNwkBuffer[i].busy = false;
		appNwkBuffer[i].req.dstAddr = 0;
		appNwkBuffer[i].req.dstEndpoint = APP_ENDPOINT;
     8a4:	81 e0       	ldi	r24, 0x01	; 1
		appNwkBuffer[i].req.srcEndpoint = APP_ENDPOINT;
		appNwkBuffer[i].req.options = NWK_OPT_ACK_REQUEST | NWK_OPT_ENABLE_SECURITY | (1 << 2); //enable security mode AES
     8a6:	97 e0       	ldi	r25, 0x07	; 7
		appNwkBuffer[i].req.data = appNwkBuffer[i].data;
		appNwkBuffer[i].req.confirm = appNwkDataConf;
     8a8:	45 e6       	ldi	r20, 0x65	; 101
     8aa:	53 e0       	ldi	r21, 0x03	; 3

	NWK_OpenEndpoint(APP_ENDPOINT, appNwkDataInd);

	for (uint8_t i = 0; i < APP_NWK_BUFFERS_SIZE; i++)
	{
		appNwkBuffer[i].busy = false;
     8ac:	1c 92       	st	X, r1
		appNwkBuffer[i].req.dstAddr = 0;
     8ae:	18 96       	adiw	r26, 0x08	; 8
     8b0:	1c 92       	st	X, r1
     8b2:	1e 92       	st	-X, r1
     8b4:	17 97       	sbiw	r26, 0x07	; 7
     8b6:	ef 01       	movw	r28, r30
     8b8:	22 97       	sbiw	r28, 0x02	; 2
		appNwkBuffer[i].req.dstEndpoint = APP_ENDPOINT;
     8ba:	88 83       	st	Y, r24
     8bc:	21 96       	adiw	r28, 0x01	; 1
		appNwkBuffer[i].req.srcEndpoint = APP_ENDPOINT;
     8be:	88 83       	st	Y, r24
		appNwkBuffer[i].req.options = NWK_OPT_ACK_REQUEST | NWK_OPT_ENABLE_SECURITY | (1 << 2); //enable security mode AES
     8c0:	90 83       	st	Z, r25
     8c2:	9f 01       	movw	r18, r30
     8c4:	28 5f       	subi	r18, 0xF8	; 248
     8c6:	3f 4f       	sbci	r19, 0xFF	; 255
		appNwkBuffer[i].req.data = appNwkBuffer[i].data;
     8c8:	32 83       	std	Z+2, r19	; 0x02
     8ca:	21 83       	std	Z+1, r18	; 0x01
		appNwkBuffer[i].req.confirm = appNwkDataConf;
     8cc:	55 83       	std	Z+5, r21	; 0x05
     8ce:	44 83       	std	Z+4, r20	; 0x04
     8d0:	af 57       	subi	r26, 0x7F	; 127
     8d2:	bf 4f       	sbci	r27, 0xFF	; 255
     8d4:	ef 57       	subi	r30, 0x7F	; 127
     8d6:	ff 4f       	sbci	r31, 0xFF	; 255
	NWK_SetSecurityKey((uint8_t *)"Security12345678");	//passphrase for AES encryption
	#endif

	NWK_OpenEndpoint(APP_ENDPOINT, appNwkDataInd);

	for (uint8_t i = 0; i < APP_NWK_BUFFERS_SIZE; i++)
     8d8:	e6 17       	cp	r30, r22
     8da:	f7 07       	cpc	r31, r23
     8dc:	39 f7       	brne	.-50     	; 0x8ac <APP_NwkInit_Broadcast+0x4a>
		appNwkBuffer[i].req.srcEndpoint = APP_ENDPOINT;
		appNwkBuffer[i].req.options = NWK_OPT_ACK_REQUEST | NWK_OPT_ENABLE_SECURITY | (1 << 2); //enable security mode AES
		appNwkBuffer[i].req.data = appNwkBuffer[i].data;
		appNwkBuffer[i].req.confirm = appNwkDataConf;
	}
     8de:	df 91       	pop	r29
     8e0:	cf 91       	pop	r28
     8e2:	08 95       	ret

000008e4 <pneVerify_received>:
#include "PNE_Factory.h"
#include "crc.h"
#include "pneConfig.h"

uint8_t pneVerify_received(uint8_t *data, uint8_t size)
{
     8e4:	cf 93       	push	r28
     8e6:	df 93       	push	r29
	uint16_t signature_d = (((uint16_t)data[size-2]) << 8) | ((uint16_t)data[size-1]);
     8e8:	70 e0       	ldi	r23, 0x00	; 0
     8ea:	9c 01       	movw	r18, r24
     8ec:	26 0f       	add	r18, r22
     8ee:	37 1f       	adc	r19, r23
     8f0:	f9 01       	movw	r30, r18
     8f2:	32 97       	sbiw	r30, 0x02	; 2
     8f4:	c0 81       	ld	r28, Z
     8f6:	d0 e0       	ldi	r29, 0x00	; 0
     8f8:	dc 2f       	mov	r29, r28
     8fa:	cc 27       	eor	r28, r28
     8fc:	31 96       	adiw	r30, 0x01	; 1
     8fe:	20 81       	ld	r18, Z
     900:	c2 2b       	or	r28, r18
// 	int_to_ascii((uint8_t)(signature_d >> 8));
// 	int_to_ascii((uint8_t)(signature_d));
// 	send_usart_char("\r\n");
	/*int_to_ascii(data[9]);*/
	uint16_t signature = pnesign(((char*)(data)), ((uint16_t)(size - 2)), SIGNATURE_KEY, strlen(SIGNATURE_KEY)); //need some rework
     902:	62 50       	subi	r22, 0x02	; 2
     904:	71 09       	sbc	r23, r1
     906:	26 e0       	ldi	r18, 0x06	; 6
     908:	30 e0       	ldi	r19, 0x00	; 0
     90a:	49 e3       	ldi	r20, 0x39	; 57
     90c:	52 e0       	ldi	r21, 0x02	; 2
     90e:	0e 94 60 50 	call	0xa0c0	; 0xa0c0 <pnesign>
// 	int_to_ascii((uint8_t)(signature >> 8));
// 	int_to_ascii((uint8_t)(signature));
// 	send_usart_char("\r\n");
	if (signature == signature_d )
     912:	21 e0       	ldi	r18, 0x01	; 1
     914:	c8 17       	cp	r28, r24
     916:	d9 07       	cpc	r29, r25
     918:	09 f0       	breq	.+2      	; 0x91c <pneVerify_received+0x38>
     91a:	20 e0       	ldi	r18, 0x00	; 0
	}
	else
	{
		return FALSE;
	}
}
     91c:	82 2f       	mov	r24, r18
     91e:	df 91       	pop	r29
     920:	cf 91       	pop	r28
     922:	08 95       	ret

00000924 <twi_master_bus_reset>:
	slave_transfer.data_count  = 0;

	twi_slave_status_reset();

	return STATUS_OK;
}
     924:	81 e0       	ldi	r24, 0x01	; 1
     926:	80 93 c3 13 	sts	0x13C3, r24
     92a:	10 92 b5 13 	sts	0x13B5, r1
     92e:	80 e9       	ldi	r24, 0x90	; 144
     930:	80 93 bc 00 	sts	0x00BC, r24
     934:	08 95       	ret

00000936 <twi_master_write>:
     936:	61 15       	cp	r22, r1
     938:	71 05       	cpc	r23, r1
     93a:	29 f1       	breq	.+74     	; 0x986 <twi_master_write+0x50>
     93c:	80 91 b5 13 	lds	r24, 0x13B5
     940:	81 11       	cpse	r24, r1
     942:	23 c0       	rjmp	.+70     	; 0x98a <twi_master_write+0x54>
     944:	ed eb       	ldi	r30, 0xBD	; 189
     946:	f3 e1       	ldi	r31, 0x13	; 19
     948:	71 83       	std	Z+1, r23	; 0x01
     94a:	60 83       	st	Z, r22
     94c:	13 82       	std	Z+3, r1	; 0x03
     94e:	12 82       	std	Z+2, r1	; 0x02
     950:	15 82       	std	Z+5, r1	; 0x05
     952:	14 82       	std	Z+4, r1	; 0x04
     954:	81 e0       	ldi	r24, 0x01	; 1
     956:	80 93 b5 13 	sts	0x13B5, r24
     95a:	fb 01       	movw	r30, r22
     95c:	84 81       	ldd	r24, Z+4	; 0x04
     95e:	95 81       	ldd	r25, Z+5	; 0x05
     960:	89 2b       	or	r24, r25
     962:	21 f4       	brne	.+8      	; 0x96c <twi_master_write+0x36>
     964:	84 e0       	ldi	r24, 0x04	; 4
     966:	80 93 c3 13 	sts	0x13C3, r24
     96a:	03 c0       	rjmp	.+6      	; 0x972 <twi_master_write+0x3c>
     96c:	82 e0       	ldi	r24, 0x02	; 2
     96e:	80 93 c3 13 	sts	0x13C3, r24
     972:	85 ea       	ldi	r24, 0xA5	; 165
     974:	80 93 bc 00 	sts	0x00BC, r24
     978:	80 91 b5 13 	lds	r24, 0x13B5
     97c:	81 11       	cpse	r24, r1
     97e:	fc cf       	rjmp	.-8      	; 0x978 <twi_master_write+0x42>
     980:	80 91 c4 13 	lds	r24, 0x13C4
     984:	08 95       	ret
     986:	88 ef       	ldi	r24, 0xF8	; 248
     988:	08 95       	ret
     98a:	80 e8       	ldi	r24, 0x80	; 128
     98c:	08 95       	ret

0000098e <twi_master_read>:
     98e:	70 93 be 13 	sts	0x13BE, r23
     992:	60 93 bd 13 	sts	0x13BD, r22
     996:	61 15       	cp	r22, r1
     998:	71 05       	cpc	r23, r1
     99a:	41 f1       	breq	.+80     	; 0x9ec <twi_master_read+0x5e>
     99c:	fb 01       	movw	r30, r22
     99e:	80 85       	ldd	r24, Z+8	; 0x08
     9a0:	91 85       	ldd	r25, Z+9	; 0x09
     9a2:	89 2b       	or	r24, r25
     9a4:	29 f1       	breq	.+74     	; 0x9f0 <twi_master_read+0x62>
     9a6:	80 91 b5 13 	lds	r24, 0x13B5
     9aa:	81 11       	cpse	r24, r1
     9ac:	23 c0       	rjmp	.+70     	; 0x9f4 <twi_master_read+0x66>
     9ae:	ed eb       	ldi	r30, 0xBD	; 189
     9b0:	f3 e1       	ldi	r31, 0x13	; 19
     9b2:	13 82       	std	Z+3, r1	; 0x03
     9b4:	12 82       	std	Z+2, r1	; 0x02
     9b6:	15 82       	std	Z+5, r1	; 0x05
     9b8:	14 82       	std	Z+4, r1	; 0x04
     9ba:	81 e0       	ldi	r24, 0x01	; 1
     9bc:	80 93 b5 13 	sts	0x13B5, r24
     9c0:	fb 01       	movw	r30, r22
     9c2:	84 81       	ldd	r24, Z+4	; 0x04
     9c4:	95 81       	ldd	r25, Z+5	; 0x05
     9c6:	89 2b       	or	r24, r25
     9c8:	21 f4       	brne	.+8      	; 0x9d2 <twi_master_read+0x44>
     9ca:	85 e0       	ldi	r24, 0x05	; 5
     9cc:	80 93 c3 13 	sts	0x13C3, r24
     9d0:	03 c0       	rjmp	.+6      	; 0x9d8 <twi_master_read+0x4a>
     9d2:	83 e0       	ldi	r24, 0x03	; 3
     9d4:	80 93 c3 13 	sts	0x13C3, r24
     9d8:	85 ea       	ldi	r24, 0xA5	; 165
     9da:	80 93 bc 00 	sts	0x00BC, r24
     9de:	80 91 b5 13 	lds	r24, 0x13B5
     9e2:	81 11       	cpse	r24, r1
     9e4:	fc cf       	rjmp	.-8      	; 0x9de <twi_master_read+0x50>
     9e6:	80 91 c4 13 	lds	r24, 0x13C4
     9ea:	08 95       	ret
     9ec:	88 ef       	ldi	r24, 0xF8	; 248
     9ee:	08 95       	ret
     9f0:	88 ef       	ldi	r24, 0xF8	; 248
     9f2:	08 95       	ret
     9f4:	80 e8       	ldi	r24, 0x80	; 128
     9f6:	08 95       	ret

000009f8 <twi_master_init>:
     9f8:	f8 94       	cli
     9fa:	ec eb       	ldi	r30, 0xBC	; 188
     9fc:	f0 e0       	ldi	r31, 0x00	; 0
     9fe:	10 82       	st	Z, r1
     a00:	10 92 b9 00 	sts	0x00B9, r1
     a04:	db 01       	movw	r26, r22
     a06:	14 96       	adiw	r26, 0x04	; 4
     a08:	8c 91       	ld	r24, X
     a0a:	80 93 b8 00 	sts	0x00B8, r24
     a0e:	80 81       	ld	r24, Z
     a10:	81 60       	ori	r24, 0x01	; 1
     a12:	80 83       	st	Z, r24
     a14:	78 94       	sei
     a16:	10 92 b4 13 	sts	0x13B4, r1
     a1a:	80 e0       	ldi	r24, 0x00	; 0
     a1c:	08 95       	ret

00000a1e <__vector_39>:

/**
 * \brief TWI interrupt Vector
 */
ISR(TWI_vect)
{
     a1e:	1f 92       	push	r1
     a20:	0f 92       	push	r0
     a22:	0f b6       	in	r0, 0x3f	; 63
     a24:	0f 92       	push	r0
     a26:	11 24       	eor	r1, r1
     a28:	0b b6       	in	r0, 0x3b	; 59
     a2a:	0f 92       	push	r0
     a2c:	2f 93       	push	r18
     a2e:	3f 93       	push	r19
     a30:	4f 93       	push	r20
     a32:	5f 93       	push	r21
     a34:	6f 93       	push	r22
     a36:	7f 93       	push	r23
     a38:	8f 93       	push	r24
     a3a:	9f 93       	push	r25
     a3c:	af 93       	push	r26
     a3e:	bf 93       	push	r27
     a40:	ef 93       	push	r30
     a42:	ff 93       	push	r31
 * \brief TWI Interrupt Handler
 */
static void twi_interrupt_handler(void)
{
	uint8_t status;
	status = TWI_TWSR_STATUS_MASK;
     a44:	80 91 b9 00 	lds	r24, 0x00B9
     a48:	88 7f       	andi	r24, 0xF8	; 248

	switch (status) {
     a4a:	90 e0       	ldi	r25, 0x00	; 0
     a4c:	89 3c       	cpi	r24, 0xC9	; 201
     a4e:	91 05       	cpc	r25, r1
     a50:	08 f0       	brcs	.+2      	; 0xa54 <__vector_39+0x36>
     a52:	8c c1       	rjmp	.+792    	; 0xd6c <__vector_39+0x34e>
     a54:	fc 01       	movw	r30, r24
     a56:	88 27       	eor	r24, r24
     a58:	e6 56       	subi	r30, 0x66	; 102
     a5a:	ff 4f       	sbci	r31, 0xFF	; 255
     a5c:	8f 4f       	sbci	r24, 0xFF	; 255
     a5e:	0c 94 c4 50 	jmp	0xa188	; 0xa188 <__tablejump2__>
 */
static void twi_master_start(void)
{
	uint8_t chip_add;

	if ((TWI_WRITE_IADDR_WRITE_DATA == master_transfer.state) || (TWI_WRITE_DATA ==
     a62:	80 91 c3 13 	lds	r24, 0x13C3
     a66:	9e ef       	ldi	r25, 0xFE	; 254
     a68:	98 0f       	add	r25, r24
     a6a:	93 30       	cpi	r25, 0x03	; 3
     a6c:	60 f4       	brcc	.+24     	; 0xa86 <__vector_39+0x68>
			master_transfer.state) || (TWI_WRITE_IADDR_READ_DATA ==
			master_transfer.state)) {
		chip_add = TWI_WRITE_ENABLE(master_transfer.pkg->chip);
     a6e:	e0 91 bd 13 	lds	r30, 0x13BD
     a72:	f0 91 be 13 	lds	r31, 0x13BE
     a76:	80 81       	ld	r24, Z
     a78:	8e 7f       	andi	r24, 0xFE	; 254
 * \brief writes the data
 * \param data - an byte for sending.
 */
static inline void twi_write_byte(uint8_t data)
{
	TWDR =  data;
     a7a:	80 93 bb 00 	sts	0x00BB, r24
	TWCR = (1 << TWINT) | (1 << TWEN) | (1 << TWIE);
     a7e:	85 e8       	ldi	r24, 0x85	; 133
     a80:	80 93 bc 00 	sts	0x00BC, r24
     a84:	8b c1       	rjmp	.+790    	; 0xd9c <__vector_39+0x37e>
		twi_write_byte(chip_add);
	} else if (TWI_READ_DATA == master_transfer.state) {
     a86:	85 30       	cpi	r24, 0x05	; 5
     a88:	61 f4       	brne	.+24     	; 0xaa2 <__vector_39+0x84>
		chip_add = TWI_READ_ENABLE(master_transfer.pkg->chip);
     a8a:	e0 91 bd 13 	lds	r30, 0x13BD
     a8e:	f0 91 be 13 	lds	r31, 0x13BE
     a92:	80 81       	ld	r24, Z
     a94:	81 60       	ori	r24, 0x01	; 1
 * \brief writes the data
 * \param data - an byte for sending.
 */
static inline void twi_write_byte(uint8_t data)
{
	TWDR =  data;
     a96:	80 93 bb 00 	sts	0x00BB, r24
	TWCR = (1 << TWINT) | (1 << TWEN) | (1 << TWIE);
     a9a:	85 e8       	ldi	r24, 0x85	; 133
     a9c:	80 93 bc 00 	sts	0x00BC, r24
     aa0:	7d c1       	rjmp	.+762    	; 0xd9c <__vector_39+0x37e>
		twi_write_byte(chip_add);
	} else { /* abnormal */
		twi_master_bus_reset();
     aa2:	40 df       	rcall	.-384    	; 0x924 <twi_master_bus_reset>
		master_transfer.status = ERR_PROTOCOL;
     aa4:	8b ef       	ldi	r24, 0xFB	; 251
     aa6:	80 93 c4 13 	sts	0x13C4, r24
     aaa:	78 c1       	rjmp	.+752    	; 0xd9c <__vector_39+0x37e>
 * \param result - contains result of previous operation.
 */

static void twi_master_write_done(void)
{
	if (TWI_WRITE_DATA == master_transfer.state) {
     aac:	80 91 c3 13 	lds	r24, 0x13C3
     ab0:	84 30       	cpi	r24, 0x04	; 4
     ab2:	51 f5       	brne	.+84     	; 0xb08 <__vector_39+0xea>
 *
 * \param none.
 */
static void twi_master_data_write(void)
{
	if (master_transfer.data_count < master_transfer.pkg->length) {
     ab4:	ed eb       	ldi	r30, 0xBD	; 189
     ab6:	f3 e1       	ldi	r31, 0x13	; 19
     ab8:	84 81       	ldd	r24, Z+4	; 0x04
     aba:	95 81       	ldd	r25, Z+5	; 0x05
     abc:	01 90       	ld	r0, Z+
     abe:	f0 81       	ld	r31, Z
     ac0:	e0 2d       	mov	r30, r0
     ac2:	20 85       	ldd	r18, Z+8	; 0x08
     ac4:	31 85       	ldd	r19, Z+9	; 0x09
     ac6:	82 17       	cp	r24, r18
     ac8:	93 07       	cpc	r25, r19
     aca:	98 f4       	brcc	.+38     	; 0xaf2 <__vector_39+0xd4>
		twi_write_byte(master_transfer.pkg->buffer[master_transfer.data_count++]);
     acc:	26 81       	ldd	r18, Z+6	; 0x06
     ace:	37 81       	ldd	r19, Z+7	; 0x07
     ad0:	ac 01       	movw	r20, r24
     ad2:	4f 5f       	subi	r20, 0xFF	; 255
     ad4:	5f 4f       	sbci	r21, 0xFF	; 255
     ad6:	50 93 c2 13 	sts	0x13C2, r21
     ada:	40 93 c1 13 	sts	0x13C1, r20
     ade:	f9 01       	movw	r30, r18
     ae0:	e8 0f       	add	r30, r24
     ae2:	f9 1f       	adc	r31, r25
     ae4:	80 81       	ld	r24, Z
 * \brief writes the data
 * \param data - an byte for sending.
 */
static inline void twi_write_byte(uint8_t data)
{
	TWDR =  data;
     ae6:	80 93 bb 00 	sts	0x00BB, r24
	TWCR = (1 << TWINT) | (1 << TWEN) | (1 << TWIE);
     aea:	85 e8       	ldi	r24, 0x85	; 133
     aec:	80 93 bc 00 	sts	0x00BC, r24
     af0:	55 c1       	rjmp	.+682    	; 0xd9c <__vector_39+0x37e>
/**
 * \brief Directs TWI to send stop condition.
 */
static inline void twi_send_stop(void)
{
	TWCR = ((1 << TWSTO) | (1 << TWINT) | (1 << TWEN));
     af2:	84 e9       	ldi	r24, 0x94	; 148
     af4:	80 93 bc 00 	sts	0x00BC, r24
	} else {
		twi_send_stop();
		master_transfer.state = TWI_IDLE;
     af8:	ed eb       	ldi	r30, 0xBD	; 189
     afa:	f3 e1       	ldi	r31, 0x13	; 19
     afc:	81 e0       	ldi	r24, 0x01	; 1
     afe:	86 83       	std	Z+6, r24	; 0x06
		master_transfer.status = STATUS_OK;
     b00:	17 82       	std	Z+7, r1	; 0x07
		twi_master_busy = false;
     b02:	10 92 b5 13 	sts	0x13B5, r1
     b06:	4a c1       	rjmp	.+660    	; 0xd9c <__vector_39+0x37e>

static void twi_master_write_done(void)
{
	if (TWI_WRITE_DATA == master_transfer.state) {
		twi_master_data_write();
	} else if ((TWI_WRITE_IADDR_WRITE_DATA == master_transfer.state) ||
     b08:	9e ef       	ldi	r25, 0xFE	; 254
     b0a:	98 0f       	add	r25, r24
     b0c:	92 30       	cpi	r25, 0x02	; 2
     b0e:	38 f5       	brcc	.+78     	; 0xb5e <__vector_39+0x140>
 */
static void twi_master_internal_addr_write(void)
{
	uint8_t data;

	data = master_transfer.pkg->addr[master_transfer.addr_count];
     b10:	ed eb       	ldi	r30, 0xBD	; 189
     b12:	f3 e1       	ldi	r31, 0x13	; 19
     b14:	82 81       	ldd	r24, Z+2	; 0x02
     b16:	93 81       	ldd	r25, Z+3	; 0x03
     b18:	a0 81       	ld	r26, Z
     b1a:	b1 81       	ldd	r27, Z+1	; 0x01
     b1c:	a8 0f       	add	r26, r24
     b1e:	b9 1f       	adc	r27, r25
     b20:	11 96       	adiw	r26, 0x01	; 1
     b22:	2c 91       	ld	r18, X
	master_transfer.addr_count++;
     b24:	01 96       	adiw	r24, 0x01	; 1
     b26:	93 83       	std	Z+3, r25	; 0x03
     b28:	82 83       	std	Z+2, r24	; 0x02
 * \brief writes the data
 * \param data - an byte for sending.
 */
static inline void twi_write_byte(uint8_t data)
{
	TWDR =  data;
     b2a:	20 93 bb 00 	sts	0x00BB, r18
	TWCR = (1 << TWINT) | (1 << TWEN) | (1 << TWIE);
     b2e:	25 e8       	ldi	r18, 0x85	; 133
     b30:	20 93 bc 00 	sts	0x00BC, r18
	twi_write_byte(data);

	if (master_transfer.pkg->addr_length == master_transfer.addr_count) {
     b34:	01 90       	ld	r0, Z+
     b36:	f0 81       	ld	r31, Z
     b38:	e0 2d       	mov	r30, r0
     b3a:	24 81       	ldd	r18, Z+4	; 0x04
     b3c:	35 81       	ldd	r19, Z+5	; 0x05
     b3e:	28 17       	cp	r18, r24
     b40:	39 07       	cpc	r19, r25
     b42:	09 f0       	breq	.+2      	; 0xb46 <__vector_39+0x128>
     b44:	2b c1       	rjmp	.+598    	; 0xd9c <__vector_39+0x37e>
		if (TWI_WRITE_IADDR_WRITE_DATA == master_transfer.state) {
     b46:	80 91 c3 13 	lds	r24, 0x13C3
     b4a:	82 30       	cpi	r24, 0x02	; 2
     b4c:	21 f4       	brne	.+8      	; 0xb56 <__vector_39+0x138>
			master_transfer.state = TWI_WRITE_DATA;
     b4e:	84 e0       	ldi	r24, 0x04	; 4
     b50:	80 93 c3 13 	sts	0x13C3, r24
     b54:	23 c1       	rjmp	.+582    	; 0xd9c <__vector_39+0x37e>
		} else {
			master_transfer.state = TWI_READ_DATA;
     b56:	85 e0       	ldi	r24, 0x05	; 5
     b58:	80 93 c3 13 	sts	0x13C3, r24
     b5c:	1f c1       	rjmp	.+574    	; 0xd9c <__vector_39+0x37e>
	if (TWI_WRITE_DATA == master_transfer.state) {
		twi_master_data_write();
	} else if ((TWI_WRITE_IADDR_WRITE_DATA == master_transfer.state) ||
			(TWI_WRITE_IADDR_READ_DATA == master_transfer.state)) {
		twi_master_internal_addr_write();
	} else if (TWI_READ_DATA == master_transfer.state) {
     b5e:	85 30       	cpi	r24, 0x05	; 5
     b60:	21 f4       	brne	.+8      	; 0xb6a <__vector_39+0x14c>
/**
 * \brief Directs the TWI to send start condition.
 */
static inline void twi_send_start(void)
{
	TWCR = ((1 << TWSTA) | (1 << TWINT) | (1 << TWEN) | (1 << TWIE));
     b62:	85 ea       	ldi	r24, 0xA5	; 165
     b64:	80 93 bc 00 	sts	0x00BC, r24
     b68:	19 c1       	rjmp	.+562    	; 0xd9c <__vector_39+0x37e>
		twi_send_start();
	} else { /* abnormal */
		twi_master_bus_reset();
     b6a:	dc de       	rcall	.-584    	; 0x924 <twi_master_bus_reset>
		master_transfer.status = ERR_PROTOCOL;
     b6c:	8b ef       	ldi	r24, 0xFB	; 251
     b6e:	80 93 c4 13 	sts	0x13C4, r24
     b72:	14 c1       	rjmp	.+552    	; 0xd9c <__vector_39+0x37e>
	                                        *been received.*/
	case TWS_MT_DATA_NACK:  /*Data byte has been transmitted; NOT ACK
	                                        *has been received.*/
	case TWS_MR_SLA_NACK:  /*SLA+R has been transmitted; NOT ACK has
	                                       *been received.*/
		twi_master_bus_reset();
     b74:	d7 de       	rcall	.-594    	; 0x924 <twi_master_bus_reset>
		master_transfer.status = ERR_IO_ERROR;
     b76:	8f ef       	ldi	r24, 0xFF	; 255
     b78:	80 93 c4 13 	sts	0x13C4, r24
     b7c:	0f c1       	rjmp	.+542    	; 0xd9c <__vector_39+0x37e>
 *
 * \param none.
 */
static void twi_master_addr_ack(void)
{
	if (TWI_READ_DATA == master_transfer.state) {
     b7e:	80 91 c3 13 	lds	r24, 0x13C3
     b82:	85 30       	cpi	r24, 0x05	; 5
     b84:	01 f5       	brne	.+64     	; 0xbc6 <__vector_39+0x1a8>
		if (master_transfer.data_count == (master_transfer.pkg->length - 1)) {
     b86:	ed eb       	ldi	r30, 0xBD	; 189
     b88:	f3 e1       	ldi	r31, 0x13	; 19
     b8a:	a0 81       	ld	r26, Z
     b8c:	b1 81       	ldd	r27, Z+1	; 0x01
     b8e:	18 96       	adiw	r26, 0x08	; 8
     b90:	8d 91       	ld	r24, X+
     b92:	9c 91       	ld	r25, X
     b94:	19 97       	sbiw	r26, 0x09	; 9
     b96:	01 97       	sbiw	r24, 0x01	; 1
     b98:	24 81       	ldd	r18, Z+4	; 0x04
     b9a:	35 81       	ldd	r19, Z+5	; 0x05
     b9c:	28 17       	cp	r18, r24
     b9e:	39 07       	cpc	r19, r25
     ba0:	49 f4       	brne	.+18     	; 0xbb4 <__vector_39+0x196>
static inline void twi_send_ack(bool ack)
{
	if (ack) {
		TWCR |= (1 << TWEA);
	} else {
		TWCR &= ~(1 << TWEA);
     ba2:	ec eb       	ldi	r30, 0xBC	; 188
     ba4:	f0 e0       	ldi	r31, 0x00	; 0
     ba6:	80 81       	ld	r24, Z
     ba8:	8f 7b       	andi	r24, 0xBF	; 191
     baa:	80 83       	st	Z, r24
	}

	TWCR |= ((1 << TWINT) | (1 << TWIE) | (1 << TWEN)); /* Trigger the TWI */
     bac:	80 81       	ld	r24, Z
     bae:	85 68       	ori	r24, 0x85	; 133
     bb0:	80 83       	st	Z, r24
     bb2:	f4 c0       	rjmp	.+488    	; 0xd9c <__vector_39+0x37e>
 * \brief Enables the ACK/NACK to send for the received data
 */
static inline void twi_send_ack(bool ack)
{
	if (ack) {
		TWCR |= (1 << TWEA);
     bb4:	ec eb       	ldi	r30, 0xBC	; 188
     bb6:	f0 e0       	ldi	r31, 0x00	; 0
     bb8:	80 81       	ld	r24, Z
     bba:	80 64       	ori	r24, 0x40	; 64
     bbc:	80 83       	st	Z, r24
	} else {
		TWCR &= ~(1 << TWEA);
	}

	TWCR |= ((1 << TWINT) | (1 << TWIE) | (1 << TWEN)); /* Trigger the TWI */
     bbe:	80 81       	ld	r24, Z
     bc0:	85 68       	ori	r24, 0x85	; 133
     bc2:	80 83       	st	Z, r24
     bc4:	eb c0       	rjmp	.+470    	; 0xd9c <__vector_39+0x37e>
			twi_send_ack(false); /* send nack */
		} else {
			twi_send_ack(true); /* send ack */
		}
	} else { /* abnormal */
		twi_master_bus_reset();
     bc6:	ae de       	rcall	.-676    	; 0x924 <twi_master_bus_reset>
		master_transfer.status = ERR_PROTOCOL;
     bc8:	8b ef       	ldi	r24, 0xFB	; 251
     bca:	80 93 c4 13 	sts	0x13C4, r24
     bce:	e6 c0       	rjmp	.+460    	; 0xd9c <__vector_39+0x37e>
 * \param none.
 * \return byte that was read from the TWI.
 */
static inline uint8_t twi_read_byte(void)
{
	return TWDR;
     bd0:	20 91 bb 00 	lds	r18, 0x00BB
 *
 * \param data - contains byte that was read.
 */
static void twi_master_read_done(uint8_t data)
{
	if (TWI_READ_DATA == master_transfer.state) {
     bd4:	80 91 c3 13 	lds	r24, 0x13C3
     bd8:	85 30       	cpi	r24, 0x05	; 5
     bda:	69 f5       	brne	.+90     	; 0xc36 <__vector_39+0x218>
		master_transfer.pkg->buffer[master_transfer.data_count++] = data;
     bdc:	ed eb       	ldi	r30, 0xBD	; 189
     bde:	f3 e1       	ldi	r31, 0x13	; 19
     be0:	a0 81       	ld	r26, Z
     be2:	b1 81       	ldd	r27, Z+1	; 0x01
     be4:	16 96       	adiw	r26, 0x06	; 6
     be6:	6d 91       	ld	r22, X+
     be8:	7c 91       	ld	r23, X
     bea:	17 97       	sbiw	r26, 0x07	; 7
     bec:	84 81       	ldd	r24, Z+4	; 0x04
     bee:	95 81       	ldd	r25, Z+5	; 0x05
     bf0:	ac 01       	movw	r20, r24
     bf2:	4f 5f       	subi	r20, 0xFF	; 255
     bf4:	5f 4f       	sbci	r21, 0xFF	; 255
     bf6:	55 83       	std	Z+5, r21	; 0x05
     bf8:	44 83       	std	Z+4, r20	; 0x04
     bfa:	fb 01       	movw	r30, r22
     bfc:	e8 0f       	add	r30, r24
     bfe:	f9 1f       	adc	r31, r25
     c00:	20 83       	st	Z, r18
		if (master_transfer.data_count < (master_transfer.pkg->length - 1)) {
     c02:	18 96       	adiw	r26, 0x08	; 8
     c04:	8d 91       	ld	r24, X+
     c06:	9c 91       	ld	r25, X
     c08:	19 97       	sbiw	r26, 0x09	; 9
     c0a:	01 97       	sbiw	r24, 0x01	; 1
     c0c:	48 17       	cp	r20, r24
     c0e:	59 07       	cpc	r21, r25
     c10:	48 f4       	brcc	.+18     	; 0xc24 <__vector_39+0x206>
 * \brief Enables the ACK/NACK to send for the received data
 */
static inline void twi_send_ack(bool ack)
{
	if (ack) {
		TWCR |= (1 << TWEA);
     c12:	ec eb       	ldi	r30, 0xBC	; 188
     c14:	f0 e0       	ldi	r31, 0x00	; 0
     c16:	80 81       	ld	r24, Z
     c18:	80 64       	ori	r24, 0x40	; 64
     c1a:	80 83       	st	Z, r24
	} else {
		TWCR &= ~(1 << TWEA);
	}

	TWCR |= ((1 << TWINT) | (1 << TWIE) | (1 << TWEN)); /* Trigger the TWI */
     c1c:	80 81       	ld	r24, Z
     c1e:	85 68       	ori	r24, 0x85	; 133
     c20:	80 83       	st	Z, r24
     c22:	bc c0       	rjmp	.+376    	; 0xd9c <__vector_39+0x37e>
static inline void twi_send_ack(bool ack)
{
	if (ack) {
		TWCR |= (1 << TWEA);
	} else {
		TWCR &= ~(1 << TWEA);
     c24:	ec eb       	ldi	r30, 0xBC	; 188
     c26:	f0 e0       	ldi	r31, 0x00	; 0
     c28:	80 81       	ld	r24, Z
     c2a:	8f 7b       	andi	r24, 0xBF	; 191
     c2c:	80 83       	st	Z, r24
	}

	TWCR |= ((1 << TWINT) | (1 << TWIE) | (1 << TWEN)); /* Trigger the TWI */
     c2e:	80 81       	ld	r24, Z
     c30:	85 68       	ori	r24, 0x85	; 133
     c32:	80 83       	st	Z, r24
     c34:	b3 c0       	rjmp	.+358    	; 0xd9c <__vector_39+0x37e>
			twi_send_ack(true); /* send ACK */
		} else {
			twi_send_ack(false); /* send NACK */
		}
	} else { /* abnormal */
		twi_master_bus_reset();
     c36:	76 de       	rcall	.-788    	; 0x924 <twi_master_bus_reset>
		master_transfer.status = ERR_PROTOCOL;
     c38:	8b ef       	ldi	r24, 0xFB	; 251
     c3a:	80 93 c4 13 	sts	0x13C4, r24
     c3e:	ae c0       	rjmp	.+348    	; 0xd9c <__vector_39+0x37e>
 * \param none.
 * \return byte that was read from the TWI.
 */
static inline uint8_t twi_read_byte(void)
{
	return TWDR;
     c40:	20 91 bb 00 	lds	r18, 0x00BB
 *
 * \param data - contains byte that was read.
 */
static void twi_master_read_last_byte(uint8_t data)
{
	if (TWI_READ_DATA == master_transfer.state) {
     c44:	80 91 c3 13 	lds	r24, 0x13C3
     c48:	85 30       	cpi	r24, 0x05	; 5
     c4a:	e1 f4       	brne	.+56     	; 0xc84 <__vector_39+0x266>
		master_transfer.pkg->buffer[master_transfer.data_count++] = data;
     c4c:	ed eb       	ldi	r30, 0xBD	; 189
     c4e:	f3 e1       	ldi	r31, 0x13	; 19
     c50:	a0 81       	ld	r26, Z
     c52:	b1 81       	ldd	r27, Z+1	; 0x01
     c54:	16 96       	adiw	r26, 0x06	; 6
     c56:	4d 91       	ld	r20, X+
     c58:	5c 91       	ld	r21, X
     c5a:	17 97       	sbiw	r26, 0x07	; 7
     c5c:	84 81       	ldd	r24, Z+4	; 0x04
     c5e:	95 81       	ldd	r25, Z+5	; 0x05
     c60:	bc 01       	movw	r22, r24
     c62:	6f 5f       	subi	r22, 0xFF	; 255
     c64:	7f 4f       	sbci	r23, 0xFF	; 255
     c66:	75 83       	std	Z+5, r23	; 0x05
     c68:	64 83       	std	Z+4, r22	; 0x04
     c6a:	da 01       	movw	r26, r20
     c6c:	a8 0f       	add	r26, r24
     c6e:	b9 1f       	adc	r27, r25
     c70:	2c 93       	st	X, r18
/**
 * \brief Directs TWI to send stop condition.
 */
static inline void twi_send_stop(void)
{
	TWCR = ((1 << TWSTO) | (1 << TWINT) | (1 << TWEN));
     c72:	84 e9       	ldi	r24, 0x94	; 148
     c74:	80 93 bc 00 	sts	0x00BC, r24
		twi_send_stop();
		master_transfer.state = TWI_IDLE;
     c78:	81 e0       	ldi	r24, 0x01	; 1
     c7a:	86 83       	std	Z+6, r24	; 0x06
		master_transfer.status = STATUS_OK;
     c7c:	17 82       	std	Z+7, r1	; 0x07
		twi_master_busy  = false;
     c7e:	10 92 b5 13 	sts	0x13B5, r1
     c82:	8c c0       	rjmp	.+280    	; 0xd9c <__vector_39+0x37e>
	} else { /* abnormal */
		twi_master_bus_reset();
     c84:	4f de       	rcall	.-866    	; 0x924 <twi_master_bus_reset>
		master_transfer.status = ERR_PROTOCOL;
     c86:	8b ef       	ldi	r24, 0xFB	; 251
     c88:	80 93 c4 13 	sts	0x13C4, r24
     c8c:	87 c0       	rjmp	.+270    	; 0xd9c <__vector_39+0x37e>
	                       *(Transmitter); Arbitration lost in SLA+R or
	                       *NOT ACK bit (Receiver).*/
	    /* If arbitration lost indicate to application to decide either
		 * switch to Slave mode or wait until the bus is free and transmit
		 * a new START condition */
	    master_transfer.state = TWI_IDLE; 
     c8e:	ed eb       	ldi	r30, 0xBD	; 189
     c90:	f3 e1       	ldi	r31, 0x13	; 19
     c92:	81 e0       	ldi	r24, 0x01	; 1
     c94:	86 83       	std	Z+6, r24	; 0x06
		master_transfer.status = ERR_BUSY;
     c96:	86 ef       	ldi	r24, 0xF6	; 246
     c98:	87 83       	std	Z+7, r24	; 0x07
		twi_master_busy = false;
     c9a:	10 92 b5 13 	sts	0x13B5, r1
     c9e:	7e c0       	rjmp	.+252    	; 0xd9c <__vector_39+0x37e>
	case TWS_ST_SLA_ACK:        /* Own SLA+R has been received; ACK has been
		                     * returned */
	case TWS_ST_SLA_ACK_M_ARB_LOST:   /* ! Arbitration lost in SLA+R/W as Master;
	                                   *own SLA+R has been received;
	                                   *ACK has been returned */	
		slave_transfer.data_count   = 0; /* Set buffer pointer to first data
     ca0:	10 92 b9 13 	sts	0x13B9, r1
     ca4:	10 92 b8 13 	sts	0x13B8, r1
 *
 * \param none.
 */
static void twi_slave_data_write(void)
{
	twi_slave_write_byte(slave_transfer.data_buffer->tx_buffer[slave_transfer.data_count
     ca8:	e6 eb       	ldi	r30, 0xB6	; 182
     caa:	f3 e1       	ldi	r31, 0x13	; 19
     cac:	a0 81       	ld	r26, Z
     cae:	b1 81       	ldd	r27, Z+1	; 0x01
     cb0:	12 96       	adiw	r26, 0x02	; 2
     cb2:	2d 91       	ld	r18, X+
     cb4:	3c 91       	ld	r19, X
     cb6:	13 97       	sbiw	r26, 0x03	; 3
     cb8:	82 81       	ldd	r24, Z+2	; 0x02
     cba:	93 81       	ldd	r25, Z+3	; 0x03
     cbc:	ac 01       	movw	r20, r24
     cbe:	4f 5f       	subi	r20, 0xFF	; 255
     cc0:	5f 4f       	sbci	r21, 0xFF	; 255
     cc2:	53 83       	std	Z+3, r21	; 0x03
     cc4:	42 83       	std	Z+2, r20	; 0x02
     cc6:	d9 01       	movw	r26, r18
     cc8:	a8 0f       	add	r26, r24
     cca:	b9 1f       	adc	r27, r25
     ccc:	8c 91       	ld	r24, X
 *
 * \param data - contains the data to transmitted ro master.
 */
static inline void twi_slave_write_byte(uint8_t data)
{
	TWDR =  data;
     cce:	80 93 bb 00 	sts	0x00BB, r24
 *
 * \param none.
 */
static inline void twi_slave_enable(void)
{
	TWCR = (1 << TWEN) |     /* Enable TWI-interface and release TWI pins */
     cd2:	85 ec       	ldi	r24, 0xC5	; 197
     cd4:	80 93 bc 00 	sts	0x00BC, r24
		                            * location */

	case TWS_ST_DATA_ACK:       /* Data byte in TWDR has been transmitted;
		                     * ACK has been received */
		twi_slave_data_write();
		slave_transfer.state = TWI_PROCESS;
     cd8:	88 e0       	ldi	r24, 0x08	; 8
     cda:	84 83       	std	Z+4, r24	; 0x04
     cdc:	5f c0       	rjmp	.+190    	; 0xd9c <__vector_39+0x37e>
 *
 * \param none.
 */
static void twi_slave_last_byte_write_done(void)
{
	slave_transfer.state = TWI_IDLE;
     cde:	e6 eb       	ldi	r30, 0xB6	; 182
     ce0:	f3 e1       	ldi	r31, 0x13	; 19
     ce2:	81 e0       	ldi	r24, 0x01	; 1
     ce4:	84 83       	std	Z+4, r24	; 0x04
	slave_transfer.status = TWI_STATUS_TX_COMPLETE;
     ce6:	82 e0       	ldi	r24, 0x02	; 2
     ce8:	90 e0       	ldi	r25, 0x00	; 0
     cea:	96 83       	std	Z+6, r25	; 0x06
     cec:	85 83       	std	Z+5, r24	; 0x05
 *
 * \param none.
 */
static inline void twi_slave_enable(void)
{
	TWCR = (1 << TWEN) |     /* Enable TWI-interface and release TWI pins */
     cee:	85 ec       	ldi	r24, 0xC5	; 197
     cf0:	80 93 bc 00 	sts	0x00BC, r24
     cf4:	53 c0       	rjmp	.+166    	; 0xd9c <__vector_39+0x37e>
	case TWS_SR_SLA_ACK:        /* Own SLA+W has been received ACK has been
		                     * returned */
	case TWS_SR_SLA_ACK_M_ARB_LOST: /* ! Arbitration lost in  SLA+R/W as Master;
	                                 * own SLA+W has been received; 
	                                 * ACK has been returned */	
		slave_transfer.data_count   = 0; /* Set buffer pointer to first data
     cf6:	e6 eb       	ldi	r30, 0xB6	; 182
     cf8:	f3 e1       	ldi	r31, 0x13	; 19
     cfa:	13 82       	std	Z+3, r1	; 0x03
     cfc:	12 82       	std	Z+2, r1	; 0x02
 *
 * \param none.
 */
static inline void twi_slave_enable(void)
{
	TWCR = (1 << TWEN) |     /* Enable TWI-interface and release TWI pins */
     cfe:	85 ec       	ldi	r24, 0xC5	; 197
     d00:	80 93 bc 00 	sts	0x00BC, r24
	                                 * own SLA+W has been received; 
	                                 * ACK has been returned */	
		slave_transfer.data_count   = 0; /* Set buffer pointer to first data
		                            * location */
		twi_slave_enable();
		slave_transfer.state = TWI_PROCESS;
     d04:	88 e0       	ldi	r24, 0x08	; 8
     d06:	84 83       	std	Z+4, r24	; 0x04
     d08:	49 c0       	rjmp	.+146    	; 0xd9c <__vector_39+0x37e>
 * \param none.
 * \return byte that was read from the TWI.
 */
static inline uint8_t twi_read_byte(void)
{
	return TWDR;
     d0a:	20 91 bb 00 	lds	r18, 0x00BB
 * \param data - Contains data read from twi bus to be written to data receive
 *buffer.
 */
static void twi_slave_data_read(uint8_t data)
{
	slave_transfer.data_buffer->rx_buffer[slave_transfer.data_count++] = data;
     d0e:	e6 eb       	ldi	r30, 0xB6	; 182
     d10:	f3 e1       	ldi	r31, 0x13	; 19
     d12:	a0 81       	ld	r26, Z
     d14:	b1 81       	ldd	r27, Z+1	; 0x01
     d16:	4d 91       	ld	r20, X+
     d18:	5c 91       	ld	r21, X
     d1a:	82 81       	ldd	r24, Z+2	; 0x02
     d1c:	93 81       	ldd	r25, Z+3	; 0x03
     d1e:	bc 01       	movw	r22, r24
     d20:	6f 5f       	subi	r22, 0xFF	; 255
     d22:	7f 4f       	sbci	r23, 0xFF	; 255
     d24:	73 83       	std	Z+3, r23	; 0x03
     d26:	62 83       	std	Z+2, r22	; 0x02
     d28:	da 01       	movw	r26, r20
     d2a:	a8 0f       	add	r26, r24
     d2c:	b9 1f       	adc	r27, r25
     d2e:	2c 93       	st	X, r18
 *
 * \param none.
 */
static inline void twi_slave_enable(void)
{
	TWCR = (1 << TWEN) |     /* Enable TWI-interface and release TWI pins */
     d30:	85 ec       	ldi	r24, 0xC5	; 197
     d32:	80 93 bc 00 	sts	0x00BC, r24
		                     * has been received; ACK has been returned */
	case TWS_SR_GEN_DATA_ACK:   /* Previously addressed with general call;
		                     * data has been received; ACK has been
		                     * returned */
		twi_slave_data_read(twi_read_byte());
		slave_transfer.state = TWI_PROCESS;
     d36:	88 e0       	ldi	r24, 0x08	; 8
     d38:	84 83       	std	Z+4, r24	; 0x04
     d3a:	30 c0       	rjmp	.+96     	; 0xd9c <__vector_39+0x37e>

	case TWS_SR_STOP_RESTART:   /* A STOP condition or repeated START
		                     * condition has been received while still
		                     * addressed as Slave */
		/* Enter not addressed mode and listen to address match */
		slave_transfer.state = TWI_IDLE;
     d3c:	e6 eb       	ldi	r30, 0xB6	; 182
     d3e:	f3 e1       	ldi	r31, 0x13	; 19
     d40:	81 e0       	ldi	r24, 0x01	; 1
     d42:	84 83       	std	Z+4, r24	; 0x04
		slave_transfer.status = TWI_STATUS_RX_COMPLETE;
     d44:	83 e0       	ldi	r24, 0x03	; 3
     d46:	90 e0       	ldi	r25, 0x00	; 0
     d48:	96 83       	std	Z+6, r25	; 0x06
     d4a:	85 83       	std	Z+5, r24	; 0x05
 *
 * \param none.
 */
static inline void twi_slave_enable(void)
{
	TWCR = (1 << TWEN) |     /* Enable TWI-interface and release TWI pins */
     d4c:	85 ec       	ldi	r24, 0xC5	; 197
     d4e:	80 93 bc 00 	sts	0x00BC, r24
     d52:	24 c0       	rjmp	.+72     	; 0xd9c <__vector_39+0x37e>
 *
 * \param none.
 */
static void twi_slave_bus_reset(void)
{
	slave_transfer.state = TWI_IDLE;
     d54:	e6 eb       	ldi	r30, 0xB6	; 182
     d56:	f3 e1       	ldi	r31, 0x13	; 19
     d58:	81 e0       	ldi	r24, 0x01	; 1
     d5a:	84 83       	std	Z+4, r24	; 0x04
 *
 * \param none.
 */
static inline void twi_reset(void)
{
	TWCR = ((1 << TWSTO) | (1 << TWINT));
     d5c:	80 e9       	ldi	r24, 0x90	; 144
     d5e:	80 93 bc 00 	sts	0x00BC, r24
		                     * returned */
	case TWS_ST_DATA_ACK_LAST_BYTE: /* Last data byte in TWDR has been
		                         * transmitted (TWEA = 0); ACK has
		                         * been received */
		twi_slave_bus_reset();
		slave_transfer.status = TWI_STATUS_IO_ERROR;
     d62:	8f ef       	ldi	r24, 0xFF	; 255
     d64:	9f ef       	ldi	r25, 0xFF	; 255
     d66:	96 83       	std	Z+6, r25	; 0x06
     d68:	85 83       	std	Z+5, r24	; 0x05
     d6a:	18 c0       	rjmp	.+48     	; 0xd9c <__vector_39+0x37e>
		break;

	default:
	    if(twi_mode == MASTER)
     d6c:	80 91 b4 13 	lds	r24, 0x13B4
     d70:	81 11       	cpse	r24, r1
     d72:	09 c0       	rjmp	.+18     	; 0xd86 <__vector_39+0x368>
		{
			master_transfer.state = TWI_IDLE;
     d74:	ed eb       	ldi	r30, 0xBD	; 189
     d76:	f3 e1       	ldi	r31, 0x13	; 19
     d78:	81 e0       	ldi	r24, 0x01	; 1
     d7a:	86 83       	std	Z+6, r24	; 0x06
			master_transfer.status = ERR_PROTOCOL;
     d7c:	8b ef       	ldi	r24, 0xFB	; 251
     d7e:	87 83       	std	Z+7, r24	; 0x07
			twi_master_busy = false;
     d80:	10 92 b5 13 	sts	0x13B5, r1
     d84:	0b c0       	rjmp	.+22     	; 0xd9c <__vector_39+0x37e>
		}
		else
		{
			slave_transfer.status = TWI_STATUS_PROTOCOL_ERROR;  /* Store TWI State as
     d86:	e6 eb       	ldi	r30, 0xB6	; 182
     d88:	f3 e1       	ldi	r31, 0x13	; 19
     d8a:	8e ef       	ldi	r24, 0xFE	; 254
     d8c:	9f ef       	ldi	r25, 0xFF	; 255
     d8e:	96 83       	std	Z+6, r25	; 0x06
     d90:	85 83       	std	Z+5, r24	; 0x05
		                            * errormessage, operation also
		                            * clears the Success bit */
		    slave_transfer.state = TWI_IDLE;
     d92:	81 e0       	ldi	r24, 0x01	; 1
     d94:	84 83       	std	Z+4, r24	; 0x04
 *
 * \param none.
 */
static inline void twi_slave_enable(void)
{
	TWCR = (1 << TWEN) |     /* Enable TWI-interface and release TWI pins */
     d96:	85 ec       	ldi	r24, 0xC5	; 197
     d98:	80 93 bc 00 	sts	0x00BC, r24
 * \brief TWI interrupt Vector
 */
ISR(TWI_vect)
{
	twi_interrupt_handler();
}	
     d9c:	ff 91       	pop	r31
     d9e:	ef 91       	pop	r30
     da0:	bf 91       	pop	r27
     da2:	af 91       	pop	r26
     da4:	9f 91       	pop	r25
     da6:	8f 91       	pop	r24
     da8:	7f 91       	pop	r23
     daa:	6f 91       	pop	r22
     dac:	5f 91       	pop	r21
     dae:	4f 91       	pop	r20
     db0:	3f 91       	pop	r19
     db2:	2f 91       	pop	r18
     db4:	0f 90       	pop	r0
     db6:	0b be       	out	0x3b, r0	; 59
     db8:	0f 90       	pop	r0
     dba:	0f be       	out	0x3f, r0	; 63
     dbc:	0f 90       	pop	r0
     dbe:	1f 90       	pop	r1
     dc0:	18 95       	reti

00000dc2 <usart_putchar>:
		 * assign maximum baudrate possible for the current CPU frequency */
		ubrr = 0;
	}
	
	usart->UBRR  = ubrr;
}
     dc2:	0f 93       	push	r16
     dc4:	1f 93       	push	r17
     dc6:	cf 93       	push	r28
     dc8:	df 93       	push	r29
     dca:	8c 01       	movw	r16, r24
     dcc:	d6 2f       	mov	r29, r22
     dce:	ca e0       	ldi	r28, 0x0A	; 10
     dd0:	0a c0       	rjmp	.+20     	; 0xde6 <usart_putchar+0x24>
     dd2:	81 e0       	ldi	r24, 0x01	; 1
     dd4:	90 e0       	ldi	r25, 0x00	; 0
     dd6:	0e 94 e1 23 	call	0x47c2	; 0x47c2 <pne_delayms>
     dda:	c1 50       	subi	r28, 0x01	; 1
     ddc:	21 f4       	brne	.+8      	; 0xde6 <usart_putchar+0x24>
     dde:	82 e0       	ldi	r24, 0x02	; 2
     de0:	0e 94 6f 3a 	call	0x74de	; 0x74de <fatal_error_to_rf>
     de4:	04 c0       	rjmp	.+8      	; 0xdee <usart_putchar+0x2c>
     de6:	f8 01       	movw	r30, r16
     de8:	90 81       	ld	r25, Z
     dea:	95 ff       	sbrs	r25, 5
     dec:	f2 cf       	rjmp	.-28     	; 0xdd2 <usart_putchar+0x10>
     dee:	f8 01       	movw	r30, r16
     df0:	d6 83       	std	Z+6, r29	; 0x06
     df2:	80 e0       	ldi	r24, 0x00	; 0
     df4:	df 91       	pop	r29
     df6:	cf 91       	pop	r28
     df8:	1f 91       	pop	r17
     dfa:	0f 91       	pop	r16
     dfc:	08 95       	ret

00000dfe <usart_set_baudrate>:
     dfe:	8f 92       	push	r8
     e00:	9f 92       	push	r9
     e02:	af 92       	push	r10
     e04:	bf 92       	push	r11
     e06:	cf 92       	push	r12
     e08:	df 92       	push	r13
     e0a:	ef 92       	push	r14
     e0c:	ff 92       	push	r15
     e0e:	0f 93       	push	r16
     e10:	1f 93       	push	r17
     e12:	cf 93       	push	r28
     e14:	df 93       	push	r29
     e16:	ec 01       	movw	r28, r24
     e18:	6a 01       	movw	r12, r20
     e1a:	7b 01       	movw	r14, r22
     e1c:	b9 01       	movw	r22, r18
     e1e:	a8 01       	movw	r20, r16
     e20:	68 94       	set
     e22:	12 f8       	bld	r1, 2
     e24:	76 95       	lsr	r23
     e26:	67 95       	ror	r22
     e28:	57 95       	ror	r21
     e2a:	47 95       	ror	r20
     e2c:	16 94       	lsr	r1
     e2e:	d1 f7       	brne	.-12     	; 0xe24 <usart_set_baudrate+0x26>
     e30:	d9 01       	movw	r26, r18
     e32:	c8 01       	movw	r24, r16
     e34:	07 2e       	mov	r0, r23
     e36:	73 e1       	ldi	r23, 0x13	; 19
     e38:	b6 95       	lsr	r27
     e3a:	a7 95       	ror	r26
     e3c:	97 95       	ror	r25
     e3e:	87 95       	ror	r24
     e40:	7a 95       	dec	r23
     e42:	d1 f7       	brne	.-12     	; 0xe38 <usart_set_baudrate+0x3a>
     e44:	70 2d       	mov	r23, r0
     e46:	e8 81       	ld	r30, Y
     e48:	e1 ff       	sbrs	r30, 1
     e4a:	0b c0       	rjmp	.+22     	; 0xe62 <usart_set_baudrate+0x64>
     e4c:	4a 01       	movw	r8, r20
     e4e:	5b 01       	movw	r10, r22
     e50:	b6 94       	lsr	r11
     e52:	a7 94       	ror	r10
     e54:	97 94       	ror	r9
     e56:	87 94       	ror	r8
     e58:	b6 95       	lsr	r27
     e5a:	a7 95       	ror	r26
     e5c:	97 95       	ror	r25
     e5e:	87 95       	ror	r24
     e60:	02 c0       	rjmp	.+4      	; 0xe66 <usart_set_baudrate+0x68>
     e62:	4a 01       	movw	r8, r20
     e64:	5b 01       	movw	r10, r22
     e66:	8c 14       	cp	r8, r12
     e68:	9d 04       	cpc	r9, r13
     e6a:	ae 04       	cpc	r10, r14
     e6c:	bf 04       	cpc	r11, r15
     e6e:	78 f1       	brcs	.+94     	; 0xece <usart_set_baudrate+0xd0>
     e70:	c8 16       	cp	r12, r24
     e72:	d9 06       	cpc	r13, r25
     e74:	ea 06       	cpc	r14, r26
     e76:	fb 06       	cpc	r15, r27
     e78:	60 f1       	brcs	.+88     	; 0xed2 <usart_set_baudrate+0xd4>
     e7a:	88 81       	ld	r24, Y
     e7c:	81 ff       	sbrs	r24, 1
     e7e:	10 c0       	rjmp	.+32     	; 0xea0 <usart_set_baudrate+0xa2>
     e80:	cc 0c       	add	r12, r12
     e82:	dd 1c       	adc	r13, r13
     e84:	ee 1c       	adc	r14, r14
     e86:	ff 1c       	adc	r15, r15
     e88:	cb 01       	movw	r24, r22
     e8a:	ba 01       	movw	r22, r20
     e8c:	a7 01       	movw	r20, r14
     e8e:	96 01       	movw	r18, r12
     e90:	0e 94 a2 50 	call	0xa144	; 0xa144 <__udivmodsi4>
     e94:	da 01       	movw	r26, r20
     e96:	c9 01       	movw	r24, r18
     e98:	01 97       	sbiw	r24, 0x01	; 1
     e9a:	a1 09       	sbc	r26, r1
     e9c:	b1 09       	sbc	r27, r1
     e9e:	13 c0       	rjmp	.+38     	; 0xec6 <usart_set_baudrate+0xc8>
     ea0:	c9 01       	movw	r24, r18
     ea2:	b8 01       	movw	r22, r16
     ea4:	68 94       	set
     ea6:	13 f8       	bld	r1, 3
     ea8:	96 95       	lsr	r25
     eaa:	87 95       	ror	r24
     eac:	77 95       	ror	r23
     eae:	67 95       	ror	r22
     eb0:	16 94       	lsr	r1
     eb2:	d1 f7       	brne	.-12     	; 0xea8 <usart_set_baudrate+0xaa>
     eb4:	a7 01       	movw	r20, r14
     eb6:	96 01       	movw	r18, r12
     eb8:	0e 94 a2 50 	call	0xa144	; 0xa144 <__udivmodsi4>
     ebc:	da 01       	movw	r26, r20
     ebe:	c9 01       	movw	r24, r18
     ec0:	01 97       	sbiw	r24, 0x01	; 1
     ec2:	a1 09       	sbc	r26, r1
     ec4:	b1 09       	sbc	r27, r1
     ec6:	9d 83       	std	Y+5, r25	; 0x05
     ec8:	8c 83       	std	Y+4, r24	; 0x04
     eca:	81 e0       	ldi	r24, 0x01	; 1
     ecc:	03 c0       	rjmp	.+6      	; 0xed4 <usart_set_baudrate+0xd6>
     ece:	80 e0       	ldi	r24, 0x00	; 0
     ed0:	01 c0       	rjmp	.+2      	; 0xed4 <usart_set_baudrate+0xd6>
     ed2:	80 e0       	ldi	r24, 0x00	; 0
     ed4:	df 91       	pop	r29
     ed6:	cf 91       	pop	r28
     ed8:	1f 91       	pop	r17
     eda:	0f 91       	pop	r16
     edc:	ff 90       	pop	r15
     ede:	ef 90       	pop	r14
     ee0:	df 90       	pop	r13
     ee2:	cf 90       	pop	r12
     ee4:	bf 90       	pop	r11
     ee6:	af 90       	pop	r10
     ee8:	9f 90       	pop	r9
     eea:	8f 90       	pop	r8
     eec:	08 95       	ret

00000eee <usart_init_rs232>:
     eee:	0f 93       	push	r16
     ef0:	1f 93       	push	r17
     ef2:	cf 93       	push	r28
     ef4:	df 93       	push	r29
     ef6:	ec 01       	movw	r28, r24
     ef8:	fb 01       	movw	r30, r22
     efa:	8a 81       	ldd	r24, Y+2	; 0x02
     efc:	8f 73       	andi	r24, 0x3F	; 63
     efe:	8a 83       	std	Y+2, r24	; 0x02
     f00:	26 81       	ldd	r18, Z+6	; 0x06
     f02:	35 81       	ldd	r19, Z+5	; 0x05
     f04:	84 81       	ldd	r24, Z+4	; 0x04
     f06:	9a 81       	ldd	r25, Y+2	; 0x02
     f08:	48 2f       	mov	r20, r24
     f0a:	43 70       	andi	r20, 0x03	; 3
     f0c:	44 0f       	add	r20, r20
     f0e:	99 7f       	andi	r25, 0xF9	; 249
     f10:	94 2b       	or	r25, r20
     f12:	9a 83       	std	Y+2, r25	; 0x02
     f14:	99 81       	ldd	r25, Y+1	; 0x01
     f16:	84 70       	andi	r24, 0x04	; 4
     f18:	88 0f       	add	r24, r24
     f1a:	88 0f       	add	r24, r24
     f1c:	9b 7f       	andi	r25, 0xFB	; 251
     f1e:	89 2b       	or	r24, r25
     f20:	89 83       	std	Y+1, r24	; 0x01
     f22:	8a 81       	ldd	r24, Y+2	; 0x02
     f24:	8f 7c       	andi	r24, 0xCF	; 207
     f26:	83 2b       	or	r24, r19
     f28:	8a 83       	std	Y+2, r24	; 0x02
     f2a:	8a 81       	ldd	r24, Y+2	; 0x02
     f2c:	92 2f       	mov	r25, r18
     f2e:	99 0f       	add	r25, r25
     f30:	99 0f       	add	r25, r25
     f32:	99 0f       	add	r25, r25
     f34:	87 7f       	andi	r24, 0xF7	; 247
     f36:	89 2b       	or	r24, r25
     f38:	8a 83       	std	Y+2, r24	; 0x02
     f3a:	40 81       	ld	r20, Z
     f3c:	51 81       	ldd	r21, Z+1	; 0x01
     f3e:	62 81       	ldd	r22, Z+2	; 0x02
     f40:	73 81       	ldd	r23, Z+3	; 0x03
     f42:	00 e0       	ldi	r16, 0x00	; 0
     f44:	12 e1       	ldi	r17, 0x12	; 18
     f46:	2a e7       	ldi	r18, 0x7A	; 122
     f48:	30 e0       	ldi	r19, 0x00	; 0
     f4a:	ce 01       	movw	r24, r28
     f4c:	58 df       	rcall	.-336    	; 0xdfe <usart_set_baudrate>
     f4e:	99 81       	ldd	r25, Y+1	; 0x01
     f50:	98 60       	ori	r25, 0x08	; 8
     f52:	99 83       	std	Y+1, r25	; 0x01
     f54:	99 81       	ldd	r25, Y+1	; 0x01
     f56:	90 61       	ori	r25, 0x10	; 16
     f58:	99 83       	std	Y+1, r25	; 0x01
     f5a:	99 81       	ldd	r25, Y+1	; 0x01
     f5c:	90 68       	ori	r25, 0x80	; 128
     f5e:	99 83       	std	Y+1, r25	; 0x01
     f60:	df 91       	pop	r29
     f62:	cf 91       	pop	r28
     f64:	1f 91       	pop	r17
     f66:	0f 91       	pop	r16
     f68:	08 95       	ret

00000f6a <__vector_36>:

ISR(USART1_RX_vect)
{
     f6a:	1f 92       	push	r1
     f6c:	0f 92       	push	r0
     f6e:	0f b6       	in	r0, 0x3f	; 63
     f70:	0f 92       	push	r0
     f72:	11 24       	eor	r1, r1
     f74:	0b b6       	in	r0, 0x3b	; 59
     f76:	0f 92       	push	r0
     f78:	2f 93       	push	r18
     f7a:	3f 93       	push	r19
     f7c:	4f 93       	push	r20
     f7e:	5f 93       	push	r21
     f80:	6f 93       	push	r22
     f82:	7f 93       	push	r23
     f84:	8f 93       	push	r24
     f86:	9f 93       	push	r25
     f88:	af 93       	push	r26
     f8a:	bf 93       	push	r27
     f8c:	ef 93       	push	r30
     f8e:	ff 93       	push	r31
	uint8_t tmp_char;
	tmp_char = UDR1;
     f90:	80 91 ce 00 	lds	r24, 0x00CE
	pnewels_get_usart(tmp_char);
     f94:	0e 94 5b 2a 	call	0x54b6	; 0x54b6 <pnewels_get_usart>
     f98:	ff 91       	pop	r31
     f9a:	ef 91       	pop	r30
     f9c:	bf 91       	pop	r27
     f9e:	af 91       	pop	r26
     fa0:	9f 91       	pop	r25
     fa2:	8f 91       	pop	r24
     fa4:	7f 91       	pop	r23
     fa6:	6f 91       	pop	r22
     fa8:	5f 91       	pop	r21
     faa:	4f 91       	pop	r20
     fac:	3f 91       	pop	r19
     fae:	2f 91       	pop	r18
     fb0:	0f 90       	pop	r0
     fb2:	0b be       	out	0x3b, r0	; 59
     fb4:	0f 90       	pop	r0
     fb6:	0f be       	out	0x3f, r0	; 63
     fb8:	0f 90       	pop	r0
     fba:	1f 90       	pop	r1
     fbc:	18 95       	reti

00000fbe <appUpdateTimerHandler>:
/*************************************************************************//**
*****************************************************************************/
static void appUpdateTimerHandler(SYS_Timer_t *timer)
{
  //APP_CommandReport();
  if(wps_send_flag == 1)
     fbe:	80 91 3e 20 	lds	r24, 0x203E
     fc2:	81 30       	cpi	r24, 0x01	; 1
     fc4:	21 f4       	brne	.+8      	; 0xfce <appUpdateTimerHandler+0x10>
  {
	status_report_flag = 1;
     fc6:	80 93 a5 20 	sts	0x20A5, r24
	data_update_flag = 1;
     fca:	80 93 3f 20 	sts	0x203F, r24
     fce:	08 95       	ret

00000fd0 <WDT_Init>:

/*************************************************************************//**
*****************************************************************************/
void WDT_Init(void)
{	
	cli();
     fd0:	f8 94       	cli
	wdt_reset();
     fd2:	a8 95       	wdr
				: "r0"
		);
	}
	else
	{
		__asm__ __volatile__ (
     fd4:	99 e2       	ldi	r25, 0x29	; 41
     fd6:	88 e1       	ldi	r24, 0x18	; 24
     fd8:	0f b6       	in	r0, 0x3f	; 63
     fda:	f8 94       	cli
     fdc:	a8 95       	wdr
     fde:	80 93 60 00 	sts	0x0060, r24
     fe2:	0f be       	out	0x3f, r0	; 63
     fe4:	90 93 60 00 	sts	0x0060, r25
	wdt_enable(WDTO_8S);
	//WDTCSR = (1<<WDCE)|(1<<WDE);
	sei();
     fe8:	78 94       	sei
     fea:	08 95       	ret

00000fec <main>:

/*************************************************************************//**
*****************************************************************************/
int main(void)
{
  SYS_Init();
     fec:	0e 94 ff 15 	call	0x2bfe	; 0x2bfe <SYS_Init>

/*************************************************************************//**
*****************************************************************************/
static void appInit(void)
{
  factory_initialization();
     ff0:	0e 94 80 23 	call	0x4700	; 0x4700 <factory_initialization>
  APP_IbLoadSettings();
     ff4:	e6 d9       	rcall	.-3124   	; 0x3c2 <APP_IbLoadSettings>
  APP_NwkInit();  
     ff6:	b4 db       	rcall	.-2200   	; 0x760 <APP_NwkInit>

/*************************************************************************//**
*****************************************************************************/
static void appStartUpdateTimer(void)
{
  appUpdateTimer.interval = APP_UPDATE_INTERVAL;
     ff8:	e5 ec       	ldi	r30, 0xC5	; 197
     ffa:	f3 e1       	ldi	r31, 0x13	; 19
     ffc:	80 e1       	ldi	r24, 0x10	; 16
     ffe:	97 e2       	ldi	r25, 0x27	; 39
    1000:	a0 e0       	ldi	r26, 0x00	; 0
    1002:	b0 e0       	ldi	r27, 0x00	; 0
    1004:	86 83       	std	Z+6, r24	; 0x06
    1006:	97 83       	std	Z+7, r25	; 0x07
    1008:	a0 87       	std	Z+8, r26	; 0x08
    100a:	b1 87       	std	Z+9, r27	; 0x09
  appUpdateTimer.mode = SYS_TIMER_PERIODIC_MODE;
    100c:	81 e0       	ldi	r24, 0x01	; 1
    100e:	82 87       	std	Z+10, r24	; 0x0a
  appUpdateTimer.handler = appUpdateTimerHandler;
    1010:	8f ed       	ldi	r24, 0xDF	; 223
    1012:	97 e0       	ldi	r25, 0x07	; 7
    1014:	94 87       	std	Z+12, r25	; 0x0c
    1016:	83 87       	std	Z+11, r24	; 0x0b
  SYS_TimerStart(&appUpdateTimer); //disabled temporary
    1018:	cf 01       	movw	r24, r30
    101a:	0e 94 d0 16 	call	0x2da0	; 0x2da0 <SYS_TimerStart>
  APP_NwkInit();  
  //APP_GpioInit();
  //APP_CommandInit();
  appStartUpdateTimer();
  
  PNEWELSGpioInit();
    101e:	0e 94 12 18 	call	0x3024	; 0x3024 <PNEWELSGpioInit>
  PNEWELSAppInit();
    1022:	0e 94 9f 22 	call	0x453e	; 0x453e <PNEWELSAppInit>
  systemFlag_check(device_flag); //check whether this is the first time install. If yes, System directly enter WPS mode
    1026:	80 91 12 21 	lds	r24, 0x2112
    102a:	90 e0       	ldi	r25, 0x00	; 0
    102c:	0e 94 5e 23 	call	0x46bc	; 0x46bc <systemFlag_check>
*****************************************************************************/
int main(void)
{
  SYS_Init();
  appInit();
  WDT_Init(); //Enable Watchdog timer
    1030:	cf df       	rcall	.-98     	; 0xfd0 <WDT_Init>
  
  //pne_debug_Init(); //disable this to disable the device displaying the signal strength
  ANT_DIV = 0x06; //6 for ceramic, 5 for antenna
    1032:	86 e0       	ldi	r24, 0x06	; 6
    1034:	80 93 4d 01 	sts	0x014D, r24

  while (1)
  {
    SYS_TaskHandler();	//system service. DO NOT MODIFY or REMOVE
    1038:	0e 94 08 16 	call	0x2c10	; 0x2c10 <SYS_TaskHandler>
    APP_TaskHandler();	//application service. strongly advised NOT TO MODIFY or REMOVE
    //APP_GpioTaskHandler();
	PNEWELSTaskHandler();	//main program reside here
    103c:	0e 94 09 1e 	call	0x3c12	; 0x3c12 <PNEWELSTaskHandler>
	//pne_debug_display();
	//wdt_reset();	//reset watchdog timer. If the timer not reset after 8 seconds the system will reset.
	
  }
    1040:	fb cf       	rjmp	.-10     	; 0x1038 <main+0x4c>

00001042 <__vector_1>:
	/* Clear the INTn interrupt flag */
	ext_int_clear_flag(pin);

	/* Enable the interrupt */
	ext_int_enable(pin);
}
    1042:	1f 92       	push	r1
    1044:	0f 92       	push	r0
    1046:	0f b6       	in	r0, 0x3f	; 63
    1048:	0f 92       	push	r0
    104a:	11 24       	eor	r1, r1
    104c:	0b b6       	in	r0, 0x3b	; 59
    104e:	0f 92       	push	r0
    1050:	2f 93       	push	r18
    1052:	3f 93       	push	r19
    1054:	4f 93       	push	r20
    1056:	5f 93       	push	r21
    1058:	6f 93       	push	r22
    105a:	7f 93       	push	r23
    105c:	8f 93       	push	r24
    105e:	9f 93       	push	r25
    1060:	af 93       	push	r26
    1062:	bf 93       	push	r27
    1064:	ef 93       	push	r30
    1066:	ff 93       	push	r31
    1068:	e0 91 e4 13 	lds	r30, 0x13E4
    106c:	f0 91 e5 13 	lds	r31, 0x13E5
    1070:	30 97       	sbiw	r30, 0x00	; 0
    1072:	09 f0       	breq	.+2      	; 0x1076 <__vector_1+0x34>
    1074:	19 95       	eicall
    1076:	ff 91       	pop	r31
    1078:	ef 91       	pop	r30
    107a:	bf 91       	pop	r27
    107c:	af 91       	pop	r26
    107e:	9f 91       	pop	r25
    1080:	8f 91       	pop	r24
    1082:	7f 91       	pop	r23
    1084:	6f 91       	pop	r22
    1086:	5f 91       	pop	r21
    1088:	4f 91       	pop	r20
    108a:	3f 91       	pop	r19
    108c:	2f 91       	pop	r18
    108e:	0f 90       	pop	r0
    1090:	0b be       	out	0x3b, r0	; 59
    1092:	0f 90       	pop	r0
    1094:	0f be       	out	0x3f, r0	; 63
    1096:	0f 90       	pop	r0
    1098:	1f 90       	pop	r1
    109a:	18 95       	reti

0000109c <__vector_2>:
    109c:	1f 92       	push	r1
    109e:	0f 92       	push	r0
    10a0:	0f b6       	in	r0, 0x3f	; 63
    10a2:	0f 92       	push	r0
    10a4:	11 24       	eor	r1, r1
    10a6:	0b b6       	in	r0, 0x3b	; 59
    10a8:	0f 92       	push	r0
    10aa:	2f 93       	push	r18
    10ac:	3f 93       	push	r19
    10ae:	4f 93       	push	r20
    10b0:	5f 93       	push	r21
    10b2:	6f 93       	push	r22
    10b4:	7f 93       	push	r23
    10b6:	8f 93       	push	r24
    10b8:	9f 93       	push	r25
    10ba:	af 93       	push	r26
    10bc:	bf 93       	push	r27
    10be:	ef 93       	push	r30
    10c0:	ff 93       	push	r31
    10c2:	e0 91 e2 13 	lds	r30, 0x13E2
    10c6:	f0 91 e3 13 	lds	r31, 0x13E3
    10ca:	30 97       	sbiw	r30, 0x00	; 0
    10cc:	09 f0       	breq	.+2      	; 0x10d0 <__vector_2+0x34>
    10ce:	19 95       	eicall
    10d0:	ff 91       	pop	r31
    10d2:	ef 91       	pop	r30
    10d4:	bf 91       	pop	r27
    10d6:	af 91       	pop	r26
    10d8:	9f 91       	pop	r25
    10da:	8f 91       	pop	r24
    10dc:	7f 91       	pop	r23
    10de:	6f 91       	pop	r22
    10e0:	5f 91       	pop	r21
    10e2:	4f 91       	pop	r20
    10e4:	3f 91       	pop	r19
    10e6:	2f 91       	pop	r18
    10e8:	0f 90       	pop	r0
    10ea:	0b be       	out	0x3b, r0	; 59
    10ec:	0f 90       	pop	r0
    10ee:	0f be       	out	0x3f, r0	; 63
    10f0:	0f 90       	pop	r0
    10f2:	1f 90       	pop	r1
    10f4:	18 95       	reti

000010f6 <__vector_3>:
    10f6:	1f 92       	push	r1
    10f8:	0f 92       	push	r0
    10fa:	0f b6       	in	r0, 0x3f	; 63
    10fc:	0f 92       	push	r0
    10fe:	11 24       	eor	r1, r1
    1100:	0b b6       	in	r0, 0x3b	; 59
    1102:	0f 92       	push	r0
    1104:	2f 93       	push	r18
    1106:	3f 93       	push	r19
    1108:	4f 93       	push	r20
    110a:	5f 93       	push	r21
    110c:	6f 93       	push	r22
    110e:	7f 93       	push	r23
    1110:	8f 93       	push	r24
    1112:	9f 93       	push	r25
    1114:	af 93       	push	r26
    1116:	bf 93       	push	r27
    1118:	ef 93       	push	r30
    111a:	ff 93       	push	r31
    111c:	e0 91 e0 13 	lds	r30, 0x13E0
    1120:	f0 91 e1 13 	lds	r31, 0x13E1
    1124:	30 97       	sbiw	r30, 0x00	; 0
    1126:	09 f0       	breq	.+2      	; 0x112a <__vector_3+0x34>
    1128:	19 95       	eicall
    112a:	ff 91       	pop	r31
    112c:	ef 91       	pop	r30
    112e:	bf 91       	pop	r27
    1130:	af 91       	pop	r26
    1132:	9f 91       	pop	r25
    1134:	8f 91       	pop	r24
    1136:	7f 91       	pop	r23
    1138:	6f 91       	pop	r22
    113a:	5f 91       	pop	r21
    113c:	4f 91       	pop	r20
    113e:	3f 91       	pop	r19
    1140:	2f 91       	pop	r18
    1142:	0f 90       	pop	r0
    1144:	0b be       	out	0x3b, r0	; 59
    1146:	0f 90       	pop	r0
    1148:	0f be       	out	0x3f, r0	; 63
    114a:	0f 90       	pop	r0
    114c:	1f 90       	pop	r1
    114e:	18 95       	reti

00001150 <__vector_4>:
    1150:	1f 92       	push	r1
    1152:	0f 92       	push	r0
    1154:	0f b6       	in	r0, 0x3f	; 63
    1156:	0f 92       	push	r0
    1158:	11 24       	eor	r1, r1
    115a:	0b b6       	in	r0, 0x3b	; 59
    115c:	0f 92       	push	r0
    115e:	2f 93       	push	r18
    1160:	3f 93       	push	r19
    1162:	4f 93       	push	r20
    1164:	5f 93       	push	r21
    1166:	6f 93       	push	r22
    1168:	7f 93       	push	r23
    116a:	8f 93       	push	r24
    116c:	9f 93       	push	r25
    116e:	af 93       	push	r26
    1170:	bf 93       	push	r27
    1172:	ef 93       	push	r30
    1174:	ff 93       	push	r31
    1176:	e0 91 de 13 	lds	r30, 0x13DE
    117a:	f0 91 df 13 	lds	r31, 0x13DF
    117e:	30 97       	sbiw	r30, 0x00	; 0
    1180:	09 f0       	breq	.+2      	; 0x1184 <__vector_4+0x34>
    1182:	19 95       	eicall
    1184:	ff 91       	pop	r31
    1186:	ef 91       	pop	r30
    1188:	bf 91       	pop	r27
    118a:	af 91       	pop	r26
    118c:	9f 91       	pop	r25
    118e:	8f 91       	pop	r24
    1190:	7f 91       	pop	r23
    1192:	6f 91       	pop	r22
    1194:	5f 91       	pop	r21
    1196:	4f 91       	pop	r20
    1198:	3f 91       	pop	r19
    119a:	2f 91       	pop	r18
    119c:	0f 90       	pop	r0
    119e:	0b be       	out	0x3b, r0	; 59
    11a0:	0f 90       	pop	r0
    11a2:	0f be       	out	0x3f, r0	; 63
    11a4:	0f 90       	pop	r0
    11a6:	1f 90       	pop	r1
    11a8:	18 95       	reti

000011aa <__vector_5>:
    11aa:	1f 92       	push	r1
    11ac:	0f 92       	push	r0
    11ae:	0f b6       	in	r0, 0x3f	; 63
    11b0:	0f 92       	push	r0
    11b2:	11 24       	eor	r1, r1
    11b4:	0b b6       	in	r0, 0x3b	; 59
    11b6:	0f 92       	push	r0
    11b8:	2f 93       	push	r18
    11ba:	3f 93       	push	r19
    11bc:	4f 93       	push	r20
    11be:	5f 93       	push	r21
    11c0:	6f 93       	push	r22
    11c2:	7f 93       	push	r23
    11c4:	8f 93       	push	r24
    11c6:	9f 93       	push	r25
    11c8:	af 93       	push	r26
    11ca:	bf 93       	push	r27
    11cc:	ef 93       	push	r30
    11ce:	ff 93       	push	r31
    11d0:	e0 91 dc 13 	lds	r30, 0x13DC
    11d4:	f0 91 dd 13 	lds	r31, 0x13DD
    11d8:	30 97       	sbiw	r30, 0x00	; 0
    11da:	09 f0       	breq	.+2      	; 0x11de <__vector_5+0x34>
    11dc:	19 95       	eicall
    11de:	ff 91       	pop	r31
    11e0:	ef 91       	pop	r30
    11e2:	bf 91       	pop	r27
    11e4:	af 91       	pop	r26
    11e6:	9f 91       	pop	r25
    11e8:	8f 91       	pop	r24
    11ea:	7f 91       	pop	r23
    11ec:	6f 91       	pop	r22
    11ee:	5f 91       	pop	r21
    11f0:	4f 91       	pop	r20
    11f2:	3f 91       	pop	r19
    11f4:	2f 91       	pop	r18
    11f6:	0f 90       	pop	r0
    11f8:	0b be       	out	0x3b, r0	; 59
    11fa:	0f 90       	pop	r0
    11fc:	0f be       	out	0x3f, r0	; 63
    11fe:	0f 90       	pop	r0
    1200:	1f 90       	pop	r1
    1202:	18 95       	reti

00001204 <__vector_6>:
    1204:	1f 92       	push	r1
    1206:	0f 92       	push	r0
    1208:	0f b6       	in	r0, 0x3f	; 63
    120a:	0f 92       	push	r0
    120c:	11 24       	eor	r1, r1
    120e:	0b b6       	in	r0, 0x3b	; 59
    1210:	0f 92       	push	r0
    1212:	2f 93       	push	r18
    1214:	3f 93       	push	r19
    1216:	4f 93       	push	r20
    1218:	5f 93       	push	r21
    121a:	6f 93       	push	r22
    121c:	7f 93       	push	r23
    121e:	8f 93       	push	r24
    1220:	9f 93       	push	r25
    1222:	af 93       	push	r26
    1224:	bf 93       	push	r27
    1226:	ef 93       	push	r30
    1228:	ff 93       	push	r31
    122a:	e0 91 da 13 	lds	r30, 0x13DA
    122e:	f0 91 db 13 	lds	r31, 0x13DB
    1232:	30 97       	sbiw	r30, 0x00	; 0
    1234:	09 f0       	breq	.+2      	; 0x1238 <__vector_6+0x34>
    1236:	19 95       	eicall
    1238:	ff 91       	pop	r31
    123a:	ef 91       	pop	r30
    123c:	bf 91       	pop	r27
    123e:	af 91       	pop	r26
    1240:	9f 91       	pop	r25
    1242:	8f 91       	pop	r24
    1244:	7f 91       	pop	r23
    1246:	6f 91       	pop	r22
    1248:	5f 91       	pop	r21
    124a:	4f 91       	pop	r20
    124c:	3f 91       	pop	r19
    124e:	2f 91       	pop	r18
    1250:	0f 90       	pop	r0
    1252:	0b be       	out	0x3b, r0	; 59
    1254:	0f 90       	pop	r0
    1256:	0f be       	out	0x3f, r0	; 63
    1258:	0f 90       	pop	r0
    125a:	1f 90       	pop	r1
    125c:	18 95       	reti

0000125e <__vector_7>:
    125e:	1f 92       	push	r1
    1260:	0f 92       	push	r0
    1262:	0f b6       	in	r0, 0x3f	; 63
    1264:	0f 92       	push	r0
    1266:	11 24       	eor	r1, r1
    1268:	0b b6       	in	r0, 0x3b	; 59
    126a:	0f 92       	push	r0
    126c:	2f 93       	push	r18
    126e:	3f 93       	push	r19
    1270:	4f 93       	push	r20
    1272:	5f 93       	push	r21
    1274:	6f 93       	push	r22
    1276:	7f 93       	push	r23
    1278:	8f 93       	push	r24
    127a:	9f 93       	push	r25
    127c:	af 93       	push	r26
    127e:	bf 93       	push	r27
    1280:	ef 93       	push	r30
    1282:	ff 93       	push	r31
    1284:	e0 91 d8 13 	lds	r30, 0x13D8
    1288:	f0 91 d9 13 	lds	r31, 0x13D9
    128c:	30 97       	sbiw	r30, 0x00	; 0
    128e:	09 f0       	breq	.+2      	; 0x1292 <__vector_7+0x34>
    1290:	19 95       	eicall
    1292:	ff 91       	pop	r31
    1294:	ef 91       	pop	r30
    1296:	bf 91       	pop	r27
    1298:	af 91       	pop	r26
    129a:	9f 91       	pop	r25
    129c:	8f 91       	pop	r24
    129e:	7f 91       	pop	r23
    12a0:	6f 91       	pop	r22
    12a2:	5f 91       	pop	r21
    12a4:	4f 91       	pop	r20
    12a6:	3f 91       	pop	r19
    12a8:	2f 91       	pop	r18
    12aa:	0f 90       	pop	r0
    12ac:	0b be       	out	0x3b, r0	; 59
    12ae:	0f 90       	pop	r0
    12b0:	0f be       	out	0x3f, r0	; 63
    12b2:	0f 90       	pop	r0
    12b4:	1f 90       	pop	r1
    12b6:	18 95       	reti

000012b8 <__vector_8>:
    12b8:	1f 92       	push	r1
    12ba:	0f 92       	push	r0
    12bc:	0f b6       	in	r0, 0x3f	; 63
    12be:	0f 92       	push	r0
    12c0:	11 24       	eor	r1, r1
    12c2:	0b b6       	in	r0, 0x3b	; 59
    12c4:	0f 92       	push	r0
    12c6:	2f 93       	push	r18
    12c8:	3f 93       	push	r19
    12ca:	4f 93       	push	r20
    12cc:	5f 93       	push	r21
    12ce:	6f 93       	push	r22
    12d0:	7f 93       	push	r23
    12d2:	8f 93       	push	r24
    12d4:	9f 93       	push	r25
    12d6:	af 93       	push	r26
    12d8:	bf 93       	push	r27
    12da:	ef 93       	push	r30
    12dc:	ff 93       	push	r31
    12de:	e0 91 d6 13 	lds	r30, 0x13D6
    12e2:	f0 91 d7 13 	lds	r31, 0x13D7
    12e6:	30 97       	sbiw	r30, 0x00	; 0
    12e8:	09 f0       	breq	.+2      	; 0x12ec <__vector_8+0x34>
    12ea:	19 95       	eicall
    12ec:	ff 91       	pop	r31
    12ee:	ef 91       	pop	r30
    12f0:	bf 91       	pop	r27
    12f2:	af 91       	pop	r26
    12f4:	9f 91       	pop	r25
    12f6:	8f 91       	pop	r24
    12f8:	7f 91       	pop	r23
    12fa:	6f 91       	pop	r22
    12fc:	5f 91       	pop	r21
    12fe:	4f 91       	pop	r20
    1300:	3f 91       	pop	r19
    1302:	2f 91       	pop	r18
    1304:	0f 90       	pop	r0
    1306:	0b be       	out	0x3b, r0	; 59
    1308:	0f 90       	pop	r0
    130a:	0f be       	out	0x3f, r0	; 63
    130c:	0f 90       	pop	r0
    130e:	1f 90       	pop	r1
    1310:	18 95       	reti

00001312 <__vector_9>:
    1312:	1f 92       	push	r1
    1314:	0f 92       	push	r0
    1316:	0f b6       	in	r0, 0x3f	; 63
    1318:	0f 92       	push	r0
    131a:	11 24       	eor	r1, r1
    131c:	0b b6       	in	r0, 0x3b	; 59
    131e:	0f 92       	push	r0
    1320:	2f 93       	push	r18
    1322:	3f 93       	push	r19
    1324:	4f 93       	push	r20
    1326:	5f 93       	push	r21
    1328:	6f 93       	push	r22
    132a:	7f 93       	push	r23
    132c:	8f 93       	push	r24
    132e:	9f 93       	push	r25
    1330:	af 93       	push	r26
    1332:	bf 93       	push	r27
    1334:	ef 93       	push	r30
    1336:	ff 93       	push	r31
    1338:	e0 91 d4 13 	lds	r30, 0x13D4
    133c:	f0 91 d5 13 	lds	r31, 0x13D5
    1340:	30 97       	sbiw	r30, 0x00	; 0
    1342:	09 f0       	breq	.+2      	; 0x1346 <__vector_9+0x34>
    1344:	19 95       	eicall
    1346:	ff 91       	pop	r31
    1348:	ef 91       	pop	r30
    134a:	bf 91       	pop	r27
    134c:	af 91       	pop	r26
    134e:	9f 91       	pop	r25
    1350:	8f 91       	pop	r24
    1352:	7f 91       	pop	r23
    1354:	6f 91       	pop	r22
    1356:	5f 91       	pop	r21
    1358:	4f 91       	pop	r20
    135a:	3f 91       	pop	r19
    135c:	2f 91       	pop	r18
    135e:	0f 90       	pop	r0
    1360:	0b be       	out	0x3b, r0	; 59
    1362:	0f 90       	pop	r0
    1364:	0f be       	out	0x3f, r0	; 63
    1366:	0f 90       	pop	r0
    1368:	1f 90       	pop	r1
    136a:	18 95       	reti

0000136c <__vector_10>:
    136c:	1f 92       	push	r1
    136e:	0f 92       	push	r0
    1370:	0f b6       	in	r0, 0x3f	; 63
    1372:	0f 92       	push	r0
    1374:	11 24       	eor	r1, r1
    1376:	0b b6       	in	r0, 0x3b	; 59
    1378:	0f 92       	push	r0
    137a:	2f 93       	push	r18
    137c:	3f 93       	push	r19
    137e:	4f 93       	push	r20
    1380:	5f 93       	push	r21
    1382:	6f 93       	push	r22
    1384:	7f 93       	push	r23
    1386:	8f 93       	push	r24
    1388:	9f 93       	push	r25
    138a:	af 93       	push	r26
    138c:	bf 93       	push	r27
    138e:	ef 93       	push	r30
    1390:	ff 93       	push	r31
    1392:	e0 91 d2 13 	lds	r30, 0x13D2
    1396:	f0 91 d3 13 	lds	r31, 0x13D3
    139a:	30 97       	sbiw	r30, 0x00	; 0
    139c:	09 f0       	breq	.+2      	; 0x13a0 <__vector_10+0x34>
    139e:	19 95       	eicall
    13a0:	ff 91       	pop	r31
    13a2:	ef 91       	pop	r30
    13a4:	bf 91       	pop	r27
    13a6:	af 91       	pop	r26
    13a8:	9f 91       	pop	r25
    13aa:	8f 91       	pop	r24
    13ac:	7f 91       	pop	r23
    13ae:	6f 91       	pop	r22
    13b0:	5f 91       	pop	r21
    13b2:	4f 91       	pop	r20
    13b4:	3f 91       	pop	r19
    13b6:	2f 91       	pop	r18
    13b8:	0f 90       	pop	r0
    13ba:	0b be       	out	0x3b, r0	; 59
    13bc:	0f 90       	pop	r0
    13be:	0f be       	out	0x3f, r0	; 63
    13c0:	0f 90       	pop	r0
    13c2:	1f 90       	pop	r1
    13c4:	18 95       	reti

000013c6 <ext_int_pcint_clear_flag>:
    13c6:	80 31       	cpi	r24, 0x10	; 16
    13c8:	11 f4       	brne	.+4      	; 0x13ce <ext_int_pcint_clear_flag+0x8>
    13ca:	d9 9a       	sbi	0x1b, 1	; 27
    13cc:	08 95       	ret
    13ce:	d8 9a       	sbi	0x1b, 0	; 27
    13d0:	08 95       	ret

000013d2 <ext_int_pcint_enable>:
    13d2:	80 31       	cpi	r24, 0x10	; 16
    13d4:	59 f4       	brne	.+22     	; 0x13ec <ext_int_pcint_enable+0x1a>
    13d6:	e8 e6       	ldi	r30, 0x68	; 104
    13d8:	f0 e0       	ldi	r31, 0x00	; 0
    13da:	80 81       	ld	r24, Z
    13dc:	82 60       	ori	r24, 0x02	; 2
    13de:	80 83       	st	Z, r24
    13e0:	ec e6       	ldi	r30, 0x6C	; 108
    13e2:	f0 e0       	ldi	r31, 0x00	; 0
    13e4:	80 81       	ld	r24, Z
    13e6:	81 60       	ori	r24, 0x01	; 1
    13e8:	80 83       	st	Z, r24
    13ea:	08 95       	ret
    13ec:	e8 e6       	ldi	r30, 0x68	; 104
    13ee:	f0 e0       	ldi	r31, 0x00	; 0
    13f0:	80 81       	ld	r24, Z
    13f2:	81 60       	ori	r24, 0x01	; 1
    13f4:	80 83       	st	Z, r24
    13f6:	eb e6       	ldi	r30, 0x6B	; 107
    13f8:	f0 e0       	ldi	r31, 0x00	; 0
    13fa:	20 81       	ld	r18, Z
    13fc:	81 e0       	ldi	r24, 0x01	; 1
    13fe:	90 e0       	ldi	r25, 0x00	; 0
    1400:	02 c0       	rjmp	.+4      	; 0x1406 <ext_int_pcint_enable+0x34>
    1402:	88 0f       	add	r24, r24
    1404:	99 1f       	adc	r25, r25
    1406:	7a 95       	dec	r23
    1408:	e2 f7       	brpl	.-8      	; 0x1402 <ext_int_pcint_enable+0x30>
    140a:	82 2b       	or	r24, r18
    140c:	80 83       	st	Z, r24
    140e:	08 95       	ret

00001410 <ext_int_pcint_disable>:
    1410:	80 31       	cpi	r24, 0x10	; 16
    1412:	31 f4       	brne	.+12     	; 0x1420 <ext_int_pcint_disable+0x10>
    1414:	ec e6       	ldi	r30, 0x6C	; 108
    1416:	f0 e0       	ldi	r31, 0x00	; 0
    1418:	80 81       	ld	r24, Z
    141a:	8e 7f       	andi	r24, 0xFE	; 254
    141c:	80 83       	st	Z, r24
    141e:	08 95       	ret
    1420:	eb e6       	ldi	r30, 0x6B	; 107
    1422:	f0 e0       	ldi	r31, 0x00	; 0
    1424:	20 81       	ld	r18, Z
    1426:	81 e0       	ldi	r24, 0x01	; 1
    1428:	90 e0       	ldi	r25, 0x00	; 0
    142a:	02 c0       	rjmp	.+4      	; 0x1430 <ext_int_pcint_disable+0x20>
    142c:	88 0f       	add	r24, r24
    142e:	99 1f       	adc	r25, r25
    1430:	7a 95       	dec	r23
    1432:	e2 f7       	brpl	.-8      	; 0x142c <ext_int_pcint_disable+0x1c>
    1434:	80 95       	com	r24
    1436:	82 23       	and	r24, r18
    1438:	80 83       	st	Z, r24
    143a:	08 95       	ret

0000143c <ext_int_pcint_init>:

void ext_int_pcint_init(gpio_t gpio_id)
{
    143c:	cf 92       	push	r12
    143e:	df 92       	push	r13
    1440:	ef 92       	push	r14
    1442:	6b 01       	movw	r12, r22
    1444:	e8 2e       	mov	r14, r24
	/* Disable the interrupt */
	ext_int_pcint_disable(gpio_id);
    1446:	e4 df       	rcall	.-56     	; 0x1410 <ext_int_pcint_disable>

	/* Enable IRQ pin as input */
	/* Enable the pullup for the IRQ pin */
	gpio_in(gpio_id);
    1448:	8e 2d       	mov	r24, r14
    144a:	b6 01       	movw	r22, r12
    144c:	26 d1       	rcall	.+588    	; 0x169a <gpio_in>
	gpio_pullup(gpio_id);
    144e:	8e 2d       	mov	r24, r14
    1450:	b6 01       	movw	r22, r12
    1452:	c5 d1       	rcall	.+906    	; 0x17de <gpio_pullup>

	/* Clear the PCINTn interrupt flag */
	ext_int_pcint_clear_flag(gpio_id);
    1454:	8e 2d       	mov	r24, r14
    1456:	b6 01       	movw	r22, r12
    1458:	b6 df       	rcall	.-148    	; 0x13c6 <ext_int_pcint_clear_flag>

	/* Enable the interrupt */
	ext_int_pcint_enable(gpio_id);
    145a:	8e 2d       	mov	r24, r14
    145c:	b6 01       	movw	r22, r12
    145e:	b9 df       	rcall	.-142    	; 0x13d2 <ext_int_pcint_enable>
}
    1460:	ef 90       	pop	r14
    1462:	df 90       	pop	r13
    1464:	cf 90       	pop	r12
    1466:	08 95       	ret

00001468 <ext_int_set_interrupt_callback>:

void ext_int_set_interrupt_callback(gpio_t gpio_id, ext_int_callback_t callback)
{
	interrupt_t ext_int = gpio_id.int_id;
    1468:	98 2f       	mov	r25, r24
	
	if (ext_int == EXT_INT0_PIN) {
    146a:	81 11       	cpse	r24, r1
    146c:	05 c0       	rjmp	.+10     	; 0x1478 <ext_int_set_interrupt_callback+0x10>
		ext_int_int0_callback = callback;
    146e:	50 93 e5 13 	sts	0x13E5, r21
    1472:	40 93 e4 13 	sts	0x13E4, r20
    1476:	08 95       	ret
	} else
	if (ext_int == EXT_INT1_PIN) {
    1478:	81 30       	cpi	r24, 0x01	; 1
    147a:	29 f4       	brne	.+10     	; 0x1486 <ext_int_set_interrupt_callback+0x1e>
		ext_int_int1_callback = callback;
    147c:	50 93 e3 13 	sts	0x13E3, r21
    1480:	40 93 e2 13 	sts	0x13E2, r20
    1484:	08 95       	ret
	} else
	if (ext_int == EXT_INT2_PIN) {
    1486:	82 30       	cpi	r24, 0x02	; 2
    1488:	29 f4       	brne	.+10     	; 0x1494 <ext_int_set_interrupt_callback+0x2c>
		ext_int_int2_callback = callback;
    148a:	50 93 e1 13 	sts	0x13E1, r21
    148e:	40 93 e0 13 	sts	0x13E0, r20
    1492:	08 95       	ret
	} else
	if (ext_int == EXT_INT3_PIN) {
    1494:	83 30       	cpi	r24, 0x03	; 3
    1496:	29 f4       	brne	.+10     	; 0x14a2 <ext_int_set_interrupt_callback+0x3a>
		ext_int_int3_callback = callback;
    1498:	50 93 df 13 	sts	0x13DF, r21
    149c:	40 93 de 13 	sts	0x13DE, r20
    14a0:	08 95       	ret
	} else
	if (ext_int == EXT_INT4_PIN) {
    14a2:	84 30       	cpi	r24, 0x04	; 4
    14a4:	29 f4       	brne	.+10     	; 0x14b0 <ext_int_set_interrupt_callback+0x48>
		ext_int_int4_callback = callback;
    14a6:	50 93 dd 13 	sts	0x13DD, r21
    14aa:	40 93 dc 13 	sts	0x13DC, r20
    14ae:	08 95       	ret
	} else
	if (ext_int == EXT_INT5_PIN) {
    14b0:	85 30       	cpi	r24, 0x05	; 5
    14b2:	29 f4       	brne	.+10     	; 0x14be <ext_int_set_interrupt_callback+0x56>
		ext_int_int5_callback = callback;
    14b4:	50 93 db 13 	sts	0x13DB, r21
    14b8:	40 93 da 13 	sts	0x13DA, r20
    14bc:	08 95       	ret
	} else
	if (ext_int == EXT_INT6_PIN) {
    14be:	86 30       	cpi	r24, 0x06	; 6
    14c0:	29 f4       	brne	.+10     	; 0x14cc <ext_int_set_interrupt_callback+0x64>
		ext_int_int6_callback = callback;
    14c2:	50 93 d9 13 	sts	0x13D9, r21
    14c6:	40 93 d8 13 	sts	0x13D8, r20
    14ca:	08 95       	ret
	} else
	if (ext_int == EXT_INT7_PIN) {
    14cc:	87 30       	cpi	r24, 0x07	; 7
    14ce:	29 f4       	brne	.+10     	; 0x14da <ext_int_set_interrupt_callback+0x72>
		ext_int_int7_callback = callback;
    14d0:	50 93 d7 13 	sts	0x13D7, r21
    14d4:	40 93 d6 13 	sts	0x13D6, r20
    14d8:	08 95       	ret
	} else
	if (ext_int >= PC_INT0_PIN && ext_int <=PC_INT7_PIN) {
    14da:	88 50       	subi	r24, 0x08	; 8
    14dc:	88 30       	cpi	r24, 0x08	; 8
    14de:	28 f4       	brcc	.+10     	; 0x14ea <ext_int_set_interrupt_callback+0x82>
		ext_int_pcint0_callback = callback;
    14e0:	50 93 d5 13 	sts	0x13D5, r21
    14e4:	40 93 d4 13 	sts	0x13D4, r20
    14e8:	08 95       	ret
	} else
	if (ext_int == PC_INT8_PIN) {
    14ea:	90 31       	cpi	r25, 0x10	; 16
    14ec:	21 f4       	brne	.+8      	; 0x14f6 <ext_int_set_interrupt_callback+0x8e>
		ext_int_pcint1_callback = callback;
    14ee:	50 93 d3 13 	sts	0x13D3, r21
    14f2:	40 93 d2 13 	sts	0x13D2, r20
    14f6:	08 95       	ret

000014f8 <gpio_set>:
void gpio_set(gpio_t gpio_id)
{
	port_id_t port_id = gpio_id.port_id;
	uint8_t pin_id = gpio_id.pin_id;
	
	switch (port_id)
    14f8:	62 30       	cpi	r22, 0x02	; 2
    14fa:	09 f1       	breq	.+66     	; 0x153e <gpio_set+0x46>
    14fc:	28 f4       	brcc	.+10     	; 0x1508 <gpio_set+0x10>
    14fe:	66 23       	and	r22, r22
    1500:	41 f0       	breq	.+16     	; 0x1512 <gpio_set+0x1a>
    1502:	61 30       	cpi	r22, 0x01	; 1
    1504:	89 f0       	breq	.+34     	; 0x1528 <gpio_set+0x30>
    1506:	08 95       	ret
    1508:	63 30       	cpi	r22, 0x03	; 3
    150a:	21 f1       	breq	.+72     	; 0x1554 <gpio_set+0x5c>
    150c:	64 30       	cpi	r22, 0x04	; 4
    150e:	69 f1       	breq	.+90     	; 0x156a <gpio_set+0x72>
    1510:	08 95       	ret
	{
		case port_b:
		PORTB |= (1<<pin_id);
    1512:	25 b1       	in	r18, 0x05	; 5
    1514:	81 e0       	ldi	r24, 0x01	; 1
    1516:	90 e0       	ldi	r25, 0x00	; 0
    1518:	02 c0       	rjmp	.+4      	; 0x151e <gpio_set+0x26>
    151a:	88 0f       	add	r24, r24
    151c:	99 1f       	adc	r25, r25
    151e:	7a 95       	dec	r23
    1520:	e2 f7       	brpl	.-8      	; 0x151a <gpio_set+0x22>
    1522:	82 2b       	or	r24, r18
    1524:	85 b9       	out	0x05, r24	; 5
		break;
    1526:	08 95       	ret
		
		case port_d:
		PORTD |= (1<<pin_id);
    1528:	2b b1       	in	r18, 0x0b	; 11
    152a:	81 e0       	ldi	r24, 0x01	; 1
    152c:	90 e0       	ldi	r25, 0x00	; 0
    152e:	02 c0       	rjmp	.+4      	; 0x1534 <gpio_set+0x3c>
    1530:	88 0f       	add	r24, r24
    1532:	99 1f       	adc	r25, r25
    1534:	7a 95       	dec	r23
    1536:	e2 f7       	brpl	.-8      	; 0x1530 <gpio_set+0x38>
    1538:	82 2b       	or	r24, r18
    153a:	8b b9       	out	0x0b, r24	; 11
		break;
    153c:	08 95       	ret
		
		case port_e:
		PORTE |= (1<<pin_id);
    153e:	2e b1       	in	r18, 0x0e	; 14
    1540:	81 e0       	ldi	r24, 0x01	; 1
    1542:	90 e0       	ldi	r25, 0x00	; 0
    1544:	02 c0       	rjmp	.+4      	; 0x154a <gpio_set+0x52>
    1546:	88 0f       	add	r24, r24
    1548:	99 1f       	adc	r25, r25
    154a:	7a 95       	dec	r23
    154c:	e2 f7       	brpl	.-8      	; 0x1546 <gpio_set+0x4e>
    154e:	82 2b       	or	r24, r18
    1550:	8e b9       	out	0x0e, r24	; 14
		break;
    1552:	08 95       	ret
		
		case port_f:
		PORTF |= (1<<pin_id);
    1554:	21 b3       	in	r18, 0x11	; 17
    1556:	81 e0       	ldi	r24, 0x01	; 1
    1558:	90 e0       	ldi	r25, 0x00	; 0
    155a:	02 c0       	rjmp	.+4      	; 0x1560 <gpio_set+0x68>
    155c:	88 0f       	add	r24, r24
    155e:	99 1f       	adc	r25, r25
    1560:	7a 95       	dec	r23
    1562:	e2 f7       	brpl	.-8      	; 0x155c <gpio_set+0x64>
    1564:	82 2b       	or	r24, r18
    1566:	81 bb       	out	0x11, r24	; 17
		break;
    1568:	08 95       	ret
		
		case port_g:
		PORTG |= (1<<pin_id);
    156a:	24 b3       	in	r18, 0x14	; 20
    156c:	81 e0       	ldi	r24, 0x01	; 1
    156e:	90 e0       	ldi	r25, 0x00	; 0
    1570:	02 c0       	rjmp	.+4      	; 0x1576 <gpio_set+0x7e>
    1572:	88 0f       	add	r24, r24
    1574:	99 1f       	adc	r25, r25
    1576:	7a 95       	dec	r23
    1578:	e2 f7       	brpl	.-8      	; 0x1572 <gpio_set+0x7a>
    157a:	82 2b       	or	r24, r18
    157c:	84 bb       	out	0x14, r24	; 20
    157e:	08 95       	ret

00001580 <gpio_clr>:
	port_id_t port_id = gpio_id.port_id;
	uint8_t pin_id = gpio_id.pin_id;
	uint8_t temp = 0;
	uint8_t temp1 = 0;
	
	switch (port_id)
    1580:	62 30       	cpi	r22, 0x02	; 2
    1582:	19 f1       	breq	.+70     	; 0x15ca <gpio_clr+0x4a>
    1584:	28 f4       	brcc	.+10     	; 0x1590 <gpio_clr+0x10>
    1586:	66 23       	and	r22, r22
    1588:	41 f0       	breq	.+16     	; 0x159a <gpio_clr+0x1a>
    158a:	61 30       	cpi	r22, 0x01	; 1
    158c:	91 f0       	breq	.+36     	; 0x15b2 <gpio_clr+0x32>
    158e:	08 95       	ret
    1590:	63 30       	cpi	r22, 0x03	; 3
    1592:	39 f1       	breq	.+78     	; 0x15e2 <gpio_clr+0x62>
    1594:	64 30       	cpi	r22, 0x04	; 4
    1596:	89 f1       	breq	.+98     	; 0x15fa <gpio_clr+0x7a>
    1598:	08 95       	ret
	{
		case port_b:
		PORTB &= ~(1<<pin_id);
    159a:	25 b1       	in	r18, 0x05	; 5
    159c:	81 e0       	ldi	r24, 0x01	; 1
    159e:	90 e0       	ldi	r25, 0x00	; 0
    15a0:	02 c0       	rjmp	.+4      	; 0x15a6 <gpio_clr+0x26>
    15a2:	88 0f       	add	r24, r24
    15a4:	99 1f       	adc	r25, r25
    15a6:	7a 95       	dec	r23
    15a8:	e2 f7       	brpl	.-8      	; 0x15a2 <gpio_clr+0x22>
    15aa:	80 95       	com	r24
    15ac:	82 23       	and	r24, r18
    15ae:	85 b9       	out	0x05, r24	; 5
		break;
    15b0:	08 95       	ret
		
		case port_d:
		PORTD &= ~(1<<pin_id);
    15b2:	2b b1       	in	r18, 0x0b	; 11
    15b4:	81 e0       	ldi	r24, 0x01	; 1
    15b6:	90 e0       	ldi	r25, 0x00	; 0
    15b8:	02 c0       	rjmp	.+4      	; 0x15be <gpio_clr+0x3e>
    15ba:	88 0f       	add	r24, r24
    15bc:	99 1f       	adc	r25, r25
    15be:	7a 95       	dec	r23
    15c0:	e2 f7       	brpl	.-8      	; 0x15ba <gpio_clr+0x3a>
    15c2:	80 95       	com	r24
    15c4:	82 23       	and	r24, r18
    15c6:	8b b9       	out	0x0b, r24	; 11
		break;
    15c8:	08 95       	ret
		
		case port_e:
		temp = (1<<pin_id);
		temp1 = ~(temp);
		PORTE &= temp1;
    15ca:	2e b1       	in	r18, 0x0e	; 14
		case port_d:
		PORTD &= ~(1<<pin_id);
		break;
		
		case port_e:
		temp = (1<<pin_id);
    15cc:	81 e0       	ldi	r24, 0x01	; 1
    15ce:	90 e0       	ldi	r25, 0x00	; 0
    15d0:	02 c0       	rjmp	.+4      	; 0x15d6 <gpio_clr+0x56>
    15d2:	88 0f       	add	r24, r24
    15d4:	99 1f       	adc	r25, r25
    15d6:	7a 95       	dec	r23
    15d8:	e2 f7       	brpl	.-8      	; 0x15d2 <gpio_clr+0x52>
		temp1 = ~(temp);
    15da:	80 95       	com	r24
		PORTE &= temp1;
    15dc:	82 23       	and	r24, r18
    15de:	8e b9       	out	0x0e, r24	; 14
		break;
    15e0:	08 95       	ret
		
		case port_f:
		PORTF &= ~(1<<pin_id);
    15e2:	21 b3       	in	r18, 0x11	; 17
    15e4:	81 e0       	ldi	r24, 0x01	; 1
    15e6:	90 e0       	ldi	r25, 0x00	; 0
    15e8:	02 c0       	rjmp	.+4      	; 0x15ee <gpio_clr+0x6e>
    15ea:	88 0f       	add	r24, r24
    15ec:	99 1f       	adc	r25, r25
    15ee:	7a 95       	dec	r23
    15f0:	e2 f7       	brpl	.-8      	; 0x15ea <gpio_clr+0x6a>
    15f2:	80 95       	com	r24
    15f4:	82 23       	and	r24, r18
    15f6:	81 bb       	out	0x11, r24	; 17
		break;
    15f8:	08 95       	ret
		
		case port_g:
		PORTG &= ~(1<<pin_id);
    15fa:	24 b3       	in	r18, 0x14	; 20
    15fc:	81 e0       	ldi	r24, 0x01	; 1
    15fe:	90 e0       	ldi	r25, 0x00	; 0
    1600:	02 c0       	rjmp	.+4      	; 0x1606 <gpio_clr+0x86>
    1602:	88 0f       	add	r24, r24
    1604:	99 1f       	adc	r25, r25
    1606:	7a 95       	dec	r23
    1608:	e2 f7       	brpl	.-8      	; 0x1602 <gpio_clr+0x82>
    160a:	80 95       	com	r24
    160c:	82 23       	and	r24, r18
    160e:	84 bb       	out	0x14, r24	; 20
    1610:	08 95       	ret

00001612 <gpio_toggle>:
void gpio_toggle(gpio_t gpio_id)
{
	port_id_t port_id = gpio_id.port_id;
	uint8_t pin_id = gpio_id.pin_id;
	
	switch (port_id)
    1612:	62 30       	cpi	r22, 0x02	; 2
    1614:	09 f1       	breq	.+66     	; 0x1658 <gpio_toggle+0x46>
    1616:	28 f4       	brcc	.+10     	; 0x1622 <gpio_toggle+0x10>
    1618:	66 23       	and	r22, r22
    161a:	41 f0       	breq	.+16     	; 0x162c <gpio_toggle+0x1a>
    161c:	61 30       	cpi	r22, 0x01	; 1
    161e:	89 f0       	breq	.+34     	; 0x1642 <gpio_toggle+0x30>
    1620:	08 95       	ret
    1622:	63 30       	cpi	r22, 0x03	; 3
    1624:	21 f1       	breq	.+72     	; 0x166e <gpio_toggle+0x5c>
    1626:	64 30       	cpi	r22, 0x04	; 4
    1628:	69 f1       	breq	.+90     	; 0x1684 <gpio_toggle+0x72>
    162a:	08 95       	ret
	{
		case port_b:
		PORTB ^= (1 << pin_id);
    162c:	25 b1       	in	r18, 0x05	; 5
    162e:	81 e0       	ldi	r24, 0x01	; 1
    1630:	90 e0       	ldi	r25, 0x00	; 0
    1632:	02 c0       	rjmp	.+4      	; 0x1638 <gpio_toggle+0x26>
    1634:	88 0f       	add	r24, r24
    1636:	99 1f       	adc	r25, r25
    1638:	7a 95       	dec	r23
    163a:	e2 f7       	brpl	.-8      	; 0x1634 <gpio_toggle+0x22>
    163c:	82 27       	eor	r24, r18
    163e:	85 b9       	out	0x05, r24	; 5
		break;
    1640:	08 95       	ret
		
		case port_d:
		PORTD ^= (1 << pin_id);
    1642:	2b b1       	in	r18, 0x0b	; 11
    1644:	81 e0       	ldi	r24, 0x01	; 1
    1646:	90 e0       	ldi	r25, 0x00	; 0
    1648:	02 c0       	rjmp	.+4      	; 0x164e <gpio_toggle+0x3c>
    164a:	88 0f       	add	r24, r24
    164c:	99 1f       	adc	r25, r25
    164e:	7a 95       	dec	r23
    1650:	e2 f7       	brpl	.-8      	; 0x164a <gpio_toggle+0x38>
    1652:	82 27       	eor	r24, r18
    1654:	8b b9       	out	0x0b, r24	; 11
		break;
    1656:	08 95       	ret
		
		case port_e:
		PORTE ^= (1 << pin_id);
    1658:	2e b1       	in	r18, 0x0e	; 14
    165a:	81 e0       	ldi	r24, 0x01	; 1
    165c:	90 e0       	ldi	r25, 0x00	; 0
    165e:	02 c0       	rjmp	.+4      	; 0x1664 <gpio_toggle+0x52>
    1660:	88 0f       	add	r24, r24
    1662:	99 1f       	adc	r25, r25
    1664:	7a 95       	dec	r23
    1666:	e2 f7       	brpl	.-8      	; 0x1660 <gpio_toggle+0x4e>
    1668:	82 27       	eor	r24, r18
    166a:	8e b9       	out	0x0e, r24	; 14
		break;
    166c:	08 95       	ret
		
		case port_f:
		PORTF ^= (1 << pin_id);
    166e:	21 b3       	in	r18, 0x11	; 17
    1670:	81 e0       	ldi	r24, 0x01	; 1
    1672:	90 e0       	ldi	r25, 0x00	; 0
    1674:	02 c0       	rjmp	.+4      	; 0x167a <gpio_toggle+0x68>
    1676:	88 0f       	add	r24, r24
    1678:	99 1f       	adc	r25, r25
    167a:	7a 95       	dec	r23
    167c:	e2 f7       	brpl	.-8      	; 0x1676 <gpio_toggle+0x64>
    167e:	82 27       	eor	r24, r18
    1680:	81 bb       	out	0x11, r24	; 17
		break;
    1682:	08 95       	ret
		
		case port_g:
		PORTG ^= (1 << pin_id);
    1684:	24 b3       	in	r18, 0x14	; 20
    1686:	81 e0       	ldi	r24, 0x01	; 1
    1688:	90 e0       	ldi	r25, 0x00	; 0
    168a:	02 c0       	rjmp	.+4      	; 0x1690 <gpio_toggle+0x7e>
    168c:	88 0f       	add	r24, r24
    168e:	99 1f       	adc	r25, r25
    1690:	7a 95       	dec	r23
    1692:	e2 f7       	brpl	.-8      	; 0x168c <gpio_toggle+0x7a>
    1694:	82 27       	eor	r24, r18
    1696:	84 bb       	out	0x14, r24	; 20
    1698:	08 95       	ret

0000169a <gpio_in>:
void gpio_in(gpio_t gpio_id)
{
	port_id_t port_id = gpio_id.port_id;
	uint8_t pin_id = gpio_id.pin_id;
	
	switch (port_id)
    169a:	62 30       	cpi	r22, 0x02	; 2
    169c:	61 f1       	breq	.+88     	; 0x16f6 <gpio_in+0x5c>
    169e:	28 f4       	brcc	.+10     	; 0x16aa <gpio_in+0x10>
    16a0:	66 23       	and	r22, r22
    16a2:	49 f0       	breq	.+18     	; 0x16b6 <gpio_in+0x1c>
    16a4:	61 30       	cpi	r22, 0x01	; 1
    16a6:	b9 f0       	breq	.+46     	; 0x16d6 <gpio_in+0x3c>
    16a8:	08 95       	ret
    16aa:	63 30       	cpi	r22, 0x03	; 3
    16ac:	a1 f1       	breq	.+104    	; 0x1716 <gpio_in+0x7c>
    16ae:	64 30       	cpi	r22, 0x04	; 4
    16b0:	09 f4       	brne	.+2      	; 0x16b4 <gpio_in+0x1a>
    16b2:	41 c0       	rjmp	.+130    	; 0x1736 <gpio_in+0x9c>
    16b4:	08 95       	ret
	{
		case port_b:
		DDRB &= ~(1 << pin_id);
    16b6:	24 b1       	in	r18, 0x04	; 4
    16b8:	81 e0       	ldi	r24, 0x01	; 1
    16ba:	90 e0       	ldi	r25, 0x00	; 0
    16bc:	02 c0       	rjmp	.+4      	; 0x16c2 <gpio_in+0x28>
    16be:	88 0f       	add	r24, r24
    16c0:	99 1f       	adc	r25, r25
    16c2:	7a 95       	dec	r23
    16c4:	e2 f7       	brpl	.-8      	; 0x16be <gpio_in+0x24>
    16c6:	80 95       	com	r24
    16c8:	98 2f       	mov	r25, r24
    16ca:	92 23       	and	r25, r18
    16cc:	94 b9       	out	0x04, r25	; 4
		PORTB &= ~(1 << pin_id);
    16ce:	95 b1       	in	r25, 0x05	; 5
    16d0:	89 23       	and	r24, r25
    16d2:	85 b9       	out	0x05, r24	; 5
		break;
    16d4:	08 95       	ret
		
		case port_d:
		DDRD &= ~(1 << pin_id);
    16d6:	2a b1       	in	r18, 0x0a	; 10
    16d8:	81 e0       	ldi	r24, 0x01	; 1
    16da:	90 e0       	ldi	r25, 0x00	; 0
    16dc:	02 c0       	rjmp	.+4      	; 0x16e2 <gpio_in+0x48>
    16de:	88 0f       	add	r24, r24
    16e0:	99 1f       	adc	r25, r25
    16e2:	7a 95       	dec	r23
    16e4:	e2 f7       	brpl	.-8      	; 0x16de <gpio_in+0x44>
    16e6:	80 95       	com	r24
    16e8:	98 2f       	mov	r25, r24
    16ea:	92 23       	and	r25, r18
    16ec:	9a b9       	out	0x0a, r25	; 10
		PORTD &= ~(1 << pin_id);
    16ee:	9b b1       	in	r25, 0x0b	; 11
    16f0:	89 23       	and	r24, r25
    16f2:	8b b9       	out	0x0b, r24	; 11
		break;
    16f4:	08 95       	ret
		
		case port_e:
		DDRE &= ~(1 << pin_id);
    16f6:	2d b1       	in	r18, 0x0d	; 13
    16f8:	81 e0       	ldi	r24, 0x01	; 1
    16fa:	90 e0       	ldi	r25, 0x00	; 0
    16fc:	02 c0       	rjmp	.+4      	; 0x1702 <gpio_in+0x68>
    16fe:	88 0f       	add	r24, r24
    1700:	99 1f       	adc	r25, r25
    1702:	7a 95       	dec	r23
    1704:	e2 f7       	brpl	.-8      	; 0x16fe <gpio_in+0x64>
    1706:	80 95       	com	r24
    1708:	98 2f       	mov	r25, r24
    170a:	92 23       	and	r25, r18
    170c:	9d b9       	out	0x0d, r25	; 13
		PORTE &= ~(1 << pin_id);
    170e:	9e b1       	in	r25, 0x0e	; 14
    1710:	89 23       	and	r24, r25
    1712:	8e b9       	out	0x0e, r24	; 14
		break;
    1714:	08 95       	ret
		
		case port_f:
		DDRF &= ~(1 << pin_id);
    1716:	20 b3       	in	r18, 0x10	; 16
    1718:	81 e0       	ldi	r24, 0x01	; 1
    171a:	90 e0       	ldi	r25, 0x00	; 0
    171c:	02 c0       	rjmp	.+4      	; 0x1722 <gpio_in+0x88>
    171e:	88 0f       	add	r24, r24
    1720:	99 1f       	adc	r25, r25
    1722:	7a 95       	dec	r23
    1724:	e2 f7       	brpl	.-8      	; 0x171e <gpio_in+0x84>
    1726:	80 95       	com	r24
    1728:	98 2f       	mov	r25, r24
    172a:	92 23       	and	r25, r18
    172c:	90 bb       	out	0x10, r25	; 16
		PORTF &= ~(1 << pin_id);
    172e:	91 b3       	in	r25, 0x11	; 17
    1730:	89 23       	and	r24, r25
    1732:	81 bb       	out	0x11, r24	; 17
		break;
    1734:	08 95       	ret
		
		case port_g:
		DDRG &= ~(1 << pin_id);
    1736:	23 b3       	in	r18, 0x13	; 19
    1738:	81 e0       	ldi	r24, 0x01	; 1
    173a:	90 e0       	ldi	r25, 0x00	; 0
    173c:	02 c0       	rjmp	.+4      	; 0x1742 <gpio_in+0xa8>
    173e:	88 0f       	add	r24, r24
    1740:	99 1f       	adc	r25, r25
    1742:	7a 95       	dec	r23
    1744:	e2 f7       	brpl	.-8      	; 0x173e <gpio_in+0xa4>
    1746:	80 95       	com	r24
    1748:	98 2f       	mov	r25, r24
    174a:	92 23       	and	r25, r18
    174c:	93 bb       	out	0x13, r25	; 19
		PORTG &= ~(1 << pin_id);
    174e:	94 b3       	in	r25, 0x14	; 20
    1750:	89 23       	and	r24, r25
    1752:	84 bb       	out	0x14, r24	; 20
    1754:	08 95       	ret

00001756 <gpio_out>:
void gpio_out(gpio_t gpio_id)
{
	port_id_t port_id = gpio_id.port_id;
	uint8_t pin_id = gpio_id.pin_id;
	
	switch (port_id)
    1756:	62 30       	cpi	r22, 0x02	; 2
    1758:	09 f1       	breq	.+66     	; 0x179c <gpio_out+0x46>
    175a:	28 f4       	brcc	.+10     	; 0x1766 <gpio_out+0x10>
    175c:	66 23       	and	r22, r22
    175e:	41 f0       	breq	.+16     	; 0x1770 <gpio_out+0x1a>
    1760:	61 30       	cpi	r22, 0x01	; 1
    1762:	89 f0       	breq	.+34     	; 0x1786 <gpio_out+0x30>
    1764:	08 95       	ret
    1766:	63 30       	cpi	r22, 0x03	; 3
    1768:	21 f1       	breq	.+72     	; 0x17b2 <gpio_out+0x5c>
    176a:	64 30       	cpi	r22, 0x04	; 4
    176c:	69 f1       	breq	.+90     	; 0x17c8 <gpio_out+0x72>
    176e:	08 95       	ret
	{
		case port_b:
		DDRB |= (1<<pin_id);
    1770:	24 b1       	in	r18, 0x04	; 4
    1772:	81 e0       	ldi	r24, 0x01	; 1
    1774:	90 e0       	ldi	r25, 0x00	; 0
    1776:	02 c0       	rjmp	.+4      	; 0x177c <gpio_out+0x26>
    1778:	88 0f       	add	r24, r24
    177a:	99 1f       	adc	r25, r25
    177c:	7a 95       	dec	r23
    177e:	e2 f7       	brpl	.-8      	; 0x1778 <gpio_out+0x22>
    1780:	82 2b       	or	r24, r18
    1782:	84 b9       	out	0x04, r24	; 4
		break;
    1784:	08 95       	ret
		
		case port_d:
		DDRD |= (1<<pin_id);
    1786:	2a b1       	in	r18, 0x0a	; 10
    1788:	81 e0       	ldi	r24, 0x01	; 1
    178a:	90 e0       	ldi	r25, 0x00	; 0
    178c:	02 c0       	rjmp	.+4      	; 0x1792 <gpio_out+0x3c>
    178e:	88 0f       	add	r24, r24
    1790:	99 1f       	adc	r25, r25
    1792:	7a 95       	dec	r23
    1794:	e2 f7       	brpl	.-8      	; 0x178e <gpio_out+0x38>
    1796:	82 2b       	or	r24, r18
    1798:	8a b9       	out	0x0a, r24	; 10
		break;
    179a:	08 95       	ret
		
		case port_e:
		DDRE |= (1<<pin_id);
    179c:	2d b1       	in	r18, 0x0d	; 13
    179e:	81 e0       	ldi	r24, 0x01	; 1
    17a0:	90 e0       	ldi	r25, 0x00	; 0
    17a2:	02 c0       	rjmp	.+4      	; 0x17a8 <gpio_out+0x52>
    17a4:	88 0f       	add	r24, r24
    17a6:	99 1f       	adc	r25, r25
    17a8:	7a 95       	dec	r23
    17aa:	e2 f7       	brpl	.-8      	; 0x17a4 <gpio_out+0x4e>
    17ac:	82 2b       	or	r24, r18
    17ae:	8d b9       	out	0x0d, r24	; 13
		break;
    17b0:	08 95       	ret
		
		case port_f:
		DDRF |= (1<<pin_id);
    17b2:	20 b3       	in	r18, 0x10	; 16
    17b4:	81 e0       	ldi	r24, 0x01	; 1
    17b6:	90 e0       	ldi	r25, 0x00	; 0
    17b8:	02 c0       	rjmp	.+4      	; 0x17be <gpio_out+0x68>
    17ba:	88 0f       	add	r24, r24
    17bc:	99 1f       	adc	r25, r25
    17be:	7a 95       	dec	r23
    17c0:	e2 f7       	brpl	.-8      	; 0x17ba <gpio_out+0x64>
    17c2:	82 2b       	or	r24, r18
    17c4:	80 bb       	out	0x10, r24	; 16
		break;
    17c6:	08 95       	ret
		
		case port_g:
		DDRG |= (1<<pin_id);
    17c8:	23 b3       	in	r18, 0x13	; 19
    17ca:	81 e0       	ldi	r24, 0x01	; 1
    17cc:	90 e0       	ldi	r25, 0x00	; 0
    17ce:	02 c0       	rjmp	.+4      	; 0x17d4 <gpio_out+0x7e>
    17d0:	88 0f       	add	r24, r24
    17d2:	99 1f       	adc	r25, r25
    17d4:	7a 95       	dec	r23
    17d6:	e2 f7       	brpl	.-8      	; 0x17d0 <gpio_out+0x7a>
    17d8:	82 2b       	or	r24, r18
    17da:	83 bb       	out	0x13, r24	; 19
    17dc:	08 95       	ret

000017de <gpio_pullup>:
void gpio_pullup(gpio_t gpio_id)
{
	port_id_t port_id = gpio_id.port_id;
	uint8_t pin_id = gpio_id.pin_id;
	
	switch (port_id)
    17de:	62 30       	cpi	r22, 0x02	; 2
    17e0:	09 f1       	breq	.+66     	; 0x1824 <gpio_pullup+0x46>
    17e2:	28 f4       	brcc	.+10     	; 0x17ee <gpio_pullup+0x10>
    17e4:	66 23       	and	r22, r22
    17e6:	41 f0       	breq	.+16     	; 0x17f8 <gpio_pullup+0x1a>
    17e8:	61 30       	cpi	r22, 0x01	; 1
    17ea:	89 f0       	breq	.+34     	; 0x180e <gpio_pullup+0x30>
    17ec:	08 95       	ret
    17ee:	63 30       	cpi	r22, 0x03	; 3
    17f0:	21 f1       	breq	.+72     	; 0x183a <gpio_pullup+0x5c>
    17f2:	64 30       	cpi	r22, 0x04	; 4
    17f4:	69 f1       	breq	.+90     	; 0x1850 <gpio_pullup+0x72>
    17f6:	08 95       	ret
	{
		case port_b:
		PORTB |= (1 << pin_id);
    17f8:	25 b1       	in	r18, 0x05	; 5
    17fa:	81 e0       	ldi	r24, 0x01	; 1
    17fc:	90 e0       	ldi	r25, 0x00	; 0
    17fe:	02 c0       	rjmp	.+4      	; 0x1804 <gpio_pullup+0x26>
    1800:	88 0f       	add	r24, r24
    1802:	99 1f       	adc	r25, r25
    1804:	7a 95       	dec	r23
    1806:	e2 f7       	brpl	.-8      	; 0x1800 <gpio_pullup+0x22>
    1808:	82 2b       	or	r24, r18
    180a:	85 b9       	out	0x05, r24	; 5
		break;
    180c:	08 95       	ret
		
		case port_d:
		PORTD |= (1 << pin_id);
    180e:	2b b1       	in	r18, 0x0b	; 11
    1810:	81 e0       	ldi	r24, 0x01	; 1
    1812:	90 e0       	ldi	r25, 0x00	; 0
    1814:	02 c0       	rjmp	.+4      	; 0x181a <gpio_pullup+0x3c>
    1816:	88 0f       	add	r24, r24
    1818:	99 1f       	adc	r25, r25
    181a:	7a 95       	dec	r23
    181c:	e2 f7       	brpl	.-8      	; 0x1816 <gpio_pullup+0x38>
    181e:	82 2b       	or	r24, r18
    1820:	8b b9       	out	0x0b, r24	; 11
		break;
    1822:	08 95       	ret
		
		case port_e:
		PORTE |= (1 << pin_id);
    1824:	2e b1       	in	r18, 0x0e	; 14
    1826:	81 e0       	ldi	r24, 0x01	; 1
    1828:	90 e0       	ldi	r25, 0x00	; 0
    182a:	02 c0       	rjmp	.+4      	; 0x1830 <gpio_pullup+0x52>
    182c:	88 0f       	add	r24, r24
    182e:	99 1f       	adc	r25, r25
    1830:	7a 95       	dec	r23
    1832:	e2 f7       	brpl	.-8      	; 0x182c <gpio_pullup+0x4e>
    1834:	82 2b       	or	r24, r18
    1836:	8e b9       	out	0x0e, r24	; 14
		break;
    1838:	08 95       	ret
		
		case port_f:
		PORTF |= (1 << pin_id);
    183a:	21 b3       	in	r18, 0x11	; 17
    183c:	81 e0       	ldi	r24, 0x01	; 1
    183e:	90 e0       	ldi	r25, 0x00	; 0
    1840:	02 c0       	rjmp	.+4      	; 0x1846 <gpio_pullup+0x68>
    1842:	88 0f       	add	r24, r24
    1844:	99 1f       	adc	r25, r25
    1846:	7a 95       	dec	r23
    1848:	e2 f7       	brpl	.-8      	; 0x1842 <gpio_pullup+0x64>
    184a:	82 2b       	or	r24, r18
    184c:	81 bb       	out	0x11, r24	; 17
		break;
    184e:	08 95       	ret
		
		case port_g:
		PORTG |= (1 << pin_id);
    1850:	24 b3       	in	r18, 0x14	; 20
    1852:	81 e0       	ldi	r24, 0x01	; 1
    1854:	90 e0       	ldi	r25, 0x00	; 0
    1856:	02 c0       	rjmp	.+4      	; 0x185c <gpio_pullup+0x7e>
    1858:	88 0f       	add	r24, r24
    185a:	99 1f       	adc	r25, r25
    185c:	7a 95       	dec	r23
    185e:	e2 f7       	brpl	.-8      	; 0x1858 <gpio_pullup+0x7a>
    1860:	82 2b       	or	r24, r18
    1862:	84 bb       	out	0x14, r24	; 20
    1864:	08 95       	ret

00001866 <gpio_read>:
uint8_t gpio_read(gpio_t gpio_id)
{
	port_id_t port_id = gpio_id.port_id;
	uint8_t pin_id = gpio_id.pin_id;
	
	switch (port_id)
    1866:	62 30       	cpi	r22, 0x02	; 2
    1868:	e9 f0       	breq	.+58     	; 0x18a4 <gpio_read+0x3e>
    186a:	28 f4       	brcc	.+10     	; 0x1876 <gpio_read+0x10>
    186c:	66 23       	and	r22, r22
    186e:	41 f0       	breq	.+16     	; 0x1880 <gpio_read+0x1a>
    1870:	61 30       	cpi	r22, 0x01	; 1
    1872:	79 f0       	breq	.+30     	; 0x1892 <gpio_read+0x2c>
    1874:	32 c0       	rjmp	.+100    	; 0x18da <gpio_read+0x74>
    1876:	63 30       	cpi	r22, 0x03	; 3
    1878:	f1 f0       	breq	.+60     	; 0x18b6 <gpio_read+0x50>
    187a:	64 30       	cpi	r22, 0x04	; 4
    187c:	29 f1       	breq	.+74     	; 0x18c8 <gpio_read+0x62>
    187e:	2d c0       	rjmp	.+90     	; 0x18da <gpio_read+0x74>
	{
		case port_b:
		return (PINB & (1 << pin_id)) != 0;
    1880:	83 b1       	in	r24, 0x03	; 3
    1882:	90 e0       	ldi	r25, 0x00	; 0
    1884:	02 c0       	rjmp	.+4      	; 0x188a <gpio_read+0x24>
    1886:	95 95       	asr	r25
    1888:	87 95       	ror	r24
    188a:	7a 95       	dec	r23
    188c:	e2 f7       	brpl	.-8      	; 0x1886 <gpio_read+0x20>
    188e:	81 70       	andi	r24, 0x01	; 1
    1890:	08 95       	ret
		break;
		
		case port_d:
		return (PIND & (1 << pin_id)) != 0;
    1892:	89 b1       	in	r24, 0x09	; 9
    1894:	90 e0       	ldi	r25, 0x00	; 0
    1896:	02 c0       	rjmp	.+4      	; 0x189c <gpio_read+0x36>
    1898:	95 95       	asr	r25
    189a:	87 95       	ror	r24
    189c:	7a 95       	dec	r23
    189e:	e2 f7       	brpl	.-8      	; 0x1898 <gpio_read+0x32>
    18a0:	81 70       	andi	r24, 0x01	; 1
    18a2:	08 95       	ret
		break;
		
		case port_e:
		return (PINE & (1 << pin_id)) != 0;
    18a4:	8c b1       	in	r24, 0x0c	; 12
    18a6:	90 e0       	ldi	r25, 0x00	; 0
    18a8:	02 c0       	rjmp	.+4      	; 0x18ae <gpio_read+0x48>
    18aa:	95 95       	asr	r25
    18ac:	87 95       	ror	r24
    18ae:	7a 95       	dec	r23
    18b0:	e2 f7       	brpl	.-8      	; 0x18aa <gpio_read+0x44>
    18b2:	81 70       	andi	r24, 0x01	; 1
    18b4:	08 95       	ret
		break;
		
		case port_f:
		return (PINF & (1 << pin_id)) != 0;
    18b6:	8f b1       	in	r24, 0x0f	; 15
    18b8:	90 e0       	ldi	r25, 0x00	; 0
    18ba:	02 c0       	rjmp	.+4      	; 0x18c0 <gpio_read+0x5a>
    18bc:	95 95       	asr	r25
    18be:	87 95       	ror	r24
    18c0:	7a 95       	dec	r23
    18c2:	e2 f7       	brpl	.-8      	; 0x18bc <gpio_read+0x56>
    18c4:	81 70       	andi	r24, 0x01	; 1
    18c6:	08 95       	ret
		break;
		
		case port_g:
		return (PING & (1 << pin_id)) != 0;
    18c8:	82 b3       	in	r24, 0x12	; 18
    18ca:	90 e0       	ldi	r25, 0x00	; 0
    18cc:	02 c0       	rjmp	.+4      	; 0x18d2 <gpio_read+0x6c>
    18ce:	95 95       	asr	r25
    18d0:	87 95       	ror	r24
    18d2:	7a 95       	dec	r23
    18d4:	e2 f7       	brpl	.-8      	; 0x18ce <gpio_read+0x68>
    18d6:	81 70       	andi	r24, 0x01	; 1
    18d8:	08 95       	ret
		
		default:
		break;
	}
	
	return 0;
    18da:	80 e0       	ldi	r24, 0x00	; 0
}
    18dc:	08 95       	ret

000018de <HAL_Init>:

/*************************************************************************//**
*****************************************************************************/
void HAL_Init(void)
{
  MCUSR = 0;
    18de:	14 be       	out	0x34, r1	; 52
		);
	}
	else
	{
        uint8_t register temp_reg;
		__asm__ __volatile__ (
    18e0:	0f b6       	in	r0, 0x3f	; 63
    18e2:	f8 94       	cli
    18e4:	a8 95       	wdr
    18e6:	80 91 60 00 	lds	r24, 0x0060
    18ea:	88 61       	ori	r24, 0x18	; 24
    18ec:	80 93 60 00 	sts	0x0060, r24
    18f0:	10 92 60 00 	sts	0x0060, r1
    18f4:	0f be       	out	0x3f, r0	; 63
  wdt_disable();

  CLKPR = 1 << CLKPCE;
    18f6:	e1 e6       	ldi	r30, 0x61	; 97
    18f8:	f0 e0       	ldi	r31, 0x00	; 0
    18fa:	80 e8       	ldi	r24, 0x80	; 128
    18fc:	80 83       	st	Z, r24
  CLKPR = 0;
    18fe:	10 82       	st	Z, r1

  SYS_EnableInterrupts();
    1900:	78 94       	sei

  HAL_TimerInit();
    1902:	04 c0       	rjmp	.+8      	; 0x190c <HAL_TimerInit>
    1904:	08 95       	ret

00001906 <HAL_Delay>:

/*************************************************************************//**
*****************************************************************************/
void HAL_Delay(uint8_t us)
{
  HAL_TimerDelay(us);
    1906:	90 e0       	ldi	r25, 0x00	; 0
    1908:	16 c0       	rjmp	.+44     	; 0x1936 <HAL_TimerDelay>
    190a:	08 95       	ret

0000190c <HAL_TimerInit>:

/*************************************************************************//**
*****************************************************************************/
void HAL_TimerInit(void)
{
  halTimerIrqCount = 0;
    190c:	10 92 20 21 	sts	0x2120, r1

  OCR4A = ((F_CPU / 1000ul) / TIMER_PRESCALER) * HAL_TIMER_INTERVAL;
    1910:	80 e1       	ldi	r24, 0x10	; 16
    1912:	97 e2       	ldi	r25, 0x27	; 39
    1914:	90 93 a9 00 	sts	0x00A9, r25
    1918:	80 93 a8 00 	sts	0x00A8, r24
  TCCR4B = (1 << WGM12);              // CTC mode
    191c:	e1 ea       	ldi	r30, 0xA1	; 161
    191e:	f0 e0       	ldi	r31, 0x00	; 0
    1920:	88 e0       	ldi	r24, 0x08	; 8
    1922:	80 83       	st	Z, r24
  TCCR4B |= (1 << CS11);              // Prescaler 8
    1924:	80 81       	ld	r24, Z
    1926:	82 60       	ori	r24, 0x02	; 2
    1928:	80 83       	st	Z, r24
  TIMSK4 |= (1 << OCIE4A);            // Enable TC4 interrupt
    192a:	e2 e7       	ldi	r30, 0x72	; 114
    192c:	f0 e0       	ldi	r31, 0x00	; 0
    192e:	80 81       	ld	r24, Z
    1930:	82 60       	ori	r24, 0x02	; 2
    1932:	80 83       	st	Z, r24
    1934:	08 95       	ret

00001936 <HAL_TimerDelay>:
*****************************************************************************/
void HAL_TimerDelay(uint16_t us)
{
  PRAGMA(diag_suppress=Pa082);

  OCR4B = TCNT4 + us;
    1936:	20 91 a4 00 	lds	r18, 0x00A4
    193a:	30 91 a5 00 	lds	r19, 0x00A5
    193e:	82 0f       	add	r24, r18
    1940:	93 1f       	adc	r25, r19
    1942:	ea ea       	ldi	r30, 0xAA	; 170
    1944:	f0 e0       	ldi	r31, 0x00	; 0
    1946:	91 83       	std	Z+1, r25	; 0x01
    1948:	80 83       	st	Z, r24
  if (OCR4B > OCR4A)
    194a:	20 81       	ld	r18, Z
    194c:	31 81       	ldd	r19, Z+1	; 0x01
    194e:	80 91 a8 00 	lds	r24, 0x00A8
    1952:	90 91 a9 00 	lds	r25, 0x00A9
    1956:	82 17       	cp	r24, r18
    1958:	93 07       	cpc	r25, r19
    195a:	50 f4       	brcc	.+20     	; 0x1970 <HAL_TimerDelay+0x3a>
    OCR4B -= OCR4A;
    195c:	20 91 a8 00 	lds	r18, 0x00A8
    1960:	30 91 a9 00 	lds	r19, 0x00A9
    1964:	80 81       	ld	r24, Z
    1966:	91 81       	ldd	r25, Z+1	; 0x01
    1968:	82 1b       	sub	r24, r18
    196a:	93 0b       	sbc	r25, r19
    196c:	91 83       	std	Z+1, r25	; 0x01
    196e:	80 83       	st	Z, r24

  TIFR4 = (1 << OCF4B);
    1970:	84 e0       	ldi	r24, 0x04	; 4
    1972:	89 bb       	out	0x19, r24	; 25
  while (0 == (TIFR4 & (1 << OCF4B)));
    1974:	ca 9b       	sbis	0x19, 2	; 25
    1976:	fe cf       	rjmp	.-4      	; 0x1974 <HAL_TimerDelay+0x3e>

  PRAGMA(diag_default=Pa082);
}
    1978:	08 95       	ret

0000197a <__vector_42>:

/*************************************************************************//**
*****************************************************************************/
ISR(TIMER4_COMPA_vect)
{
    197a:	1f 92       	push	r1
    197c:	0f 92       	push	r0
    197e:	0f b6       	in	r0, 0x3f	; 63
    1980:	0f 92       	push	r0
    1982:	11 24       	eor	r1, r1
    1984:	8f 93       	push	r24
  halTimerIrqCount++;
    1986:	80 91 20 21 	lds	r24, 0x2120
    198a:	8f 5f       	subi	r24, 0xFF	; 255
    198c:	80 93 20 21 	sts	0x2120, r24
}
    1990:	8f 91       	pop	r24
    1992:	0f 90       	pop	r0
    1994:	0f be       	out	0x3f, r0	; 63
    1996:	0f 90       	pop	r0
    1998:	1f 90       	pop	r1
    199a:	18 95       	reti

0000199c <NWK_Init>:
      return val[i];
    cl += 25;
  }

  return 255;
}
    199c:	e1 e2       	ldi	r30, 0x21	; 33
    199e:	f1 e2       	ldi	r31, 0x21	; 33
    19a0:	14 82       	std	Z+4, r1	; 0x04
    19a2:	15 82       	std	Z+5, r1	; 0x05
    19a4:	11 82       	std	Z+1, r1	; 0x01
    19a6:	10 82       	st	Z, r1
    19a8:	17 aa       	std	Z+55, r1	; 0x37
    19aa:	16 aa       	std	Z+54, r1	; 0x36
    19ac:	e7 e2       	ldi	r30, 0x27	; 39
    19ae:	f1 e2       	ldi	r31, 0x21	; 33
    19b0:	87 e4       	ldi	r24, 0x47	; 71
    19b2:	91 e2       	ldi	r25, 0x21	; 33
    19b4:	11 92       	st	Z+, r1
    19b6:	11 92       	st	Z+, r1
    19b8:	e8 17       	cp	r30, r24
    19ba:	f9 07       	cpc	r31, r25
    19bc:	d9 f7       	brne	.-10     	; 0x19b4 <NWK_Init+0x18>
    19be:	ee d5       	rcall	.+3036   	; 0x259c <nwkTxInit>
    19c0:	c3 d1       	rcall	.+902    	; 0x1d48 <nwkRxInit>
    19c2:	14 d1       	rcall	.+552    	; 0x1bec <nwkFrameInit>
    19c4:	3f d0       	rcall	.+126    	; 0x1a44 <nwkDataReqInit>
    19c6:	40 c4       	rjmp	.+2176   	; 0x2248 <nwkSecurityInit>
    19c8:	08 95       	ret

000019ca <NWK_SetAddr>:
    19ca:	90 93 22 21 	sts	0x2122, r25
    19ce:	80 93 21 21 	sts	0x2121, r24
    19d2:	e1 c7       	rjmp	.+4034   	; 0x2996 <PHY_SetShortAddr>
    19d4:	08 95       	ret

000019d6 <NWK_SetPanId>:
    19d6:	90 93 24 21 	sts	0x2124, r25
    19da:	80 93 23 21 	sts	0x2123, r24
    19de:	c9 c7       	rjmp	.+3986   	; 0x2972 <PHY_SetPanId>
    19e0:	08 95       	ret

000019e2 <NWK_OpenEndpoint>:
    19e2:	e8 2f       	mov	r30, r24
    19e4:	f0 e0       	ldi	r31, 0x00	; 0
    19e6:	ee 0f       	add	r30, r30
    19e8:	ff 1f       	adc	r31, r31
    19ea:	e9 5d       	subi	r30, 0xD9	; 217
    19ec:	fe 4d       	sbci	r31, 0xDE	; 222
    19ee:	71 83       	std	Z+1, r23	; 0x01
    19f0:	60 83       	st	Z, r22
    19f2:	08 95       	ret

000019f4 <NWK_TaskHandler>:
/*************************************************************************//**
  @brief Network layer task handler
*****************************************************************************/
void NWK_TaskHandler(void)
{
  nwkRxTaskHandler();
    19f4:	fb d1       	rcall	.+1014   	; 0x1dec <nwkRxTaskHandler>
  nwkTxTaskHandler();
    19f6:	da d6       	rcall	.+3508   	; 0x27ac <nwkTxTaskHandler>
  nwkDataReqTaskHandler();
    19f8:	4e d0       	rcall	.+156    	; 0x1a96 <nwkDataReqTaskHandler>
#ifdef NWK_ENABLE_SECURITY
  nwkSecurityTaskHandler();
    19fa:	83 c4       	rjmp	.+2310   	; 0x2302 <nwkSecurityTaskHandler>
    19fc:	08 95       	ret

000019fe <nwkDataReqTxConf>:
  @brief Frame transmission confirmation handler
  @param[in] frame Pointer to the sent frame
*****************************************************************************/
static void nwkDataReqTxConf(NwkFrame_t *frame)
{
  for (NWK_DataReq_t *req = nwkDataReqQueue; req; req = req->next)
    19fe:	e0 91 e6 13 	lds	r30, 0x13E6
    1a02:	f0 91 e7 13 	lds	r31, 0x13E7
    1a06:	30 97       	sbiw	r30, 0x00	; 0
    1a08:	d9 f0       	breq	.+54     	; 0x1a40 <nwkDataReqTxConf+0x42>
  {
    if (req->frame == frame)
    1a0a:	22 81       	ldd	r18, Z+2	; 0x02
    1a0c:	33 81       	ldd	r19, Z+3	; 0x03
    1a0e:	28 17       	cp	r18, r24
    1a10:	39 07       	cpc	r19, r25
    1a12:	89 f4       	brne	.+34     	; 0x1a36 <nwkDataReqTxConf+0x38>
    1a14:	05 c0       	rjmp	.+10     	; 0x1a20 <nwkDataReqTxConf+0x22>
    1a16:	22 81       	ldd	r18, Z+2	; 0x02
    1a18:	33 81       	ldd	r19, Z+3	; 0x03
    1a1a:	28 17       	cp	r18, r24
    1a1c:	39 07       	cpc	r19, r25
    1a1e:	59 f4       	brne	.+22     	; 0x1a36 <nwkDataReqTxConf+0x38>
    {
      req->status = frame->tx.status;
    1a20:	dc 01       	movw	r26, r24
    1a22:	ad 57       	subi	r26, 0x7D	; 125
    1a24:	bf 4f       	sbci	r27, 0xFF	; 255
    1a26:	2c 91       	ld	r18, X
    1a28:	27 87       	std	Z+15, r18	; 0x0f
      req->control = frame->tx.control;
    1a2a:	13 96       	adiw	r26, 0x03	; 3
    1a2c:	2c 91       	ld	r18, X
    1a2e:	20 8b       	std	Z+16, r18	; 0x10
      req->state = NWK_DATA_REQ_STATE_CONFIRM;
    1a30:	22 e0       	ldi	r18, 0x02	; 2
    1a32:	24 83       	std	Z+4, r18	; 0x04
      break;
    1a34:	05 c0       	rjmp	.+10     	; 0x1a40 <nwkDataReqTxConf+0x42>
  @brief Frame transmission confirmation handler
  @param[in] frame Pointer to the sent frame
*****************************************************************************/
static void nwkDataReqTxConf(NwkFrame_t *frame)
{
  for (NWK_DataReq_t *req = nwkDataReqQueue; req; req = req->next)
    1a36:	01 90       	ld	r0, Z+
    1a38:	f0 81       	ld	r31, Z
    1a3a:	e0 2d       	mov	r30, r0
    1a3c:	30 97       	sbiw	r30, 0x00	; 0
    1a3e:	59 f7       	brne	.-42     	; 0x1a16 <nwkDataReqTxConf+0x18>
      req->state = NWK_DATA_REQ_STATE_CONFIRM;
      break;
    }
  }

  nwkFrameFree(frame);
    1a40:	19 c1       	rjmp	.+562    	; 0x1c74 <nwkFrameFree>
    1a42:	08 95       	ret

00001a44 <nwkDataReqInit>:
/*************************************************************************//**
  @brief Initializes the Data Request module
*****************************************************************************/
void nwkDataReqInit(void)
{
  nwkDataReqQueue = NULL;
    1a44:	10 92 e7 13 	sts	0x13E7, r1
    1a48:	10 92 e6 13 	sts	0x13E6, r1
    1a4c:	08 95       	ret

00001a4e <NWK_DataReq>:
/*************************************************************************//**
  @brief Adds request @a req to the queue of outgoing requests
  @param[in] req Pointer to the request parameters
*****************************************************************************/
void NWK_DataReq(NWK_DataReq_t *req)
{
    1a4e:	fc 01       	movw	r30, r24
  req->state = NWK_DATA_REQ_STATE_INITIAL;
    1a50:	14 82       	std	Z+4, r1	; 0x04
  req->status = NWK_SUCCESS_STATUS;
    1a52:	17 86       	std	Z+15, r1	; 0x0f
  req->frame = NULL;
    1a54:	13 82       	std	Z+3, r1	; 0x03
    1a56:	12 82       	std	Z+2, r1	; 0x02

  nwkIb.lock++;
    1a58:	a1 e2       	ldi	r26, 0x21	; 33
    1a5a:	b1 e2       	ldi	r27, 0x21	; 33
    1a5c:	d6 96       	adiw	r26, 0x36	; 54
    1a5e:	8d 91       	ld	r24, X+
    1a60:	9c 91       	ld	r25, X
    1a62:	d7 97       	sbiw	r26, 0x37	; 55
    1a64:	01 96       	adiw	r24, 0x01	; 1
    1a66:	d7 96       	adiw	r26, 0x37	; 55
    1a68:	9c 93       	st	X, r25
    1a6a:	8e 93       	st	-X, r24
    1a6c:	d6 97       	sbiw	r26, 0x36	; 54

  if (NULL == nwkDataReqQueue)
    1a6e:	80 91 e6 13 	lds	r24, 0x13E6
    1a72:	90 91 e7 13 	lds	r25, 0x13E7
    1a76:	00 97       	sbiw	r24, 0x00	; 0
    1a78:	39 f4       	brne	.+14     	; 0x1a88 <NWK_DataReq+0x3a>
  {
    req->next = NULL;
    1a7a:	11 82       	std	Z+1, r1	; 0x01
    1a7c:	10 82       	st	Z, r1
    nwkDataReqQueue = req;
    1a7e:	f0 93 e7 13 	sts	0x13E7, r31
    1a82:	e0 93 e6 13 	sts	0x13E6, r30
    1a86:	08 95       	ret
  }
  else
  {
    req->next = nwkDataReqQueue;
    1a88:	91 83       	std	Z+1, r25	; 0x01
    1a8a:	80 83       	st	Z, r24
    nwkDataReqQueue = req;
    1a8c:	f0 93 e7 13 	sts	0x13E7, r31
    1a90:	e0 93 e6 13 	sts	0x13E6, r30
    1a94:	08 95       	ret

00001a96 <nwkDataReqTaskHandler>:

/*************************************************************************//**
  @brief Data Request module task handler
*****************************************************************************/
void nwkDataReqTaskHandler(void)
{
    1a96:	0f 93       	push	r16
    1a98:	1f 93       	push	r17
    1a9a:	cf 93       	push	r28
    1a9c:	df 93       	push	r29
  for (NWK_DataReq_t *req = nwkDataReqQueue; req; req = req->next)
    1a9e:	e0 91 e6 13 	lds	r30, 0x13E6
    1aa2:	f0 91 e7 13 	lds	r31, 0x13E7
    1aa6:	30 97       	sbiw	r30, 0x00	; 0
    1aa8:	09 f4       	brne	.+2      	; 0x1aac <nwkDataReqTaskHandler+0x16>
    1aaa:	9b c0       	rjmp	.+310    	; 0x1be2 <nwkDataReqTaskHandler+0x14c>
    1aac:	ef 01       	movw	r28, r30
  {
    switch (req->state)
    1aae:	8c 81       	ldd	r24, Y+4	; 0x04
    1ab0:	88 23       	and	r24, r24
    1ab2:	21 f0       	breq	.+8      	; 0x1abc <nwkDataReqTaskHandler+0x26>
    1ab4:	82 30       	cpi	r24, 0x02	; 2
    1ab6:	09 f4       	brne	.+2      	; 0x1aba <nwkDataReqTaskHandler+0x24>
    1ab8:	6e c0       	rjmp	.+220    	; 0x1b96 <nwkDataReqTaskHandler+0x100>
    1aba:	8d c0       	rjmp	.+282    	; 0x1bd6 <nwkDataReqTaskHandler+0x140>
*****************************************************************************/
static void nwkDataReqSendFrame(NWK_DataReq_t *req)
{
  NwkFrame_t *frame;

  if (NULL == (frame = nwkFrameAlloc()))
    1abc:	a2 d0       	rcall	.+324    	; 0x1c02 <nwkFrameAlloc>
    1abe:	8c 01       	movw	r16, r24
    1ac0:	00 97       	sbiw	r24, 0x00	; 0
    1ac2:	21 f4       	brne	.+8      	; 0x1acc <nwkDataReqTaskHandler+0x36>
  {
    req->state = NWK_DATA_REQ_STATE_CONFIRM;
    1ac4:	82 e0       	ldi	r24, 0x02	; 2
    1ac6:	8c 83       	std	Y+4, r24	; 0x04
    req->status = NWK_OUT_OF_MEMORY_STATUS;
    1ac8:	8f 87       	std	Y+15, r24	; 0x0f
    1aca:	8b c0       	rjmp	.+278    	; 0x1be2 <nwkDataReqTaskHandler+0x14c>
    return;
  }

  req->frame = frame;
    1acc:	9b 83       	std	Y+3, r25	; 0x03
    1ace:	8a 83       	std	Y+2, r24	; 0x02
  req->state = NWK_DATA_REQ_STATE_WAIT_CONF;
    1ad0:	81 e0       	ldi	r24, 0x01	; 1
    1ad2:	8c 83       	std	Y+4, r24	; 0x04

  frame->tx.confirm = nwkDataReqTxConf;
    1ad4:	f8 01       	movw	r30, r16
    1ad6:	e9 57       	subi	r30, 0x79	; 121
    1ad8:	ff 4f       	sbci	r31, 0xFF	; 255
    1ada:	8f ef       	ldi	r24, 0xFF	; 255
    1adc:	9c e0       	ldi	r25, 0x0C	; 12
    1ade:	91 83       	std	Z+1, r25	; 0x01
    1ae0:	80 83       	st	Z, r24
  frame->tx.control = req->options & NWK_OPT_BROADCAST_PAN_ID ? NWK_TX_CONTROL_BROADCAST_PAN_ID : 0;
    1ae2:	31 97       	sbiw	r30, 0x01	; 1
    1ae4:	89 85       	ldd	r24, Y+9	; 0x09
    1ae6:	82 fb       	bst	r24, 2
    1ae8:	88 27       	eor	r24, r24
    1aea:	80 f9       	bld	r24, 0
    1aec:	80 83       	st	Z, r24

  frame->header.nwkFcf.ackRequest = req->options & NWK_OPT_ACK_REQUEST ? 1 : 0;
    1aee:	99 85       	ldd	r25, Y+9	; 0x09
    1af0:	d8 01       	movw	r26, r16
    1af2:	1b 96       	adiw	r26, 0x0b	; 11
    1af4:	8c 91       	ld	r24, X
    1af6:	1b 97       	sbiw	r26, 0x0b	; 11
    1af8:	90 fb       	bst	r25, 0
    1afa:	80 f9       	bld	r24, 0
    1afc:	1b 96       	adiw	r26, 0x0b	; 11
    1afe:	8c 93       	st	X, r24
    1b00:	1b 97       	sbiw	r26, 0x0b	; 11
  frame->header.nwkFcf.linkLocal = req->options & NWK_OPT_LINK_LOCAL ? 1 : 0;
    1b02:	99 85       	ldd	r25, Y+9	; 0x09
    1b04:	93 fb       	bst	r25, 3
    1b06:	99 27       	eor	r25, r25
    1b08:	90 f9       	bld	r25, 0
    1b0a:	90 fb       	bst	r25, 0
    1b0c:	82 f9       	bld	r24, 2
    1b0e:	1b 96       	adiw	r26, 0x0b	; 11
    1b10:	8c 93       	st	X, r24
    1b12:	1b 97       	sbiw	r26, 0x0b	; 11

#ifdef NWK_ENABLE_SECURITY
  frame->header.nwkFcf.security = req->options & NWK_OPT_ENABLE_SECURITY ? 1 : 0;
    1b14:	99 85       	ldd	r25, Y+9	; 0x09
    1b16:	96 95       	lsr	r25
    1b18:	91 70       	andi	r25, 0x01	; 1
    1b1a:	90 fb       	bst	r25, 0
    1b1c:	81 f9       	bld	r24, 1
    1b1e:	1b 96       	adiw	r26, 0x0b	; 11
    1b20:	8c 93       	st	X, r24
    1b22:	1b 97       	sbiw	r26, 0x0b	; 11
    frame->payload += sizeof(NwkFrameMulticastHeader_t);
    frame->size += sizeof(NwkFrameMulticastHeader_t);
  }
#endif

  frame->header.nwkSeq = ++nwkIb.nwkSeqNum;
    1b24:	e1 e2       	ldi	r30, 0x21	; 33
    1b26:	f1 e2       	ldi	r31, 0x21	; 33
    1b28:	84 81       	ldd	r24, Z+4	; 0x04
    1b2a:	8f 5f       	subi	r24, 0xFF	; 255
    1b2c:	84 83       	std	Z+4, r24	; 0x04
    1b2e:	1c 96       	adiw	r26, 0x0c	; 12
    1b30:	8c 93       	st	X, r24
    1b32:	1c 97       	sbiw	r26, 0x0c	; 12
  frame->header.nwkSrcAddr = nwkIb.addr;
    1b34:	80 81       	ld	r24, Z
    1b36:	91 81       	ldd	r25, Z+1	; 0x01
    1b38:	1e 96       	adiw	r26, 0x0e	; 14
    1b3a:	9c 93       	st	X, r25
    1b3c:	8e 93       	st	-X, r24
    1b3e:	1d 97       	sbiw	r26, 0x0d	; 13
  frame->header.nwkDstAddr = req->dstAddr;
    1b40:	8d 81       	ldd	r24, Y+5	; 0x05
    1b42:	9e 81       	ldd	r25, Y+6	; 0x06
    1b44:	50 96       	adiw	r26, 0x10	; 16
    1b46:	9c 93       	st	X, r25
    1b48:	8e 93       	st	-X, r24
    1b4a:	1f 97       	sbiw	r26, 0x0f	; 15
  frame->header.nwkSrcEndpoint = req->srcEndpoint;
    1b4c:	88 85       	ldd	r24, Y+8	; 0x08
    1b4e:	98 2f       	mov	r25, r24
    1b50:	9f 70       	andi	r25, 0x0F	; 15
    1b52:	51 96       	adiw	r26, 0x11	; 17
    1b54:	8c 91       	ld	r24, X
    1b56:	51 97       	sbiw	r26, 0x11	; 17
    1b58:	80 7f       	andi	r24, 0xF0	; 240
    1b5a:	89 2b       	or	r24, r25
    1b5c:	51 96       	adiw	r26, 0x11	; 17
    1b5e:	8c 93       	st	X, r24
    1b60:	51 97       	sbiw	r26, 0x11	; 17
  frame->header.nwkDstEndpoint = req->dstEndpoint;
    1b62:	9f 81       	ldd	r25, Y+7	; 0x07
    1b64:	92 95       	swap	r25
    1b66:	90 7f       	andi	r25, 0xF0	; 240
    1b68:	8f 70       	andi	r24, 0x0F	; 15
    1b6a:	89 2b       	or	r24, r25
    1b6c:	51 96       	adiw	r26, 0x11	; 17
    1b6e:	8c 93       	st	X, r24

  memcpy(frame->payload, req->data, req->size);
    1b70:	f8 01       	movw	r30, r16
    1b72:	ef 57       	subi	r30, 0x7F	; 127
    1b74:	ff 4f       	sbci	r31, 0xFF	; 255
    1b76:	4c 85       	ldd	r20, Y+12	; 0x0c
    1b78:	50 e0       	ldi	r21, 0x00	; 0
    1b7a:	6a 85       	ldd	r22, Y+10	; 0x0a
    1b7c:	7b 85       	ldd	r23, Y+11	; 0x0b
    1b7e:	80 81       	ld	r24, Z
    1b80:	91 81       	ldd	r25, Z+1	; 0x01
    1b82:	0e 94 67 51 	call	0xa2ce	; 0xa2ce <memcpy>
  frame->size += req->size;
    1b86:	f8 01       	movw	r30, r16
    1b88:	91 81       	ldd	r25, Z+1	; 0x01
    1b8a:	8c 85       	ldd	r24, Y+12	; 0x0c
    1b8c:	89 0f       	add	r24, r25
    1b8e:	81 83       	std	Z+1, r24	; 0x01

  nwkTxFrame(frame);
    1b90:	c8 01       	movw	r24, r16
    1b92:	27 d5       	rcall	.+2638   	; 0x25e2 <nwkTxFrame>
    1b94:	26 c0       	rjmp	.+76     	; 0x1be2 <nwkDataReqTaskHandler+0x14c>
  @brief Confirms request @req to the application and remove it from the queue
  @param[in] req Pointer to the request parameters
*****************************************************************************/
static void nwkDataReqConfirm(NWK_DataReq_t *req)
{
  if (nwkDataReqQueue == req)
    1b96:	ce 17       	cp	r28, r30
    1b98:	df 07       	cpc	r29, r31
    1b9a:	41 f4       	brne	.+16     	; 0x1bac <nwkDataReqTaskHandler+0x116>
  {
    nwkDataReqQueue = nwkDataReqQueue->next;
    1b9c:	88 81       	ld	r24, Y
    1b9e:	99 81       	ldd	r25, Y+1	; 0x01
    1ba0:	90 93 e7 13 	sts	0x13E7, r25
    1ba4:	80 93 e6 13 	sts	0x13E6, r24
    1ba8:	0a c0       	rjmp	.+20     	; 0x1bbe <nwkDataReqTaskHandler+0x128>
  }
  else
  {
    NWK_DataReq_t *prev = nwkDataReqQueue;
    while (prev->next != req)
      prev = prev->next;
    1baa:	fc 01       	movw	r30, r24
    nwkDataReqQueue = nwkDataReqQueue->next;
  }
  else
  {
    NWK_DataReq_t *prev = nwkDataReqQueue;
    while (prev->next != req)
    1bac:	80 81       	ld	r24, Z
    1bae:	91 81       	ldd	r25, Z+1	; 0x01
    1bb0:	c8 17       	cp	r28, r24
    1bb2:	d9 07       	cpc	r29, r25
    1bb4:	d1 f7       	brne	.-12     	; 0x1baa <nwkDataReqTaskHandler+0x114>
      prev = prev->next;
    prev->next = ((NWK_DataReq_t *)prev->next)->next;
    1bb6:	88 81       	ld	r24, Y
    1bb8:	99 81       	ldd	r25, Y+1	; 0x01
    1bba:	91 83       	std	Z+1, r25	; 0x01
    1bbc:	80 83       	st	Z, r24
  }

  nwkIb.lock--;
    1bbe:	e1 e2       	ldi	r30, 0x21	; 33
    1bc0:	f1 e2       	ldi	r31, 0x21	; 33
    1bc2:	86 a9       	ldd	r24, Z+54	; 0x36
    1bc4:	97 a9       	ldd	r25, Z+55	; 0x37
    1bc6:	01 97       	sbiw	r24, 0x01	; 1
    1bc8:	97 ab       	std	Z+55, r25	; 0x37
    1bca:	86 ab       	std	Z+54, r24	; 0x36
  req->confirm(req);
    1bcc:	ed 85       	ldd	r30, Y+13	; 0x0d
    1bce:	fe 85       	ldd	r31, Y+14	; 0x0e
    1bd0:	ce 01       	movw	r24, r28
    1bd2:	19 95       	eicall
    1bd4:	06 c0       	rjmp	.+12     	; 0x1be2 <nwkDataReqTaskHandler+0x14c>
/*************************************************************************//**
  @brief Data Request module task handler
*****************************************************************************/
void nwkDataReqTaskHandler(void)
{
  for (NWK_DataReq_t *req = nwkDataReqQueue; req; req = req->next)
    1bd6:	09 90       	ld	r0, Y+
    1bd8:	d8 81       	ld	r29, Y
    1bda:	c0 2d       	mov	r28, r0
    1bdc:	20 97       	sbiw	r28, 0x00	; 0
    1bde:	09 f0       	breq	.+2      	; 0x1be2 <nwkDataReqTaskHandler+0x14c>
    1be0:	66 cf       	rjmp	.-308    	; 0x1aae <nwkDataReqTaskHandler+0x18>

      default:
        break;
    };
  }
}
    1be2:	df 91       	pop	r29
    1be4:	cf 91       	pop	r28
    1be6:	1f 91       	pop	r17
    1be8:	0f 91       	pop	r16
    1bea:	08 95       	ret

00001bec <nwkFrameInit>:

/*************************************************************************//**
  @brief Initializes the Frame module
*****************************************************************************/
void nwkFrameInit(void)
{
    1bec:	e8 ee       	ldi	r30, 0xE8	; 232
    1bee:	f3 e1       	ldi	r31, 0x13	; 19
    1bf0:	8c e9       	ldi	r24, 0x9C	; 156
    1bf2:	9e e1       	ldi	r25, 0x1E	; 30
  for (uint8_t i = 0; i < NWK_BUFFERS_AMOUNT; i++)
    nwkFrameFrames[i].state = NWK_FRAME_STATE_FREE;
    1bf4:	10 82       	st	Z, r1
    1bf6:	e7 57       	subi	r30, 0x77	; 119
    1bf8:	ff 4f       	sbci	r31, 0xFF	; 255
/*************************************************************************//**
  @brief Initializes the Frame module
*****************************************************************************/
void nwkFrameInit(void)
{
  for (uint8_t i = 0; i < NWK_BUFFERS_AMOUNT; i++)
    1bfa:	e8 17       	cp	r30, r24
    1bfc:	f9 07       	cpc	r31, r25
    1bfe:	d1 f7       	brne	.-12     	; 0x1bf4 <nwkFrameInit+0x8>
    nwkFrameFrames[i].state = NWK_FRAME_STATE_FREE;
}
    1c00:	08 95       	ret

00001c02 <nwkFrameAlloc>:
*****************************************************************************/
NwkFrame_t *nwkFrameAlloc(void)
{
  for (uint8_t i = 0; i < NWK_BUFFERS_AMOUNT; i++)
  {
    if (NWK_FRAME_STATE_FREE == nwkFrameFrames[i].state)
    1c02:	80 91 e8 13 	lds	r24, 0x13E8
    1c06:	88 23       	and	r24, r24
    1c08:	59 f0       	breq	.+22     	; 0x1c20 <nwkFrameAlloc+0x1e>
    1c0a:	e1 e7       	ldi	r30, 0x71	; 113
    1c0c:	f4 e1       	ldi	r31, 0x14	; 20
    1c0e:	4c e9       	ldi	r20, 0x9C	; 156
    1c10:	5e e1       	ldi	r21, 0x1E	; 30
    1c12:	81 e0       	ldi	r24, 0x01	; 1
    1c14:	90 e0       	ldi	r25, 0x00	; 0
    1c16:	bc 01       	movw	r22, r24
    1c18:	20 81       	ld	r18, Z
    1c1a:	21 11       	cpse	r18, r1
    1c1c:	22 c0       	rjmp	.+68     	; 0x1c62 <nwkFrameAlloc+0x60>
    1c1e:	02 c0       	rjmp	.+4      	; 0x1c24 <nwkFrameAlloc+0x22>
    1c20:	60 e0       	ldi	r22, 0x00	; 0
    1c22:	70 e0       	ldi	r23, 0x00	; 0
    {
      memset(&nwkFrameFrames[i], 0, sizeof(NwkFrame_t));
    1c24:	49 e8       	ldi	r20, 0x89	; 137
    1c26:	46 9f       	mul	r20, r22
    1c28:	90 01       	movw	r18, r0
    1c2a:	47 9f       	mul	r20, r23
    1c2c:	30 0d       	add	r19, r0
    1c2e:	11 24       	eor	r1, r1
    1c30:	c9 01       	movw	r24, r18
    1c32:	88 51       	subi	r24, 0x18	; 24
    1c34:	9c 4e       	sbci	r25, 0xEC	; 236
    1c36:	fc 01       	movw	r30, r24
    1c38:	11 92       	st	Z+, r1
    1c3a:	4a 95       	dec	r20
    1c3c:	e9 f7       	brne	.-6      	; 0x1c38 <nwkFrameAlloc+0x36>
      nwkFrameFrames[i].size = sizeof(NwkFrameHeader_t);
    1c3e:	40 e1       	ldi	r20, 0x10	; 16
    1c40:	fc 01       	movw	r30, r24
    1c42:	41 83       	std	Z+1, r20	; 0x01
      nwkFrameFrames[i].payload = nwkFrameFrames[i].data + sizeof(NwkFrameHeader_t);
    1c44:	ef 57       	subi	r30, 0x7F	; 127
    1c46:	ff 4f       	sbci	r31, 0xFF	; 255
    1c48:	26 50       	subi	r18, 0x06	; 6
    1c4a:	3c 4e       	sbci	r19, 0xEC	; 236
    1c4c:	31 83       	std	Z+1, r19	; 0x01
    1c4e:	20 83       	st	Z, r18
      nwkIb.lock++;
    1c50:	e1 e2       	ldi	r30, 0x21	; 33
    1c52:	f1 e2       	ldi	r31, 0x21	; 33
    1c54:	26 a9       	ldd	r18, Z+54	; 0x36
    1c56:	37 a9       	ldd	r19, Z+55	; 0x37
    1c58:	2f 5f       	subi	r18, 0xFF	; 255
    1c5a:	3f 4f       	sbci	r19, 0xFF	; 255
    1c5c:	37 ab       	std	Z+55, r19	; 0x37
    1c5e:	26 ab       	std	Z+54, r18	; 0x36
      return &nwkFrameFrames[i];
    1c60:	08 95       	ret
    1c62:	01 96       	adiw	r24, 0x01	; 1
    1c64:	e7 57       	subi	r30, 0x77	; 119
    1c66:	ff 4f       	sbci	r31, 0xFF	; 255
  @brief Allocates an empty frame from the buffer pool
  @return Pointer to the frame or @c NULL if there are no free frames
*****************************************************************************/
NwkFrame_t *nwkFrameAlloc(void)
{
  for (uint8_t i = 0; i < NWK_BUFFERS_AMOUNT; i++)
    1c68:	e4 17       	cp	r30, r20
    1c6a:	f5 07       	cpc	r31, r21
    1c6c:	a1 f6       	brne	.-88     	; 0x1c16 <nwkFrameAlloc+0x14>
      nwkFrameFrames[i].payload = nwkFrameFrames[i].data + sizeof(NwkFrameHeader_t);
      nwkIb.lock++;
      return &nwkFrameFrames[i];
    }
  }
  return NULL;
    1c6e:	80 e0       	ldi	r24, 0x00	; 0
    1c70:	90 e0       	ldi	r25, 0x00	; 0
}
    1c72:	08 95       	ret

00001c74 <nwkFrameFree>:
  @brief Frees a @a frame and returns it to the buffer pool
  @param[in] frame Pointer to the frame to be freed
*****************************************************************************/
void nwkFrameFree(NwkFrame_t *frame)
{
  frame->state = NWK_FRAME_STATE_FREE;
    1c74:	fc 01       	movw	r30, r24
    1c76:	10 82       	st	Z, r1
  nwkIb.lock--;
    1c78:	e1 e2       	ldi	r30, 0x21	; 33
    1c7a:	f1 e2       	ldi	r31, 0x21	; 33
    1c7c:	86 a9       	ldd	r24, Z+54	; 0x36
    1c7e:	97 a9       	ldd	r25, Z+55	; 0x37
    1c80:	01 97       	sbiw	r24, 0x01	; 1
    1c82:	97 ab       	std	Z+55, r25	; 0x37
    1c84:	86 ab       	std	Z+54, r24	; 0x36
    1c86:	08 95       	ret

00001c88 <nwkFrameNext>:
  @param[in] frame Pointer to the current frame or @c NULL for the first frame
  @return Next allocated frame or @c NULL if there are no more frames
*****************************************************************************/
NwkFrame_t *nwkFrameNext(NwkFrame_t *frame)
{
  if (NULL == frame)
    1c88:	00 97       	sbiw	r24, 0x00	; 0
    1c8a:	41 f0       	breq	.+16     	; 0x1c9c <nwkFrameNext+0x14>
    frame = nwkFrameFrames;
  else
    frame++;
    1c8c:	fc 01       	movw	r30, r24
    1c8e:	e7 57       	subi	r30, 0x77	; 119
    1c90:	ff 4f       	sbci	r31, 0xFF	; 255

  for (; frame < &nwkFrameFrames[NWK_BUFFERS_AMOUNT]; frame++)
    1c92:	8e e1       	ldi	r24, 0x1E	; 30
    1c94:	ec 39       	cpi	r30, 0x9C	; 156
    1c96:	f8 07       	cpc	r31, r24
    1c98:	18 f0       	brcs	.+6      	; 0x1ca0 <nwkFrameNext+0x18>
    1c9a:	15 c0       	rjmp	.+42     	; 0x1cc6 <nwkFrameNext+0x3e>
  @return Next allocated frame or @c NULL if there are no more frames
*****************************************************************************/
NwkFrame_t *nwkFrameNext(NwkFrame_t *frame)
{
  if (NULL == frame)
    frame = nwkFrameFrames;
    1c9c:	e8 ee       	ldi	r30, 0xE8	; 232
    1c9e:	f3 e1       	ldi	r31, 0x13	; 19
  else
    frame++;

  for (; frame < &nwkFrameFrames[NWK_BUFFERS_AMOUNT]; frame++)
  {
    if (NWK_FRAME_STATE_FREE != frame->state)
    1ca0:	80 81       	ld	r24, Z
    1ca2:	88 23       	and	r24, r24
    1ca4:	39 f0       	breq	.+14     	; 0x1cb4 <nwkFrameNext+0x2c>
    1ca6:	03 c0       	rjmp	.+6      	; 0x1cae <nwkFrameNext+0x26>
    1ca8:	80 81       	ld	r24, Z
    1caa:	88 23       	and	r24, r24
    1cac:	19 f0       	breq	.+6      	; 0x1cb4 <nwkFrameNext+0x2c>
      return frame;
    1cae:	8e 2f       	mov	r24, r30
    1cb0:	9f 2f       	mov	r25, r31
    1cb2:	08 95       	ret
  if (NULL == frame)
    frame = nwkFrameFrames;
  else
    frame++;

  for (; frame < &nwkFrameFrames[NWK_BUFFERS_AMOUNT]; frame++)
    1cb4:	e7 57       	subi	r30, 0x77	; 119
    1cb6:	ff 4f       	sbci	r31, 0xFF	; 255
    1cb8:	8e e1       	ldi	r24, 0x1E	; 30
    1cba:	ec 39       	cpi	r30, 0x9C	; 156
    1cbc:	f8 07       	cpc	r31, r24
    1cbe:	a0 f3       	brcs	.-24     	; 0x1ca8 <nwkFrameNext+0x20>
  {
    if (NWK_FRAME_STATE_FREE != frame->state)
      return frame;
  }

  return NULL;
    1cc0:	80 e0       	ldi	r24, 0x00	; 0
    1cc2:	90 e0       	ldi	r25, 0x00	; 0
    1cc4:	08 95       	ret
    1cc6:	80 e0       	ldi	r24, 0x00	; 0
    1cc8:	90 e0       	ldi	r25, 0x00	; 0
}
    1cca:	08 95       	ret

00001ccc <nwkFrameCommandInit>:
/*************************************************************************//**
  @brief Sets default parameters for the the command @a frame
  @param[in] frame Pointer to the command frame
*****************************************************************************/
void nwkFrameCommandInit(NwkFrame_t *frame)
{
    1ccc:	fc 01       	movw	r30, r24
  frame->tx.status = NWK_SUCCESS_STATUS;
    1cce:	dc 01       	movw	r26, r24
    1cd0:	ad 57       	subi	r26, 0x7D	; 125
    1cd2:	bf 4f       	sbci	r27, 0xFF	; 255
    1cd4:	1c 92       	st	X, r1
  frame->header.nwkSeq = ++nwkIb.nwkSeqNum;
    1cd6:	a1 e2       	ldi	r26, 0x21	; 33
    1cd8:	b1 e2       	ldi	r27, 0x21	; 33
    1cda:	14 96       	adiw	r26, 0x04	; 4
    1cdc:	9c 91       	ld	r25, X
    1cde:	14 97       	sbiw	r26, 0x04	; 4
    1ce0:	9f 5f       	subi	r25, 0xFF	; 255
    1ce2:	14 96       	adiw	r26, 0x04	; 4
    1ce4:	9c 93       	st	X, r25
    1ce6:	14 97       	sbiw	r26, 0x04	; 4
    1ce8:	94 87       	std	Z+12, r25	; 0x0c
  frame->header.nwkSrcAddr = nwkIb.addr;
    1cea:	8d 91       	ld	r24, X+
    1cec:	9c 91       	ld	r25, X
    1cee:	96 87       	std	Z+14, r25	; 0x0e
    1cf0:	85 87       	std	Z+13, r24	; 0x0d
    1cf2:	08 95       	ret

00001cf4 <nwkRxServiceDataInd>:

/*************************************************************************//**
*****************************************************************************/
void NWK_SetAckControl(uint8_t control)
{
  nwkRxAckControl = control;
    1cf4:	dc 01       	movw	r26, r24
    1cf6:	19 96       	adiw	r26, 0x09	; 9
    1cf8:	2c 91       	ld	r18, X
    1cfa:	19 97       	sbiw	r26, 0x09	; 9
    1cfc:	22 23       	and	r18, r18
    1cfe:	49 f0       	breq	.+18     	; 0x1d12 <nwkRxServiceDataInd+0x1e>
    1d00:	17 96       	adiw	r26, 0x07	; 7
    1d02:	ed 91       	ld	r30, X+
    1d04:	fc 91       	ld	r31, X
    1d06:	18 97       	sbiw	r26, 0x08	; 8
    1d08:	20 81       	ld	r18, Z
    1d0a:	21 11       	cpse	r18, r1
    1d0c:	04 c0       	rjmp	.+8      	; 0x1d16 <nwkRxServiceDataInd+0x22>
    1d0e:	03 c5       	rjmp	.+2566   	; 0x2716 <nwkTxAckReceived>
    1d10:	08 95       	ret
    1d12:	80 e0       	ldi	r24, 0x00	; 0
    1d14:	08 95       	ret
    1d16:	80 e0       	ldi	r24, 0x00	; 0
    1d18:	08 95       	ret

00001d1a <nwkRxDuplicateRejectionTimerHandler>:
    1d1a:	bc 01       	movw	r22, r24
    1d1c:	ee ea       	ldi	r30, 0xAE	; 174
    1d1e:	fe e1       	ldi	r31, 0x1E	; 30
    1d20:	20 ee       	ldi	r18, 0xE0	; 224
    1d22:	3e e1       	ldi	r19, 0x1E	; 30
    1d24:	40 e0       	ldi	r20, 0x00	; 0
    1d26:	51 e0       	ldi	r21, 0x01	; 1
    1d28:	90 81       	ld	r25, Z
    1d2a:	99 23       	and	r25, r25
    1d2c:	19 f0       	breq	.+6      	; 0x1d34 <nwkRxDuplicateRejectionTimerHandler+0x1a>
    1d2e:	91 50       	subi	r25, 0x01	; 1
    1d30:	90 83       	st	Z, r25
    1d32:	45 2f       	mov	r20, r21
    1d34:	35 96       	adiw	r30, 0x05	; 5
    1d36:	e2 17       	cp	r30, r18
    1d38:	f3 07       	cpc	r31, r19
    1d3a:	b1 f7       	brne	.-20     	; 0x1d28 <nwkRxDuplicateRejectionTimerHandler+0xe>
    1d3c:	44 23       	and	r20, r20
    1d3e:	19 f0       	breq	.+6      	; 0x1d46 <nwkRxDuplicateRejectionTimerHandler+0x2c>
    1d40:	cb 01       	movw	r24, r22
    1d42:	0c 94 d0 16 	jmp	0x2da0	; 0x2da0 <SYS_TimerStart>
    1d46:	08 95       	ret

00001d48 <nwkRxInit>:
    1d48:	ee ea       	ldi	r30, 0xAE	; 174
    1d4a:	fe e1       	ldi	r31, 0x1E	; 30
    1d4c:	80 ee       	ldi	r24, 0xE0	; 224
    1d4e:	9e e1       	ldi	r25, 0x1E	; 30
    1d50:	10 82       	st	Z, r1
    1d52:	35 96       	adiw	r30, 0x05	; 5
    1d54:	e8 17       	cp	r30, r24
    1d56:	f9 07       	cpc	r31, r25
    1d58:	d9 f7       	brne	.-10     	; 0x1d50 <nwkRxInit+0x8>
    1d5a:	ec e9       	ldi	r30, 0x9C	; 156
    1d5c:	fe e1       	ldi	r31, 0x1E	; 30
    1d5e:	84 e6       	ldi	r24, 0x64	; 100
    1d60:	90 e0       	ldi	r25, 0x00	; 0
    1d62:	a0 e0       	ldi	r26, 0x00	; 0
    1d64:	b0 e0       	ldi	r27, 0x00	; 0
    1d66:	86 83       	std	Z+6, r24	; 0x06
    1d68:	97 83       	std	Z+7, r25	; 0x07
    1d6a:	a0 87       	std	Z+8, r26	; 0x08
    1d6c:	b1 87       	std	Z+9, r27	; 0x09
    1d6e:	12 86       	std	Z+10, r1	; 0x0a
    1d70:	8d e8       	ldi	r24, 0x8D	; 141
    1d72:	9e e0       	ldi	r25, 0x0E	; 14
    1d74:	94 87       	std	Z+12, r25	; 0x0c
    1d76:	83 87       	std	Z+11, r24	; 0x0b
    1d78:	6a e7       	ldi	r22, 0x7A	; 122
    1d7a:	7e e0       	ldi	r23, 0x0E	; 14
    1d7c:	80 e0       	ldi	r24, 0x00	; 0
    1d7e:	31 ce       	rjmp	.-926    	; 0x19e2 <NWK_OpenEndpoint>
    1d80:	08 95       	ret

00001d82 <PHY_DataInd>:
    1d82:	cf 93       	push	r28
    1d84:	df 93       	push	r29
    1d86:	dc 01       	movw	r26, r24
    1d88:	ed 91       	ld	r30, X+
    1d8a:	fc 91       	ld	r31, X
    1d8c:	11 97       	sbiw	r26, 0x01	; 1
    1d8e:	21 81       	ldd	r18, Z+1	; 0x01
    1d90:	28 38       	cpi	r18, 0x88	; 136
    1d92:	f9 f4       	brne	.+62     	; 0x1dd2 <PHY_DataInd+0x50>
    1d94:	20 81       	ld	r18, Z
    1d96:	2f 7d       	andi	r18, 0xDF	; 223
    1d98:	21 34       	cpi	r18, 0x41	; 65
    1d9a:	d9 f4       	brne	.+54     	; 0x1dd2 <PHY_DataInd+0x50>
    1d9c:	12 96       	adiw	r26, 0x02	; 2
    1d9e:	2c 91       	ld	r18, X
    1da0:	20 31       	cpi	r18, 0x10	; 16
    1da2:	b8 f0       	brcs	.+46     	; 0x1dd2 <PHY_DataInd+0x50>
    1da4:	ec 01       	movw	r28, r24
    1da6:	2d df       	rcall	.-422    	; 0x1c02 <nwkFrameAlloc>
    1da8:	00 97       	sbiw	r24, 0x00	; 0
    1daa:	99 f0       	breq	.+38     	; 0x1dd2 <PHY_DataInd+0x50>
    1dac:	20 e2       	ldi	r18, 0x20	; 32
    1dae:	fc 01       	movw	r30, r24
    1db0:	20 83       	st	Z, r18
    1db2:	2a 81       	ldd	r18, Y+2	; 0x02
    1db4:	21 83       	std	Z+1, r18	; 0x01
    1db6:	2b 81       	ldd	r18, Y+3	; 0x03
    1db8:	ed 57       	subi	r30, 0x7D	; 125
    1dba:	ff 4f       	sbci	r31, 0xFF	; 255
    1dbc:	20 83       	st	Z, r18
    1dbe:	2c 81       	ldd	r18, Y+4	; 0x04
    1dc0:	31 96       	adiw	r30, 0x01	; 1
    1dc2:	20 83       	st	Z, r18
    1dc4:	4a 81       	ldd	r20, Y+2	; 0x02
    1dc6:	50 e0       	ldi	r21, 0x00	; 0
    1dc8:	68 81       	ld	r22, Y
    1dca:	79 81       	ldd	r23, Y+1	; 0x01
    1dcc:	02 96       	adiw	r24, 0x02	; 2
    1dce:	0e 94 67 51 	call	0xa2ce	; 0xa2ce <memcpy>
    1dd2:	df 91       	pop	r29
    1dd4:	cf 91       	pop	r28
    1dd6:	08 95       	ret

00001dd8 <nwkRxDecryptConf>:
#ifdef NWK_ENABLE_SECURITY
/*************************************************************************//**
*****************************************************************************/
void nwkRxDecryptConf(NwkFrame_t *frame, bool status)
{
  if (status)
    1dd8:	66 23       	and	r22, r22
    1dda:	21 f0       	breq	.+8      	; 0x1de4 <nwkRxDecryptConf+0xc>
    frame->state = NWK_RX_STATE_INDICATE;
    1ddc:	22 e2       	ldi	r18, 0x22	; 34
    1dde:	fc 01       	movw	r30, r24
    1de0:	20 83       	st	Z, r18
    1de2:	08 95       	ret
  else
    frame->state = NWK_RX_STATE_FINISH;
    1de4:	24 e2       	ldi	r18, 0x24	; 36
    1de6:	fc 01       	movw	r30, r24
    1de8:	20 83       	st	Z, r18
    1dea:	08 95       	ret

00001dec <nwkRxTaskHandler>:

/*************************************************************************//**
  @brief Rx Module task handler
*****************************************************************************/
void nwkRxTaskHandler(void)
{
    1dec:	2f 92       	push	r2
    1dee:	3f 92       	push	r3
    1df0:	4f 92       	push	r4
    1df2:	5f 92       	push	r5
    1df4:	6f 92       	push	r6
    1df6:	7f 92       	push	r7
    1df8:	8f 92       	push	r8
    1dfa:	9f 92       	push	r9
    1dfc:	af 92       	push	r10
    1dfe:	bf 92       	push	r11
    1e00:	cf 92       	push	r12
    1e02:	df 92       	push	r13
    1e04:	ef 92       	push	r14
    1e06:	ff 92       	push	r15
    1e08:	0f 93       	push	r16
    1e0a:	1f 93       	push	r17
    1e0c:	cf 93       	push	r28
    1e0e:	df 93       	push	r29
    1e10:	cd b7       	in	r28, 0x3d	; 61
    1e12:	de b7       	in	r29, 0x3e	; 62
    1e14:	2c 97       	sbiw	r28, 0x0c	; 12
    1e16:	0f b6       	in	r0, 0x3f	; 63
    1e18:	f8 94       	cli
    1e1a:	de bf       	out	0x3e, r29	; 62
    1e1c:	0f be       	out	0x3f, r0	; 63
    1e1e:	cd bf       	out	0x3d, r28	; 61
  NwkFrame_t *frame = NULL;
    1e20:	00 e0       	ldi	r16, 0x00	; 0
    1e22:	10 e0       	ldi	r17, 0x00	; 0
    ack = false;

  if (ack)
    nwkRxSendAck(frame);

  frame->state = NWK_RX_STATE_FINISH;
    1e24:	0f 2e       	mov	r0, r31
    1e26:	f4 e2       	ldi	r31, 0x24	; 36
    1e28:	df 2e       	mov	r13, r31
    1e2a:	f0 2d       	mov	r31, r0
    ack = true;

  if (NWK_BROADCAST_PANID == frame->header.macDstPanId)
    ack = false;

  if (NWK_BROADCAST_ADDR == nwkIb.addr)
    1e2c:	0f 2e       	mov	r0, r31
    1e2e:	f1 e2       	ldi	r31, 0x21	; 33
    1e30:	8f 2e       	mov	r8, r31
    1e32:	f1 e2       	ldi	r31, 0x21	; 33
    1e34:	9f 2e       	mov	r9, r31
    1e36:	f0 2d       	mov	r31, r0
    ack = false;

  if (NWK_BROADCAST_ADDR == frame->header.macDstAddr &&
      nwkIb.addr == frame->header.nwkDstAddr &&
      0 == frame->header.nwkFcf.multicast)
    ack = true;
    1e38:	cc 24       	eor	r12, r12
    1e3a:	c3 94       	inc	r12
    1e3c:	0f 2e       	mov	r0, r31
    1e3e:	fe ea       	ldi	r31, 0xAE	; 174
    1e40:	4f 2e       	mov	r4, r31
    1e42:	fe e1       	ldi	r31, 0x1E	; 30
    1e44:	5f 2e       	mov	r5, r31
    1e46:	f0 2d       	mov	r31, r0
    1e48:	0f 2e       	mov	r0, r31
    1e4a:	fa ea       	ldi	r31, 0xAA	; 170
    1e4c:	6f 2e       	mov	r6, r31
    1e4e:	fe e1       	ldi	r31, 0x1E	; 30
    1e50:	7f 2e       	mov	r7, r31
    1e52:	f0 2d       	mov	r31, r0
    1e54:	0f 2e       	mov	r0, r31
    1e56:	fc ed       	ldi	r31, 0xDC	; 220
    1e58:	ef 2e       	mov	r14, r31
    1e5a:	fe e1       	ldi	r31, 0x1E	; 30
    1e5c:	ff 2e       	mov	r15, r31
    1e5e:	f0 2d       	mov	r31, r0
#endif

  if (NWK_BROADCAST_ADDR == header->nwkDstAddr && header->nwkFcf.ackRequest)
    return;

  if (nwkIb.addr == header->nwkSrcAddr)
    1e60:	31 2c       	mov	r3, r1
    1e62:	21 2c       	mov	r2, r1
    1e64:	58 01       	movw	r10, r16
*****************************************************************************/
void nwkRxTaskHandler(void)
{
  NwkFrame_t *frame = NULL;

  while (NULL != (frame = nwkFrameNext(frame)))
    1e66:	b9 c1       	rjmp	.+882    	; 0x21da <nwkRxTaskHandler+0x3ee>
  {
    switch (frame->state)
    1e68:	d5 01       	movw	r26, r10
    1e6a:	8c 91       	ld	r24, X
    1e6c:	81 32       	cpi	r24, 0x21	; 33
    1e6e:	09 f4       	brne	.+2      	; 0x1e72 <nwkRxTaskHandler+0x86>
    1e70:	e1 c0       	rjmp	.+450    	; 0x2034 <nwkRxTaskHandler+0x248>
    1e72:	18 f4       	brcc	.+6      	; 0x1e7a <nwkRxTaskHandler+0x8e>
    1e74:	80 32       	cpi	r24, 0x20	; 32
    1e76:	41 f0       	breq	.+16     	; 0x1e88 <nwkRxTaskHandler+0x9c>
    1e78:	b0 c1       	rjmp	.+864    	; 0x21da <nwkRxTaskHandler+0x3ee>
    1e7a:	82 32       	cpi	r24, 0x22	; 34
    1e7c:	09 f4       	brne	.+2      	; 0x1e80 <nwkRxTaskHandler+0x94>
    1e7e:	de c0       	rjmp	.+444    	; 0x203c <nwkRxTaskHandler+0x250>
    1e80:	84 32       	cpi	r24, 0x24	; 36
    1e82:	09 f4       	brne	.+2      	; 0x1e86 <nwkRxTaskHandler+0x9a>
    1e84:	a8 c1       	rjmp	.+848    	; 0x21d6 <nwkRxTaskHandler+0x3ea>
    1e86:	a9 c1       	rjmp	.+850    	; 0x21da <nwkRxTaskHandler+0x3ee>
*****************************************************************************/
static void nwkRxHandleReceivedFrame(NwkFrame_t *frame)
{
  NwkFrameHeader_t *header = &frame->header;

  frame->state = NWK_RX_STATE_FINISH;
    1e88:	f5 01       	movw	r30, r10
    1e8a:	d0 82       	st	Z, r13

#ifdef NWK_ENABLE_MULTICAST
  if (header->nwkFcf.multicast && header->nwkFcf.ackRequest)
    return;
#else
  if (header->nwkFcf.multicast)
    1e8c:	83 85       	ldd	r24, Z+11	; 0x0b
    1e8e:	83 fd       	sbrc	r24, 3
    1e90:	a4 c1       	rjmp	.+840    	; 0x21da <nwkRxTaskHandler+0x3ee>
    return;
#endif

  if (NWK_BROADCAST_PANID == header->macDstPanId)
    1e92:	25 81       	ldd	r18, Z+5	; 0x05
    1e94:	36 81       	ldd	r19, Z+6	; 0x06
    1e96:	2f 3f       	cpi	r18, 0xFF	; 255
    1e98:	3f 4f       	sbci	r19, 0xFF	; 255
    1e9a:	c9 f4       	brne	.+50     	; 0x1ece <nwkRxTaskHandler+0xe2>
  {
    if (nwkIb.addr == header->nwkDstAddr || NWK_BROADCAST_ADDR == header->nwkDstAddr)
    1e9c:	d5 01       	movw	r26, r10
    1e9e:	1f 96       	adiw	r26, 0x0f	; 15
    1ea0:	2d 91       	ld	r18, X+
    1ea2:	3c 91       	ld	r19, X
    1ea4:	50 97       	sbiw	r26, 0x10	; 16
    1ea6:	f4 01       	movw	r30, r8
    1ea8:	40 81       	ld	r20, Z
    1eaa:	51 81       	ldd	r21, Z+1	; 0x01
    1eac:	42 17       	cp	r20, r18
    1eae:	53 07       	cpc	r21, r19
    1eb0:	21 f0       	breq	.+8      	; 0x1eba <nwkRxTaskHandler+0xce>
    1eb2:	2f 3f       	cpi	r18, 0xFF	; 255
    1eb4:	3f 4f       	sbci	r19, 0xFF	; 255
    1eb6:	09 f0       	breq	.+2      	; 0x1eba <nwkRxTaskHandler+0xce>
    1eb8:	90 c1       	rjmp	.+800    	; 0x21da <nwkRxTaskHandler+0x3ee>
    {
    #ifdef NWK_ENABLE_SECURITY
      if (header->nwkFcf.security)
    1eba:	81 ff       	sbrs	r24, 1
    1ebc:	04 c0       	rjmp	.+8      	; 0x1ec6 <nwkRxTaskHandler+0xda>
        frame->state = NWK_RX_STATE_DECRYPT;
    1ebe:	81 e2       	ldi	r24, 0x21	; 33
    1ec0:	d5 01       	movw	r26, r10
    1ec2:	8c 93       	st	X, r24
    1ec4:	8a c1       	rjmp	.+788    	; 0x21da <nwkRxTaskHandler+0x3ee>
      else
    #endif
        frame->state = NWK_RX_STATE_INDICATE;
    1ec6:	22 e2       	ldi	r18, 0x22	; 34
    1ec8:	f5 01       	movw	r30, r10
    1eca:	20 83       	st	Z, r18
    1ecc:	86 c1       	rjmp	.+780    	; 0x21da <nwkRxTaskHandler+0x3ee>
#ifdef NWK_ENABLE_ADDRESS_FILTER
  if (!NWK_FilterAddress(header->macSrcAddr, &frame->rx.lqi))
    return;
#endif

  if (NWK_BROADCAST_ADDR == header->nwkDstAddr && header->nwkFcf.ackRequest)
    1ece:	d5 01       	movw	r26, r10
    1ed0:	1f 96       	adiw	r26, 0x0f	; 15
    1ed2:	2d 91       	ld	r18, X+
    1ed4:	3c 91       	ld	r19, X
    1ed6:	50 97       	sbiw	r26, 0x10	; 16
    1ed8:	2f 3f       	cpi	r18, 0xFF	; 255
    1eda:	3f 4f       	sbci	r19, 0xFF	; 255
    1edc:	09 f0       	breq	.+2      	; 0x1ee0 <nwkRxTaskHandler+0xf4>
    1ede:	84 c1       	rjmp	.+776    	; 0x21e8 <nwkRxTaskHandler+0x3fc>
    1ee0:	80 ff       	sbrs	r24, 0
    1ee2:	82 c1       	rjmp	.+772    	; 0x21e8 <nwkRxTaskHandler+0x3fc>
    1ee4:	7a c1       	rjmp	.+756    	; 0x21da <nwkRxTaskHandler+0x3ee>
  NwkDuplicateRejectionEntry_t *entry;
  NwkDuplicateRejectionEntry_t *freeEntry = NULL;

  for (uint8_t i = 0; i < NWK_DUPLICATE_REJECTION_TABLE_SIZE; i++)
  {
    entry = &nwkRxDuplicateRejectionTable[i];
    1ee6:	8c 01       	movw	r16, r24

    if (entry->ttl && header->nwkSrcAddr == entry->src)
    1ee8:	2c 91       	ld	r18, X
    1eea:	22 23       	and	r18, r18
    1eec:	09 f4       	brne	.+2      	; 0x1ef0 <nwkRxTaskHandler+0x104>
    1eee:	57 c0       	rjmp	.+174    	; 0x1f9e <nwkRxTaskHandler+0x1b2>
    1ef0:	20 81       	ld	r18, Z
    1ef2:	31 81       	ldd	r19, Z+1	; 0x01
    1ef4:	42 17       	cp	r20, r18
    1ef6:	53 07       	cpc	r21, r19
    1ef8:	09 f0       	breq	.+2      	; 0x1efc <nwkRxTaskHandler+0x110>
    1efa:	52 c0       	rjmp	.+164    	; 0x1fa0 <nwkRxTaskHandler+0x1b4>
    {
      uint8_t diff = (int8_t)entry->seq - header->nwkSeq;
    1efc:	f5 01       	movw	r30, r10
    1efe:	94 85       	ldd	r25, Z+12	; 0x0c
    1f00:	f8 01       	movw	r30, r16
    1f02:	ee 0f       	add	r30, r30
    1f04:	ff 1f       	adc	r31, r31
    1f06:	ee 0f       	add	r30, r30
    1f08:	ff 1f       	adc	r31, r31
    1f0a:	e0 0f       	add	r30, r16
    1f0c:	f1 1f       	adc	r31, r17
    1f0e:	e6 55       	subi	r30, 0x56	; 86
    1f10:	f1 4e       	sbci	r31, 0xE1	; 225
    1f12:	82 81       	ldd	r24, Z+2	; 0x02
    1f14:	89 1b       	sub	r24, r25

      if (diff < 8)
    1f16:	88 30       	cpi	r24, 0x08	; 8
    1f18:	40 f5       	brcc	.+80     	; 0x1f6a <nwkRxTaskHandler+0x17e>
      {
        if (entry->mask & (1 << diff))
    1f1a:	f8 01       	movw	r30, r16
    1f1c:	ee 0f       	add	r30, r30
    1f1e:	ff 1f       	adc	r31, r31
    1f20:	ee 0f       	add	r30, r30
    1f22:	ff 1f       	adc	r31, r31
    1f24:	e0 0f       	add	r30, r16
    1f26:	f1 1f       	adc	r31, r17
    1f28:	e6 55       	subi	r30, 0x56	; 86
    1f2a:	f1 4e       	sbci	r31, 0xE1	; 225
    1f2c:	93 81       	ldd	r25, Z+3	; 0x03
    1f2e:	29 2f       	mov	r18, r25
    1f30:	30 e0       	ldi	r19, 0x00	; 0
    1f32:	08 2e       	mov	r0, r24
    1f34:	02 c0       	rjmp	.+4      	; 0x1f3a <nwkRxTaskHandler+0x14e>
    1f36:	35 95       	asr	r19
    1f38:	27 95       	ror	r18
    1f3a:	0a 94       	dec	r0
    1f3c:	e2 f7       	brpl	.-8      	; 0x1f36 <nwkRxTaskHandler+0x14a>
    1f3e:	20 fd       	sbrc	r18, 0
    1f40:	4c c1       	rjmp	.+664    	; 0x21da <nwkRxTaskHandler+0x3ee>
            nwkRouteRemove(header->nwkDstAddr, header->nwkFcf.multicast);
        #endif
          return true;
        }

        entry->mask |= (1 << diff);
    1f42:	f8 01       	movw	r30, r16
    1f44:	ee 0f       	add	r30, r30
    1f46:	ff 1f       	adc	r31, r31
    1f48:	ee 0f       	add	r30, r30
    1f4a:	ff 1f       	adc	r31, r31
    1f4c:	0e 0f       	add	r16, r30
    1f4e:	1f 1f       	adc	r17, r31
    1f50:	f8 01       	movw	r30, r16
    1f52:	e6 55       	subi	r30, 0x56	; 86
    1f54:	f1 4e       	sbci	r31, 0xE1	; 225
    1f56:	21 e0       	ldi	r18, 0x01	; 1
    1f58:	30 e0       	ldi	r19, 0x00	; 0
    1f5a:	02 c0       	rjmp	.+4      	; 0x1f60 <nwkRxTaskHandler+0x174>
    1f5c:	22 0f       	add	r18, r18
    1f5e:	33 1f       	adc	r19, r19
    1f60:	8a 95       	dec	r24
    1f62:	e2 f7       	brpl	.-8      	; 0x1f5c <nwkRxTaskHandler+0x170>
    1f64:	92 2b       	or	r25, r18
    1f66:	93 83       	std	Z+3, r25	; 0x03
    1f68:	4f c1       	rjmp	.+670    	; 0x2208 <nwkRxTaskHandler+0x41c>
      }
      else
      {
        uint8_t shift = -(int8_t)diff;

        entry->seq = header->nwkSeq;
    1f6a:	f8 01       	movw	r30, r16
    1f6c:	ee 0f       	add	r30, r30
    1f6e:	ff 1f       	adc	r31, r31
    1f70:	ee 0f       	add	r30, r30
    1f72:	ff 1f       	adc	r31, r31
    1f74:	0e 0f       	add	r16, r30
    1f76:	1f 1f       	adc	r17, r31
    1f78:	f8 01       	movw	r30, r16
    1f7a:	e6 55       	subi	r30, 0x56	; 86
    1f7c:	f1 4e       	sbci	r31, 0xE1	; 225
    1f7e:	92 83       	std	Z+2, r25	; 0x02
        entry->mask = (entry->mask << shift) | 1;
    1f80:	23 81       	ldd	r18, Z+3	; 0x03
    1f82:	30 e0       	ldi	r19, 0x00	; 0
        entry->mask |= (1 << diff);
        return false;
      }
      else
      {
        uint8_t shift = -(int8_t)diff;
    1f84:	81 95       	neg	r24

        entry->seq = header->nwkSeq;
        entry->mask = (entry->mask << shift) | 1;
    1f86:	a9 01       	movw	r20, r18
    1f88:	02 c0       	rjmp	.+4      	; 0x1f8e <nwkRxTaskHandler+0x1a2>
    1f8a:	44 0f       	add	r20, r20
    1f8c:	55 1f       	adc	r21, r21
    1f8e:	8a 95       	dec	r24
    1f90:	e2 f7       	brpl	.-8      	; 0x1f8a <nwkRxTaskHandler+0x19e>
    1f92:	ca 01       	movw	r24, r20
    1f94:	81 60       	ori	r24, 0x01	; 1
    1f96:	83 83       	std	Z+3, r24	; 0x03
        entry->ttl = DUPLICATE_REJECTION_TTL;
    1f98:	8f e1       	ldi	r24, 0x1F	; 31
    1f9a:	84 83       	std	Z+4, r24	; 0x04
    1f9c:	35 c1       	rjmp	.+618    	; 0x2208 <nwkRxTaskHandler+0x41c>
  NwkDuplicateRejectionEntry_t *entry;
  NwkDuplicateRejectionEntry_t *freeEntry = NULL;

  for (uint8_t i = 0; i < NWK_DUPLICATE_REJECTION_TABLE_SIZE; i++)
  {
    entry = &nwkRxDuplicateRejectionTable[i];
    1f9e:	bf 01       	movw	r22, r30
    1fa0:	01 96       	adiw	r24, 0x01	; 1
    1fa2:	15 96       	adiw	r26, 0x05	; 5
    1fa4:	35 96       	adiw	r30, 0x05	; 5
static bool nwkRxRejectDuplicate(NwkFrameHeader_t *header)
{
  NwkDuplicateRejectionEntry_t *entry;
  NwkDuplicateRejectionEntry_t *freeEntry = NULL;

  for (uint8_t i = 0; i < NWK_DUPLICATE_REJECTION_TABLE_SIZE; i++)
    1fa6:	ee 15       	cp	r30, r14
    1fa8:	ff 05       	cpc	r31, r15
    1faa:	09 f0       	breq	.+2      	; 0x1fae <nwkRxTaskHandler+0x1c2>
    1fac:	9c cf       	rjmp	.-200    	; 0x1ee6 <nwkRxTaskHandler+0xfa>

    if (0 == entry->ttl)
      freeEntry = entry;
  }

  if (NULL == freeEntry)
    1fae:	61 15       	cp	r22, r1
    1fb0:	71 05       	cpc	r23, r1
    1fb2:	09 f4       	brne	.+2      	; 0x1fb6 <nwkRxTaskHandler+0x1ca>
    1fb4:	12 c1       	rjmp	.+548    	; 0x21da <nwkRxTaskHandler+0x3ee>
    return true;

  freeEntry->src = header->nwkSrcAddr;
    1fb6:	db 01       	movw	r26, r22
    1fb8:	11 96       	adiw	r26, 0x01	; 1
    1fba:	5c 93       	st	X, r21
    1fbc:	4e 93       	st	-X, r20
  freeEntry->seq = header->nwkSeq;
    1fbe:	f5 01       	movw	r30, r10
    1fc0:	84 85       	ldd	r24, Z+12	; 0x0c
    1fc2:	12 96       	adiw	r26, 0x02	; 2
    1fc4:	8c 93       	st	X, r24
    1fc6:	12 97       	sbiw	r26, 0x02	; 2
  freeEntry->mask = 1;
    1fc8:	13 96       	adiw	r26, 0x03	; 3
    1fca:	cc 92       	st	X, r12
    1fcc:	13 97       	sbiw	r26, 0x03	; 3
  freeEntry->ttl = DUPLICATE_REJECTION_TTL;
    1fce:	8f e1       	ldi	r24, 0x1F	; 31
    1fd0:	14 96       	adiw	r26, 0x04	; 4
    1fd2:	8c 93       	st	X, r24

  SYS_TimerStart(&nwkRxDuplicateRejectionTimer);
    1fd4:	8c e9       	ldi	r24, 0x9C	; 156
    1fd6:	9e e1       	ldi	r25, 0x1E	; 30
    1fd8:	e3 d6       	rcall	.+3526   	; 0x2da0 <SYS_TimerStart>
    1fda:	16 c1       	rjmp	.+556    	; 0x2208 <nwkRxTaskHandler+0x41c>
    }
  }
  else
#endif // NWK_ENABLE_MULTICAST
  {
    if (NWK_BROADCAST_ADDR == header->macDstAddr && nwkIb.addr != header->nwkDstAddr &&
    1fdc:	d5 01       	movw	r26, r10
    1fde:	1f 96       	adiw	r26, 0x0f	; 15
    1fe0:	8d 91       	ld	r24, X+
    1fe2:	9c 91       	ld	r25, X
    1fe4:	50 97       	sbiw	r26, 0x10	; 16
    1fe6:	f4 01       	movw	r30, r8
    1fe8:	20 81       	ld	r18, Z
    1fea:	31 81       	ldd	r19, Z+1	; 0x01
    1fec:	28 17       	cp	r18, r24
    1fee:	39 07       	cpc	r19, r25
    1ff0:	a1 f0       	breq	.+40     	; 0x201a <nwkRxTaskHandler+0x22e>
        0 == header->nwkFcf.linkLocal)
    1ff2:	1b 96       	adiw	r26, 0x0b	; 11
    1ff4:	2c 91       	ld	r18, X
    }
  }
  else
#endif // NWK_ENABLE_MULTICAST
  {
    if (NWK_BROADCAST_ADDR == header->macDstAddr && nwkIb.addr != header->nwkDstAddr &&
    1ff6:	22 fd       	sbrc	r18, 2
    1ff8:	0d c0       	rjmp	.+26     	; 0x2014 <nwkRxTaskHandler+0x228>
        0 == header->nwkFcf.linkLocal)
      nwkTxBroadcastFrame(frame);
    1ffa:	c5 01       	movw	r24, r10
    1ffc:	47 d3       	rcall	.+1678   	; 0x268c <nwkTxBroadcastFrame>

    if (nwkIb.addr == header->nwkDstAddr || NWK_BROADCAST_ADDR == header->nwkDstAddr)
    1ffe:	d5 01       	movw	r26, r10
    2000:	1f 96       	adiw	r26, 0x0f	; 15
    2002:	8d 91       	ld	r24, X+
    2004:	9c 91       	ld	r25, X
    2006:	50 97       	sbiw	r26, 0x10	; 16
    2008:	f4 01       	movw	r30, r8
    200a:	20 81       	ld	r18, Z
    200c:	31 81       	ldd	r19, Z+1	; 0x01
    200e:	28 17       	cp	r18, r24
    2010:	39 07       	cpc	r19, r25
    2012:	19 f0       	breq	.+6      	; 0x201a <nwkRxTaskHandler+0x22e>
    2014:	01 96       	adiw	r24, 0x01	; 1
    2016:	09 f0       	breq	.+2      	; 0x201a <nwkRxTaskHandler+0x22e>
    2018:	e0 c0       	rjmp	.+448    	; 0x21da <nwkRxTaskHandler+0x3ee>
    {
    #ifdef NWK_ENABLE_SECURITY
      if (header->nwkFcf.security)
    201a:	d5 01       	movw	r26, r10
    201c:	1b 96       	adiw	r26, 0x0b	; 11
    201e:	8c 91       	ld	r24, X
    2020:	1b 97       	sbiw	r26, 0x0b	; 11
    2022:	81 ff       	sbrs	r24, 1
    2024:	03 c0       	rjmp	.+6      	; 0x202c <nwkRxTaskHandler+0x240>
        frame->state = NWK_RX_STATE_DECRYPT;
    2026:	81 e2       	ldi	r24, 0x21	; 33
    2028:	8c 93       	st	X, r24
    202a:	d7 c0       	rjmp	.+430    	; 0x21da <nwkRxTaskHandler+0x3ee>
      else
    #endif
        frame->state = NWK_RX_STATE_INDICATE;
    202c:	22 e2       	ldi	r18, 0x22	; 34
    202e:	f5 01       	movw	r30, r10
    2030:	20 83       	st	Z, r18
    2032:	d3 c0       	rjmp	.+422    	; 0x21da <nwkRxTaskHandler+0x3ee>
      } break;

#ifdef NWK_ENABLE_SECURITY
      case NWK_RX_STATE_DECRYPT:
      {
        nwkSecurityProcess(frame, false);
    2034:	60 e0       	ldi	r22, 0x00	; 0
    2036:	c5 01       	movw	r24, r10
    2038:	17 d1       	rcall	.+558    	; 0x2268 <nwkSecurityProcess>
      } break;
    203a:	cf c0       	rjmp	.+414    	; 0x21da <nwkRxTaskHandler+0x3ee>
*****************************************************************************/
static void nwkRxHandleIndication(NwkFrame_t *frame)
{
  bool ack;

  nwkRxAckControl = 0;
    203c:	10 92 a9 1e 	sts	0x1EA9, r1
static bool nwkRxIndicateFrame(NwkFrame_t *frame)
{
  NwkFrameHeader_t *header = &frame->header;
  NWK_DataInd_t ind;

  if (NULL == nwkIb.endpoint[header->nwkDstEndpoint])
    2040:	d5 01       	movw	r26, r10
    2042:	51 96       	adiw	r26, 0x11	; 17
    2044:	2c 91       	ld	r18, X
    2046:	51 97       	sbiw	r26, 0x11	; 17
    2048:	22 95       	swap	r18
    204a:	2f 70       	andi	r18, 0x0F	; 15
    204c:	e2 2f       	mov	r30, r18
    204e:	f0 e0       	ldi	r31, 0x00	; 0
    2050:	ee 0f       	add	r30, r30
    2052:	ff 1f       	adc	r31, r31
    2054:	e9 5d       	subi	r30, 0xD9	; 217
    2056:	fe 4d       	sbci	r31, 0xDE	; 222
    2058:	01 90       	ld	r0, Z+
    205a:	f0 81       	ld	r31, Z
    205c:	e0 2d       	mov	r30, r0
    205e:	30 97       	sbiw	r30, 0x00	; 0
    2060:	09 f4       	brne	.+2      	; 0x2064 <nwkRxTaskHandler+0x278>
    2062:	62 c0       	rjmp	.+196    	; 0x2128 <nwkRxTaskHandler+0x33c>
    return false;

  ind.srcAddr = header->nwkSrcAddr;
    2064:	1d 96       	adiw	r26, 0x0d	; 13
    2066:	8d 91       	ld	r24, X+
    2068:	9c 91       	ld	r25, X
    206a:	1e 97       	sbiw	r26, 0x0e	; 14
    206c:	9a 83       	std	Y+2, r25	; 0x02
    206e:	89 83       	std	Y+1, r24	; 0x01
  ind.dstAddr = header->nwkDstAddr;
    2070:	1f 96       	adiw	r26, 0x0f	; 15
    2072:	4d 91       	ld	r20, X+
    2074:	5c 91       	ld	r21, X
    2076:	50 97       	sbiw	r26, 0x10	; 16
    2078:	5c 83       	std	Y+4, r21	; 0x04
    207a:	4b 83       	std	Y+3, r20	; 0x03
  ind.srcEndpoint = header->nwkSrcEndpoint;
    207c:	51 96       	adiw	r26, 0x11	; 17
    207e:	3c 91       	ld	r19, X
    2080:	51 97       	sbiw	r26, 0x11	; 17
    2082:	3f 70       	andi	r19, 0x0F	; 15
    2084:	3d 83       	std	Y+5, r19	; 0x05
  ind.dstEndpoint = header->nwkDstEndpoint;
    2086:	2e 83       	std	Y+6, r18	; 0x06
  ind.data = frame->payload;
    2088:	af 57       	subi	r26, 0x7F	; 127
    208a:	bf 4f       	sbci	r27, 0xFF	; 255
    208c:	6d 91       	ld	r22, X+
    208e:	7c 91       	ld	r23, X
    2090:	79 87       	std	Y+9, r23	; 0x09
    2092:	68 87       	std	Y+8, r22	; 0x08

/*************************************************************************//**
*****************************************************************************/
static inline uint8_t nwkFramePayloadSize(NwkFrame_t *frame)
{
  return frame->size - (frame->payload - frame->data);
    2094:	95 01       	movw	r18, r10
    2096:	2e 5f       	subi	r18, 0xFE	; 254
    2098:	3f 4f       	sbci	r19, 0xFF	; 255
    209a:	26 1b       	sub	r18, r22
    209c:	37 0b       	sbc	r19, r23
    209e:	d5 01       	movw	r26, r10
    20a0:	11 96       	adiw	r26, 0x01	; 1
    20a2:	3c 91       	ld	r19, X
    20a4:	11 97       	sbiw	r26, 0x01	; 1
    20a6:	23 0f       	add	r18, r19
  ind.size = nwkFramePayloadSize(frame);
    20a8:	2a 87       	std	Y+10, r18	; 0x0a
  ind.lqi = frame->rx.lqi;
    20aa:	ad 57       	subi	r26, 0x7D	; 125
    20ac:	bf 4f       	sbci	r27, 0xFF	; 255
    20ae:	2c 91       	ld	r18, X
    20b0:	2b 87       	std	Y+11, r18	; 0x0b
  ind.rssi = frame->rx.rssi;
    20b2:	11 96       	adiw	r26, 0x01	; 1
    20b4:	2c 91       	ld	r18, X
    20b6:	2c 87       	std	Y+12, r18	; 0x0c

  ind.options  = (header->nwkFcf.ackRequest) ? NWK_IND_OPT_ACK_REQUESTED : 0;
    20b8:	d5 01       	movw	r26, r10
    20ba:	1b 96       	adiw	r26, 0x0b	; 11
    20bc:	2c 91       	ld	r18, X
  ind.options |= (header->nwkFcf.security) ? NWK_IND_OPT_SECURED : 0;
    20be:	62 2f       	mov	r22, r18
    20c0:	63 70       	andi	r22, 0x03	; 3
  ind.options |= (header->nwkFcf.linkLocal) ? NWK_IND_OPT_LINK_LOCAL : 0;
    20c2:	22 fd       	sbrc	r18, 2
    20c4:	02 c0       	rjmp	.+4      	; 0x20ca <nwkRxTaskHandler+0x2de>
    20c6:	30 e0       	ldi	r19, 0x00	; 0
    20c8:	01 c0       	rjmp	.+2      	; 0x20cc <nwkRxTaskHandler+0x2e0>
    20ca:	30 e2       	ldi	r19, 0x20	; 32
    20cc:	63 2b       	or	r22, r19
  ind.options |= (header->nwkFcf.multicast) ? NWK_IND_OPT_MULTICAST : 0;
    20ce:	23 fd       	sbrc	r18, 3
    20d0:	02 c0       	rjmp	.+4      	; 0x20d6 <nwkRxTaskHandler+0x2ea>
    20d2:	30 e0       	ldi	r19, 0x00	; 0
    20d4:	01 c0       	rjmp	.+2      	; 0x20d8 <nwkRxTaskHandler+0x2ec>
    20d6:	30 e4       	ldi	r19, 0x40	; 64
    20d8:	26 2f       	mov	r18, r22
    20da:	23 2b       	or	r18, r19
  ind.options |= (NWK_BROADCAST_ADDR == header->nwkDstAddr) ? NWK_IND_OPT_BROADCAST : 0;
    20dc:	4f 3f       	cpi	r20, 0xFF	; 255
    20de:	5f 4f       	sbci	r21, 0xFF	; 255
    20e0:	11 f0       	breq	.+4      	; 0x20e6 <nwkRxTaskHandler+0x2fa>
    20e2:	30 e0       	ldi	r19, 0x00	; 0
    20e4:	01 c0       	rjmp	.+2      	; 0x20e8 <nwkRxTaskHandler+0x2fc>
    20e6:	34 e0       	ldi	r19, 0x04	; 4
    20e8:	23 2b       	or	r18, r19
  ind.options |= (header->nwkSrcAddr == header->macSrcAddr) ? NWK_IND_OPT_LOCAL : 0;
    20ea:	d5 01       	movw	r26, r10
    20ec:	19 96       	adiw	r26, 0x09	; 9
    20ee:	4d 91       	ld	r20, X+
    20f0:	5c 91       	ld	r21, X
    20f2:	1a 97       	sbiw	r26, 0x0a	; 10
    20f4:	84 17       	cp	r24, r20
    20f6:	95 07       	cpc	r25, r21
    20f8:	11 f0       	breq	.+4      	; 0x20fe <nwkRxTaskHandler+0x312>
    20fa:	90 e0       	ldi	r25, 0x00	; 0
    20fc:	01 c0       	rjmp	.+2      	; 0x2100 <nwkRxTaskHandler+0x314>
    20fe:	98 e0       	ldi	r25, 0x08	; 8
    2100:	82 2f       	mov	r24, r18
    2102:	89 2b       	or	r24, r25
    2104:	8f 83       	std	Y+7, r24	; 0x07
  ind.options |= (NWK_BROADCAST_PANID == header->macDstPanId) ? NWK_IND_OPT_BROADCAST_PAN_ID : 0;
    2106:	d5 01       	movw	r26, r10
    2108:	15 96       	adiw	r26, 0x05	; 5
    210a:	2d 91       	ld	r18, X+
    210c:	3c 91       	ld	r19, X
    210e:	16 97       	sbiw	r26, 0x06	; 6
    2110:	2f 3f       	cpi	r18, 0xFF	; 255
    2112:	3f 4f       	sbci	r19, 0xFF	; 255
    2114:	11 f0       	breq	.+4      	; 0x211a <nwkRxTaskHandler+0x32e>
    2116:	90 e0       	ldi	r25, 0x00	; 0
    2118:	01 c0       	rjmp	.+2      	; 0x211c <nwkRxTaskHandler+0x330>
    211a:	90 e1       	ldi	r25, 0x10	; 16
    211c:	89 2b       	or	r24, r25
    211e:	8f 83       	std	Y+7, r24	; 0x07

  return nwkIb.endpoint[header->nwkDstEndpoint](&ind);
    2120:	ce 01       	movw	r24, r28
    2122:	01 96       	adiw	r24, 0x01	; 1
    2124:	19 95       	eicall
    2126:	01 c0       	rjmp	.+2      	; 0x212a <nwkRxTaskHandler+0x33e>
{
  NwkFrameHeader_t *header = &frame->header;
  NWK_DataInd_t ind;

  if (NULL == nwkIb.endpoint[header->nwkDstEndpoint])
    return false;
    2128:	80 e0       	ldi	r24, 0x00	; 0
  bool ack;

  nwkRxAckControl = 0;
  ack = nwkRxIndicateFrame(frame);
  
  if (0 == frame->header.nwkFcf.ackRequest)
    212a:	f5 01       	movw	r30, r10
    212c:	93 85       	ldd	r25, Z+11	; 0x0b
    212e:	90 ff       	sbrs	r25, 0
    ack = false;
    2130:	80 e0       	ldi	r24, 0x00	; 0

  if (NWK_BROADCAST_ADDR == frame->header.macDstAddr &&
    2132:	d5 01       	movw	r26, r10
    2134:	17 96       	adiw	r26, 0x07	; 7
    2136:	2d 91       	ld	r18, X+
    2138:	3c 91       	ld	r19, X
    213a:	18 97       	sbiw	r26, 0x08	; 8
    213c:	2f 3f       	cpi	r18, 0xFF	; 255
    213e:	3f 4f       	sbci	r19, 0xFF	; 255
    2140:	69 f4       	brne	.+26     	; 0x215c <nwkRxTaskHandler+0x370>
    2142:	f4 01       	movw	r30, r8
    2144:	40 81       	ld	r20, Z
    2146:	51 81       	ldd	r21, Z+1	; 0x01
    2148:	d5 01       	movw	r26, r10
    214a:	1f 96       	adiw	r26, 0x0f	; 15
    214c:	2d 91       	ld	r18, X+
    214e:	3c 91       	ld	r19, X
    2150:	50 97       	sbiw	r26, 0x10	; 16
    2152:	42 17       	cp	r20, r18
    2154:	53 07       	cpc	r21, r19
    2156:	11 f4       	brne	.+4      	; 0x215c <nwkRxTaskHandler+0x370>
      nwkIb.addr == frame->header.nwkDstAddr &&
    2158:	93 ff       	sbrs	r25, 3
      0 == frame->header.nwkFcf.multicast)
    ack = true;
    215a:	8c 2d       	mov	r24, r12

  if (NWK_BROADCAST_PANID == frame->header.macDstPanId)
    215c:	f5 01       	movw	r30, r10
    215e:	25 81       	ldd	r18, Z+5	; 0x05
    2160:	36 81       	ldd	r19, Z+6	; 0x06
    2162:	2f 3f       	cpi	r18, 0xFF	; 255
    2164:	3f 4f       	sbci	r19, 0xFF	; 255
    2166:	a1 f1       	breq	.+104    	; 0x21d0 <nwkRxTaskHandler+0x3e4>
    ack = false;

  if (NWK_BROADCAST_ADDR == nwkIb.addr)
    2168:	d4 01       	movw	r26, r8
    216a:	2d 91       	ld	r18, X+
    216c:	3c 91       	ld	r19, X
    216e:	2f 3f       	cpi	r18, 0xFF	; 255
    2170:	3f 4f       	sbci	r19, 0xFF	; 255
    2172:	71 f1       	breq	.+92     	; 0x21d0 <nwkRxTaskHandler+0x3e4>
    ack = false;

  if (ack)
    2174:	88 23       	and	r24, r24
    2176:	61 f1       	breq	.+88     	; 0x21d0 <nwkRxTaskHandler+0x3e4>
static void nwkRxSendAck(NwkFrame_t *frame)
{
  NwkFrame_t *ack;
  NwkCommandAck_t *command;

  if (NULL == (ack = nwkFrameAlloc()))
    2178:	44 dd       	rcall	.-1400   	; 0x1c02 <nwkFrameAlloc>
    217a:	8c 01       	movw	r16, r24
    217c:	00 97       	sbiw	r24, 0x00	; 0
    217e:	41 f1       	breq	.+80     	; 0x21d0 <nwkRxTaskHandler+0x3e4>
    return;

  nwkFrameCommandInit(ack);
    2180:	a5 dd       	rcall	.-1206   	; 0x1ccc <nwkFrameCommandInit>

  ack->size += sizeof(NwkCommandAck_t);
    2182:	f8 01       	movw	r30, r16
    2184:	81 81       	ldd	r24, Z+1	; 0x01
    2186:	8d 5f       	subi	r24, 0xFD	; 253
    2188:	81 83       	std	Z+1, r24	; 0x01
  ack->tx.confirm = NULL;
    218a:	e9 57       	subi	r30, 0x79	; 121
    218c:	ff 4f       	sbci	r31, 0xFF	; 255
    218e:	11 82       	std	Z+1, r1	; 0x01
    2190:	10 82       	st	Z, r1

  ack->header.nwkFcf.security = frame->header.nwkFcf.security;
    2192:	d5 01       	movw	r26, r10
    2194:	1b 96       	adiw	r26, 0x0b	; 11
    2196:	8c 91       	ld	r24, X
    2198:	1b 97       	sbiw	r26, 0x0b	; 11
    219a:	86 95       	lsr	r24
    219c:	81 70       	andi	r24, 0x01	; 1
    219e:	f8 01       	movw	r30, r16
    21a0:	93 85       	ldd	r25, Z+11	; 0x0b
    21a2:	80 fb       	bst	r24, 0
    21a4:	91 f9       	bld	r25, 1
    21a6:	93 87       	std	Z+11, r25	; 0x0b
  ack->header.nwkDstAddr = frame->header.nwkSrcAddr;
    21a8:	1d 96       	adiw	r26, 0x0d	; 13
    21aa:	8d 91       	ld	r24, X+
    21ac:	9c 91       	ld	r25, X
    21ae:	1e 97       	sbiw	r26, 0x0e	; 14
    21b0:	90 8b       	std	Z+16, r25	; 0x10
    21b2:	87 87       	std	Z+15, r24	; 0x0f

  command = (NwkCommandAck_t *)ack->payload;
    21b4:	ef 57       	subi	r30, 0x7F	; 127
    21b6:	ff 4f       	sbci	r31, 0xFF	; 255
    21b8:	01 90       	ld	r0, Z+
    21ba:	f0 81       	ld	r31, Z
    21bc:	e0 2d       	mov	r30, r0
  command->id = NWK_COMMAND_ACK;
    21be:	10 82       	st	Z, r1
  command->control = nwkRxAckControl;
    21c0:	80 91 a9 1e 	lds	r24, 0x1EA9
    21c4:	82 83       	std	Z+2, r24	; 0x02
  command->seq = frame->header.nwkSeq;
    21c6:	1c 96       	adiw	r26, 0x0c	; 12
    21c8:	8c 91       	ld	r24, X
    21ca:	81 83       	std	Z+1, r24	; 0x01

  nwkTxFrame(ack);
    21cc:	c8 01       	movw	r24, r16
    21ce:	09 d2       	rcall	.+1042   	; 0x25e2 <nwkTxFrame>
    ack = false;

  if (ack)
    nwkRxSendAck(frame);

  frame->state = NWK_RX_STATE_FINISH;
    21d0:	d5 01       	movw	r26, r10
    21d2:	dc 92       	st	X, r13
    21d4:	02 c0       	rjmp	.+4      	; 0x21da <nwkRxTaskHandler+0x3ee>
      } break;
#endif

      case NWK_RX_STATE_FINISH:
      {
        nwkFrameFree(frame);
    21d6:	c5 01       	movw	r24, r10
    21d8:	4d dd       	rcall	.-1382   	; 0x1c74 <nwkFrameFree>
*****************************************************************************/
void nwkRxTaskHandler(void)
{
  NwkFrame_t *frame = NULL;

  while (NULL != (frame = nwkFrameNext(frame)))
    21da:	c5 01       	movw	r24, r10
    21dc:	55 dd       	rcall	.-1366   	; 0x1c88 <nwkFrameNext>
    21de:	5c 01       	movw	r10, r24
    21e0:	89 2b       	or	r24, r25
    21e2:	09 f0       	breq	.+2      	; 0x21e6 <nwkRxTaskHandler+0x3fa>
    21e4:	41 ce       	rjmp	.-894    	; 0x1e68 <nwkRxTaskHandler+0x7c>
    21e6:	17 c0       	rjmp	.+46     	; 0x2216 <nwkRxTaskHandler+0x42a>
#endif

  if (NWK_BROADCAST_ADDR == header->nwkDstAddr && header->nwkFcf.ackRequest)
    return;

  if (nwkIb.addr == header->nwkSrcAddr)
    21e8:	f5 01       	movw	r30, r10
    21ea:	45 85       	ldd	r20, Z+13	; 0x0d
    21ec:	56 85       	ldd	r21, Z+14	; 0x0e
    21ee:	d4 01       	movw	r26, r8
    21f0:	8d 91       	ld	r24, X+
    21f2:	9c 91       	ld	r25, X
    21f4:	84 17       	cp	r24, r20
    21f6:	95 07       	cpc	r25, r21
    21f8:	81 f3       	breq	.-32     	; 0x21da <nwkRxTaskHandler+0x3ee>
    21fa:	d2 01       	movw	r26, r4
    21fc:	f3 01       	movw	r30, r6
    21fe:	83 2d       	mov	r24, r3
    2200:	92 2d       	mov	r25, r2
    2202:	63 2d       	mov	r22, r3
    2204:	72 2d       	mov	r23, r2
    2206:	6f ce       	rjmp	.-802    	; 0x1ee6 <nwkRxTaskHandler+0xfa>
    }
  }
  else
#endif // NWK_ENABLE_MULTICAST
  {
    if (NWK_BROADCAST_ADDR == header->macDstAddr && nwkIb.addr != header->nwkDstAddr &&
    2208:	f5 01       	movw	r30, r10
    220a:	87 81       	ldd	r24, Z+7	; 0x07
    220c:	90 85       	ldd	r25, Z+8	; 0x08
    220e:	01 96       	adiw	r24, 0x01	; 1
    2210:	09 f0       	breq	.+2      	; 0x2214 <nwkRxTaskHandler+0x428>
    2212:	f5 ce       	rjmp	.-534    	; 0x1ffe <nwkRxTaskHandler+0x212>
    2214:	e3 ce       	rjmp	.-570    	; 0x1fdc <nwkRxTaskHandler+0x1f0>
      {
        nwkFrameFree(frame);
      } break;
    }
  }
}
    2216:	2c 96       	adiw	r28, 0x0c	; 12
    2218:	0f b6       	in	r0, 0x3f	; 63
    221a:	f8 94       	cli
    221c:	de bf       	out	0x3e, r29	; 62
    221e:	0f be       	out	0x3f, r0	; 63
    2220:	cd bf       	out	0x3d, r28	; 61
    2222:	df 91       	pop	r29
    2224:	cf 91       	pop	r28
    2226:	1f 91       	pop	r17
    2228:	0f 91       	pop	r16
    222a:	ff 90       	pop	r15
    222c:	ef 90       	pop	r14
    222e:	df 90       	pop	r13
    2230:	cf 90       	pop	r12
    2232:	bf 90       	pop	r11
    2234:	af 90       	pop	r10
    2236:	9f 90       	pop	r9
    2238:	8f 90       	pop	r8
    223a:	7f 90       	pop	r7
    223c:	6f 90       	pop	r6
    223e:	5f 90       	pop	r5
    2240:	4f 90       	pop	r4
    2242:	3f 90       	pop	r3
    2244:	2f 90       	pop	r2
    2246:	08 95       	ret

00002248 <nwkSecurityInit>:
/*************************************************************************//**
  @brief Initializes the Security module
*****************************************************************************/
void nwkSecurityInit(void)
{
  nwkSecurityActiveFrames = 0;
    2248:	10 92 f1 1e 	sts	0x1EF1, r1
  nwkSecurityActiveFrame = NULL;
    224c:	10 92 f0 1e 	sts	0x1EF0, r1
    2250:	10 92 ef 1e 	sts	0x1EEF, r1
    2254:	08 95       	ret

00002256 <NWK_SetSecurityKey>:
}

/*************************************************************************//**
*****************************************************************************/
void NWK_SetSecurityKey(uint8_t *key)
{
    2256:	fc 01       	movw	r30, r24
  memcpy((uint8_t *)nwkIb.key, key, NWK_SECURITY_KEY_SIZE);
    2258:	90 e1       	ldi	r25, 0x10	; 16
    225a:	a7 e4       	ldi	r26, 0x47	; 71
    225c:	b1 e2       	ldi	r27, 0x21	; 33
    225e:	01 90       	ld	r0, Z+
    2260:	0d 92       	st	X+, r0
    2262:	9a 95       	dec	r25
    2264:	e1 f7       	brne	.-8      	; 0x225e <NWK_SetSecurityKey+0x8>
    2266:	08 95       	ret

00002268 <nwkSecurityProcess>:

/*************************************************************************//**
*****************************************************************************/
void nwkSecurityProcess(NwkFrame_t *frame, bool encrypt)
{
  if (encrypt)
    2268:	66 23       	and	r22, r22
    226a:	21 f0       	breq	.+8      	; 0x2274 <nwkSecurityProcess+0xc>
    frame->state = NWK_SECURITY_STATE_ENCRYPT_PENDING;
    226c:	20 e3       	ldi	r18, 0x30	; 48
    226e:	fc 01       	movw	r30, r24
    2270:	20 83       	st	Z, r18
    2272:	03 c0       	rjmp	.+6      	; 0x227a <nwkSecurityProcess+0x12>
  else
    frame->state = NWK_SECURITY_STATE_DECRYPT_PENDING;
    2274:	21 e3       	ldi	r18, 0x31	; 49
    2276:	fc 01       	movw	r30, r24
    2278:	20 83       	st	Z, r18
  ++nwkSecurityActiveFrames;
    227a:	80 91 f1 1e 	lds	r24, 0x1EF1
    227e:	8f 5f       	subi	r24, 0xFF	; 255
    2280:	80 93 f1 1e 	sts	0x1EF1, r24
    2284:	08 95       	ret

00002286 <SYS_EncryptConf>:
}

/*************************************************************************//**
*****************************************************************************/
void SYS_EncryptConf(void)
{
    2286:	cf 93       	push	r28
    2288:	df 93       	push	r29
  uint8_t *vector = (uint8_t *)nwkSecurityVector;
  uint8_t *text = &nwkSecurityActiveFrame->payload[nwkSecurityOffset];
    228a:	c0 91 ef 1e 	lds	r28, 0x1EEF
    228e:	d0 91 f0 1e 	lds	r29, 0x1EF0
    2292:	fe 01       	movw	r30, r28
    2294:	ef 57       	subi	r30, 0x7F	; 127
    2296:	ff 4f       	sbci	r31, 0xFF	; 255
    2298:	a0 81       	ld	r26, Z
    229a:	b1 81       	ldd	r27, Z+1	; 0x01
    229c:	70 91 ed 1e 	lds	r23, 0x1EED
    22a0:	87 2f       	mov	r24, r23
    22a2:	90 e0       	ldi	r25, 0x00	; 0
  uint8_t block;

  block = (nwkSecuritySize < NWK_SECURITY_BLOCK_SIZE) ? nwkSecuritySize : NWK_SECURITY_BLOCK_SIZE;
    22a4:	60 91 ee 1e 	lds	r22, 0x1EEE
    22a8:	26 2f       	mov	r18, r22
    22aa:	61 31       	cpi	r22, 0x11	; 17
    22ac:	08 f0       	brcs	.+2      	; 0x22b0 <SYS_EncryptConf+0x2a>
    22ae:	20 e1       	ldi	r18, 0x10	; 16

  for (uint8_t i = 0; i < block; i++)
    22b0:	22 23       	and	r18, r18
    22b2:	b9 f0       	breq	.+46     	; 0x22e2 <SYS_EncryptConf+0x5c>
  {
    text[i] ^= vector[i];

    if (nwkSecurityEncrypt)
    22b4:	30 91 ec 1e 	lds	r19, 0x1EEC
    22b8:	4c ed       	ldi	r20, 0xDC	; 220
    22ba:	5e e1       	ldi	r21, 0x1E	; 30
    22bc:	a8 0f       	add	r26, r24
    22be:	b9 1f       	adc	r27, r25
    22c0:	fa 01       	movw	r30, r20

  block = (nwkSecuritySize < NWK_SECURITY_BLOCK_SIZE) ? nwkSecuritySize : NWK_SECURITY_BLOCK_SIZE;

  for (uint8_t i = 0; i < block; i++)
  {
    text[i] ^= vector[i];
    22c2:	90 81       	ld	r25, Z
    22c4:	8c 91       	ld	r24, X
    22c6:	89 27       	eor	r24, r25
    22c8:	8d 93       	st	X+, r24

    if (nwkSecurityEncrypt)
    22ca:	33 23       	and	r19, r19
    22cc:	11 f0       	breq	.+4      	; 0x22d2 <SYS_EncryptConf+0x4c>
      vector[i] = text[i];
    22ce:	80 83       	st	Z, r24
    22d0:	03 c0       	rjmp	.+6      	; 0x22d8 <SYS_EncryptConf+0x52>
    else
      vector[i] ^= text[i];
    22d2:	90 81       	ld	r25, Z
    22d4:	89 27       	eor	r24, r25
    22d6:	80 83       	st	Z, r24
    22d8:	31 96       	adiw	r30, 0x01	; 1
    22da:	8e 2f       	mov	r24, r30
    22dc:	84 1b       	sub	r24, r20
  uint8_t *text = &nwkSecurityActiveFrame->payload[nwkSecurityOffset];
  uint8_t block;

  block = (nwkSecuritySize < NWK_SECURITY_BLOCK_SIZE) ? nwkSecuritySize : NWK_SECURITY_BLOCK_SIZE;

  for (uint8_t i = 0; i < block; i++)
    22de:	82 17       	cp	r24, r18
    22e0:	80 f3       	brcs	.-32     	; 0x22c2 <SYS_EncryptConf+0x3c>
      vector[i] = text[i];
    else
      vector[i] ^= text[i];
  }

  nwkSecurityOffset += block;
    22e2:	72 0f       	add	r23, r18
    22e4:	70 93 ed 1e 	sts	0x1EED, r23
  nwkSecuritySize -= block;
    22e8:	62 1b       	sub	r22, r18
    22ea:	60 93 ee 1e 	sts	0x1EEE, r22

  if (nwkSecuritySize > 0)
    22ee:	66 23       	and	r22, r22
    22f0:	19 f0       	breq	.+6      	; 0x22f8 <SYS_EncryptConf+0x72>
    nwkSecurityActiveFrame->state = NWK_SECURITY_STATE_PROCESS;
    22f2:	82 e3       	ldi	r24, 0x32	; 50
    22f4:	88 83       	st	Y, r24
    22f6:	02 c0       	rjmp	.+4      	; 0x22fc <SYS_EncryptConf+0x76>
  else
    nwkSecurityActiveFrame->state = NWK_SECURITY_STATE_CONFIRM;
    22f8:	84 e3       	ldi	r24, 0x34	; 52
    22fa:	88 83       	st	Y, r24
}
    22fc:	df 91       	pop	r29
    22fe:	cf 91       	pop	r28
    2300:	08 95       	ret

00002302 <nwkSecurityTaskHandler>:

/*************************************************************************//**
  @brief Security Module task handler
*****************************************************************************/
void nwkSecurityTaskHandler(void)
{
    2302:	0f 93       	push	r16
    2304:	1f 93       	push	r17
    2306:	cf 93       	push	r28
    2308:	df 93       	push	r29
  NwkFrame_t *frame = NULL;

  if (0 == nwkSecurityActiveFrames)
    230a:	80 91 f1 1e 	lds	r24, 0x1EF1
    230e:	88 23       	and	r24, r24
    2310:	09 f4       	brne	.+2      	; 0x2314 <nwkSecurityTaskHandler+0x12>
    2312:	e1 c0       	rjmp	.+450    	; 0x24d6 <nwkSecurityTaskHandler+0x1d4>
    return;

  if (nwkSecurityActiveFrame)
    2314:	e0 91 ef 1e 	lds	r30, 0x1EEF
    2318:	f0 91 f0 1e 	lds	r31, 0x1EF0
    231c:	30 97       	sbiw	r30, 0x00	; 0
    231e:	09 f4       	brne	.+2      	; 0x2322 <nwkSecurityTaskHandler+0x20>
    2320:	d4 c0       	rjmp	.+424    	; 0x24ca <nwkSecurityTaskHandler+0x1c8>
  {
    if (NWK_SECURITY_STATE_CONFIRM == nwkSecurityActiveFrame->state)
    2322:	80 81       	ld	r24, Z
    2324:	84 33       	cpi	r24, 0x34	; 52
    2326:	09 f0       	breq	.+2      	; 0x232a <nwkSecurityTaskHandler+0x28>
    2328:	54 c0       	rjmp	.+168    	; 0x23d2 <nwkSecurityTaskHandler+0xd0>

/*************************************************************************//**
*****************************************************************************/
static bool nwkSecurityProcessMic(void)
{
  uint8_t *mic = &nwkSecurityActiveFrame->payload[nwkSecurityOffset];
    232a:	80 91 ed 1e 	lds	r24, 0x1EED
    232e:	df 01       	movw	r26, r30
    2330:	af 57       	subi	r26, 0x7F	; 127
    2332:	bf 4f       	sbci	r27, 0xFF	; 255
    2334:	cd 91       	ld	r28, X+
    2336:	dc 91       	ld	r29, X
    2338:	c8 0f       	add	r28, r24
    233a:	d1 1d       	adc	r29, r1
  uint32_t vmic = nwkSecurityVector[0] ^ nwkSecurityVector[1] ^
    233c:	ac ed       	ldi	r26, 0xDC	; 220
    233e:	be e1       	ldi	r27, 0x1E	; 30
    2340:	14 96       	adiw	r26, 0x04	; 4
    2342:	0d 91       	ld	r16, X+
    2344:	1d 91       	ld	r17, X+
    2346:	2d 91       	ld	r18, X+
    2348:	3c 91       	ld	r19, X
    234a:	17 97       	sbiw	r26, 0x07	; 7
    234c:	4d 91       	ld	r20, X+
    234e:	5d 91       	ld	r21, X+
    2350:	6d 91       	ld	r22, X+
    2352:	7c 91       	ld	r23, X
    2354:	13 97       	sbiw	r26, 0x03	; 3
    2356:	40 27       	eor	r20, r16
    2358:	51 27       	eor	r21, r17
    235a:	62 27       	eor	r22, r18
    235c:	73 27       	eor	r23, r19
    235e:	18 96       	adiw	r26, 0x08	; 8
    2360:	0d 91       	ld	r16, X+
    2362:	1d 91       	ld	r17, X+
    2364:	2d 91       	ld	r18, X+
    2366:	3c 91       	ld	r19, X
    2368:	1b 97       	sbiw	r26, 0x0b	; 11
    236a:	40 27       	eor	r20, r16
    236c:	51 27       	eor	r21, r17
    236e:	62 27       	eor	r22, r18
    2370:	73 27       	eor	r23, r19
                  nwkSecurityVector[2] ^ nwkSecurityVector[3];
    2372:	1c 96       	adiw	r26, 0x0c	; 12
    2374:	8d 91       	ld	r24, X+
    2376:	9d 91       	ld	r25, X+
    2378:	0d 90       	ld	r0, X+
    237a:	bc 91       	ld	r27, X
    237c:	a0 2d       	mov	r26, r0
    237e:	48 27       	eor	r20, r24
    2380:	59 27       	eor	r21, r25
    2382:	6a 27       	eor	r22, r26
    2384:	7b 27       	eor	r23, r27
  uint32_t tmic;

  if (nwkSecurityEncrypt)
    2386:	80 91 ec 1e 	lds	r24, 0x1EEC
    238a:	88 23       	and	r24, r24
    238c:	51 f0       	breq	.+20     	; 0x23a2 <nwkSecurityTaskHandler+0xa0>
  {
    memcpy(mic, (uint8_t *)&vmic, NWK_SECURITY_MIC_SIZE);
    238e:	48 83       	st	Y, r20
    2390:	59 83       	std	Y+1, r21	; 0x01
    2392:	6a 83       	std	Y+2, r22	; 0x02
    2394:	7b 83       	std	Y+3, r23	; 0x03
    nwkSecurityActiveFrame->size += NWK_SECURITY_MIC_SIZE;
    2396:	81 81       	ldd	r24, Z+1	; 0x01
    2398:	8c 5f       	subi	r24, 0xFC	; 252
    239a:	81 83       	std	Z+1, r24	; 0x01
    if (NWK_SECURITY_STATE_CONFIRM == nwkSecurityActiveFrame->state)
    {
      bool micStatus = nwkSecurityProcessMic();

      if (nwkSecurityEncrypt)
        nwkTxEncryptConf(nwkSecurityActiveFrame);
    239c:	cf 01       	movw	r24, r30
    239e:	df d1       	rcall	.+958    	; 0x275e <nwkTxEncryptConf>
    23a0:	0e c0       	rjmp	.+28     	; 0x23be <nwkSecurityTaskHandler+0xbc>
    return true;
  }
  else
  {
    memcpy((uint8_t *)&tmic, mic, NWK_SECURITY_MIC_SIZE);
    return vmic == tmic;
    23a2:	81 e0       	ldi	r24, 0x01	; 1
    23a4:	08 81       	ld	r16, Y
    23a6:	19 81       	ldd	r17, Y+1	; 0x01
    23a8:	2a 81       	ldd	r18, Y+2	; 0x02
    23aa:	3b 81       	ldd	r19, Y+3	; 0x03
    23ac:	40 17       	cp	r20, r16
    23ae:	51 07       	cpc	r21, r17
    23b0:	62 07       	cpc	r22, r18
    23b2:	73 07       	cpc	r23, r19
    23b4:	09 f0       	breq	.+2      	; 0x23b8 <nwkSecurityTaskHandler+0xb6>
    23b6:	80 e0       	ldi	r24, 0x00	; 0
      bool micStatus = nwkSecurityProcessMic();

      if (nwkSecurityEncrypt)
        nwkTxEncryptConf(nwkSecurityActiveFrame);
      else
        nwkRxDecryptConf(nwkSecurityActiveFrame, micStatus);
    23b8:	68 2f       	mov	r22, r24
    23ba:	cf 01       	movw	r24, r30
    23bc:	0d dd       	rcall	.-1510   	; 0x1dd8 <nwkRxDecryptConf>

      nwkSecurityActiveFrame = NULL;
    23be:	10 92 f0 1e 	sts	0x1EF0, r1
    23c2:	10 92 ef 1e 	sts	0x1EEF, r1
      --nwkSecurityActiveFrames;
    23c6:	80 91 f1 1e 	lds	r24, 0x1EF1
    23ca:	81 50       	subi	r24, 0x01	; 1
    23cc:	80 93 f1 1e 	sts	0x1EF1, r24
    23d0:	82 c0       	rjmp	.+260    	; 0x24d6 <nwkSecurityTaskHandler+0x1d4>
    }
    else if (NWK_SECURITY_STATE_PROCESS == nwkSecurityActiveFrame->state)
    23d2:	82 33       	cpi	r24, 0x32	; 50
    23d4:	09 f0       	breq	.+2      	; 0x23d8 <nwkSecurityTaskHandler+0xd6>
    23d6:	7f c0       	rjmp	.+254    	; 0x24d6 <nwkSecurityTaskHandler+0x1d4>
    {
      nwkSecurityActiveFrame->state = NWK_SECURITY_STATE_WAIT;
    23d8:	83 e3       	ldi	r24, 0x33	; 51
    23da:	80 83       	st	Z, r24
      SYS_EncryptReq((uint8_t *)nwkSecurityVector, (uint8_t *)nwkIb.key);
    23dc:	67 e4       	ldi	r22, 0x47	; 71
    23de:	71 e2       	ldi	r23, 0x21	; 33
    23e0:	8c ed       	ldi	r24, 0xDC	; 220
    23e2:	9e e1       	ldi	r25, 0x1E	; 30
    23e4:	1a d4       	rcall	.+2100   	; 0x2c1a <SYS_EncryptReq>
    23e6:	77 c0       	rjmp	.+238    	; 0x24d6 <nwkSecurityTaskHandler+0x1d4>
    return;
  }

  while (NULL != (frame = nwkFrameNext(frame)))
  {
    if (NWK_SECURITY_STATE_ENCRYPT_PENDING == frame->state ||
    23e8:	dc 01       	movw	r26, r24
    23ea:	2c 91       	ld	r18, X
    23ec:	20 53       	subi	r18, 0x30	; 48
    23ee:	22 30       	cpi	r18, 0x02	; 2
    23f0:	08 f0       	brcs	.+2      	; 0x23f4 <nwkSecurityTaskHandler+0xf2>
    23f2:	6d c0       	rjmp	.+218    	; 0x24ce <nwkSecurityTaskHandler+0x1cc>
        NWK_SECURITY_STATE_DECRYPT_PENDING == frame->state)
    {
      nwkSecurityActiveFrame = frame;
    23f4:	90 93 f0 1e 	sts	0x1EF0, r25
    23f8:	80 93 ef 1e 	sts	0x1EEF, r24
*****************************************************************************/
static void nwkSecurityStart(void)
{
  NwkFrameHeader_t *header = &nwkSecurityActiveFrame->header;

  nwkSecurityVector[0] = header->nwkSeq;
    23fc:	ec ed       	ldi	r30, 0xDC	; 220
    23fe:	fe e1       	ldi	r31, 0x1E	; 30
    2400:	1c 96       	adiw	r26, 0x0c	; 12
    2402:	4c 91       	ld	r20, X
    2404:	1c 97       	sbiw	r26, 0x0c	; 12
    2406:	50 e0       	ldi	r21, 0x00	; 0
    2408:	60 e0       	ldi	r22, 0x00	; 0
    240a:	70 e0       	ldi	r23, 0x00	; 0
    240c:	40 83       	st	Z, r20
    240e:	51 83       	std	Z+1, r21	; 0x01
    2410:	62 83       	std	Z+2, r22	; 0x02
    2412:	73 83       	std	Z+3, r23	; 0x03
  nwkSecurityVector[1] = ((uint32_t)header->nwkDstAddr << 16) | header->nwkDstEndpoint;
    2414:	1f 96       	adiw	r26, 0x0f	; 15
    2416:	4d 91       	ld	r20, X+
    2418:	5c 91       	ld	r21, X
    241a:	50 97       	sbiw	r26, 0x10	; 16
    241c:	60 e0       	ldi	r22, 0x00	; 0
    241e:	70 e0       	ldi	r23, 0x00	; 0
    2420:	ba 01       	movw	r22, r20
    2422:	55 27       	eor	r21, r21
    2424:	44 27       	eor	r20, r20
    2426:	51 96       	adiw	r26, 0x11	; 17
    2428:	2c 91       	ld	r18, X
    242a:	51 97       	sbiw	r26, 0x11	; 17
    242c:	22 95       	swap	r18
    242e:	2f 70       	andi	r18, 0x0F	; 15
    2430:	42 2b       	or	r20, r18
    2432:	44 83       	std	Z+4, r20	; 0x04
    2434:	55 83       	std	Z+5, r21	; 0x05
    2436:	66 83       	std	Z+6, r22	; 0x06
    2438:	77 83       	std	Z+7, r23	; 0x07
  nwkSecurityVector[2] = ((uint32_t)header->nwkSrcAddr << 16) | header->nwkSrcEndpoint;
    243a:	1d 96       	adiw	r26, 0x0d	; 13
    243c:	4d 91       	ld	r20, X+
    243e:	5c 91       	ld	r21, X
    2440:	1e 97       	sbiw	r26, 0x0e	; 14
    2442:	60 e0       	ldi	r22, 0x00	; 0
    2444:	70 e0       	ldi	r23, 0x00	; 0
    2446:	ba 01       	movw	r22, r20
    2448:	55 27       	eor	r21, r21
    244a:	44 27       	eor	r20, r20
    244c:	51 96       	adiw	r26, 0x11	; 17
    244e:	2c 91       	ld	r18, X
    2450:	51 97       	sbiw	r26, 0x11	; 17
    2452:	2f 70       	andi	r18, 0x0F	; 15
    2454:	42 2b       	or	r20, r18
    2456:	40 87       	std	Z+8, r20	; 0x08
    2458:	51 87       	std	Z+9, r21	; 0x09
    245a:	62 87       	std	Z+10, r22	; 0x0a
    245c:	73 87       	std	Z+11, r23	; 0x0b
  nwkSecurityVector[3] = ((uint32_t)header->macDstPanId << 16) | *(uint8_t *)&header->nwkFcf;
    245e:	1b 96       	adiw	r26, 0x0b	; 11
    2460:	2c 91       	ld	r18, X
    2462:	1b 97       	sbiw	r26, 0x0b	; 11
    2464:	15 96       	adiw	r26, 0x05	; 5
    2466:	4d 91       	ld	r20, X+
    2468:	5c 91       	ld	r21, X
    246a:	16 97       	sbiw	r26, 0x06	; 6
    246c:	60 e0       	ldi	r22, 0x00	; 0
    246e:	70 e0       	ldi	r23, 0x00	; 0
    2470:	ba 01       	movw	r22, r20
    2472:	55 27       	eor	r21, r21
    2474:	44 27       	eor	r20, r20
    2476:	42 2b       	or	r20, r18
    2478:	44 87       	std	Z+12, r20	; 0x0c
    247a:	55 87       	std	Z+13, r21	; 0x0d
    247c:	66 87       	std	Z+14, r22	; 0x0e
    247e:	77 87       	std	Z+15, r23	; 0x0f

  if (NWK_SECURITY_STATE_DECRYPT_PENDING == nwkSecurityActiveFrame->state)
    2480:	2c 91       	ld	r18, X
    2482:	21 33       	cpi	r18, 0x31	; 49
    2484:	31 f4       	brne	.+12     	; 0x2492 <nwkSecurityTaskHandler+0x190>
    nwkSecurityActiveFrame->size -= NWK_SECURITY_MIC_SIZE;
    2486:	11 96       	adiw	r26, 0x01	; 1
    2488:	2c 91       	ld	r18, X
    248a:	11 97       	sbiw	r26, 0x01	; 1
    248c:	24 50       	subi	r18, 0x04	; 4
    248e:	11 96       	adiw	r26, 0x01	; 1
    2490:	2c 93       	st	X, r18
    2492:	fc 01       	movw	r30, r24
    2494:	ef 57       	subi	r30, 0x7F	; 127
    2496:	ff 4f       	sbci	r31, 0xFF	; 255
    2498:	40 81       	ld	r20, Z
    249a:	51 81       	ldd	r21, Z+1	; 0x01
    249c:	9c 01       	movw	r18, r24
    249e:	2e 5f       	subi	r18, 0xFE	; 254
    24a0:	3f 4f       	sbci	r19, 0xFF	; 255
    24a2:	24 1b       	sub	r18, r20
    24a4:	35 0b       	sbc	r19, r21
    24a6:	fc 01       	movw	r30, r24
    24a8:	31 81       	ldd	r19, Z+1	; 0x01
    24aa:	23 0f       	add	r18, r19

  nwkSecuritySize = nwkFramePayloadSize(nwkSecurityActiveFrame);
    24ac:	20 93 ee 1e 	sts	0x1EEE, r18
  nwkSecurityOffset = 0;
    24b0:	10 92 ed 1e 	sts	0x1EED, r1
  nwkSecurityEncrypt = (NWK_SECURITY_STATE_ENCRYPT_PENDING == nwkSecurityActiveFrame->state);
    24b4:	21 e0       	ldi	r18, 0x01	; 1
    24b6:	30 81       	ld	r19, Z
    24b8:	30 33       	cpi	r19, 0x30	; 48
    24ba:	09 f0       	breq	.+2      	; 0x24be <nwkSecurityTaskHandler+0x1bc>
    24bc:	20 e0       	ldi	r18, 0x00	; 0
    24be:	20 93 ec 1e 	sts	0x1EEC, r18

  nwkSecurityActiveFrame->state = NWK_SECURITY_STATE_PROCESS;
    24c2:	22 e3       	ldi	r18, 0x32	; 50
    24c4:	dc 01       	movw	r26, r24
    24c6:	2c 93       	st	X, r18
    24c8:	06 c0       	rjmp	.+12     	; 0x24d6 <nwkSecurityTaskHandler+0x1d4>
    24ca:	80 e0       	ldi	r24, 0x00	; 0
    24cc:	90 e0       	ldi	r25, 0x00	; 0
    }

    return;
  }

  while (NULL != (frame = nwkFrameNext(frame)))
    24ce:	dc db       	rcall	.-2120   	; 0x1c88 <nwkFrameNext>
    24d0:	00 97       	sbiw	r24, 0x00	; 0
    24d2:	09 f0       	breq	.+2      	; 0x24d6 <nwkSecurityTaskHandler+0x1d4>
    24d4:	89 cf       	rjmp	.-238    	; 0x23e8 <nwkSecurityTaskHandler+0xe6>
      nwkSecurityActiveFrame = frame;
      nwkSecurityStart();
      return;
    }
  }
}
    24d6:	df 91       	pop	r29
    24d8:	cf 91       	pop	r28
    24da:	1f 91       	pop	r17
    24dc:	0f 91       	pop	r16
    24de:	08 95       	ret

000024e0 <nwkTxDelayTimerHandler>:
/*************************************************************************//**
*****************************************************************************/
void nwkTxConfirm(NwkFrame_t *frame, uint8_t status)
{
  frame->state = NWK_TX_STATE_CONFIRM;
  frame->tx.status = status;
    24e0:	ef 92       	push	r14
    24e2:	ff 92       	push	r15
    24e4:	0f 93       	push	r16
    24e6:	1f 93       	push	r17
    24e8:	cf 93       	push	r28
    24ea:	7c 01       	movw	r14, r24
    24ec:	10 e0       	ldi	r17, 0x00	; 0
    24ee:	80 e0       	ldi	r24, 0x00	; 0
    24f0:	90 e0       	ldi	r25, 0x00	; 0
    24f2:	01 e0       	ldi	r16, 0x01	; 1
    24f4:	c3 e1       	ldi	r28, 0x13	; 19
    24f6:	13 c0       	rjmp	.+38     	; 0x251e <nwkTxDelayTimerHandler+0x3e>
    24f8:	fc 01       	movw	r30, r24
    24fa:	20 81       	ld	r18, Z
    24fc:	21 31       	cpi	r18, 0x11	; 17
    24fe:	79 f4       	brne	.+30     	; 0x251e <nwkTxDelayTimerHandler+0x3e>
    2500:	ec 57       	subi	r30, 0x7C	; 124
    2502:	ff 4f       	sbci	r31, 0xFF	; 255
    2504:	20 81       	ld	r18, Z
    2506:	31 81       	ldd	r19, Z+1	; 0x01
    2508:	21 50       	subi	r18, 0x01	; 1
    250a:	31 09       	sbc	r19, r1
    250c:	31 83       	std	Z+1, r19	; 0x01
    250e:	20 83       	st	Z, r18
    2510:	23 2b       	or	r18, r19
    2512:	21 f4       	brne	.+8      	; 0x251c <nwkTxDelayTimerHandler+0x3c>
    2514:	fc 01       	movw	r30, r24
    2516:	c0 83       	st	Z, r28
    2518:	10 2f       	mov	r17, r16
    251a:	01 c0       	rjmp	.+2      	; 0x251e <nwkTxDelayTimerHandler+0x3e>
    251c:	10 2f       	mov	r17, r16
    251e:	b4 db       	rcall	.-2200   	; 0x1c88 <nwkFrameNext>
    2520:	00 97       	sbiw	r24, 0x00	; 0
    2522:	51 f7       	brne	.-44     	; 0x24f8 <nwkTxDelayTimerHandler+0x18>
    2524:	11 23       	and	r17, r17
    2526:	11 f0       	breq	.+4      	; 0x252c <nwkTxDelayTimerHandler+0x4c>
    2528:	c7 01       	movw	r24, r14
    252a:	3a d4       	rcall	.+2164   	; 0x2da0 <SYS_TimerStart>
    252c:	cf 91       	pop	r28
    252e:	1f 91       	pop	r17
    2530:	0f 91       	pop	r16
    2532:	ff 90       	pop	r15
    2534:	ef 90       	pop	r14
    2536:	08 95       	ret

00002538 <nwkTxAckWaitTimerHandler>:
    2538:	ef 92       	push	r14
    253a:	ff 92       	push	r15
    253c:	0f 93       	push	r16
    253e:	1f 93       	push	r17
    2540:	cf 93       	push	r28
    2542:	df 93       	push	r29
    2544:	7c 01       	movw	r14, r24
    2546:	10 e0       	ldi	r17, 0x00	; 0
    2548:	80 e0       	ldi	r24, 0x00	; 0
    254a:	90 e0       	ldi	r25, 0x00	; 0
    254c:	01 e0       	ldi	r16, 0x01	; 1
    254e:	d7 e1       	ldi	r29, 0x17	; 23
    2550:	c0 e1       	ldi	r28, 0x10	; 16
    2552:	16 c0       	rjmp	.+44     	; 0x2580 <nwkTxAckWaitTimerHandler+0x48>
    2554:	fc 01       	movw	r30, r24
    2556:	20 81       	ld	r18, Z
    2558:	26 31       	cpi	r18, 0x16	; 22
    255a:	91 f4       	brne	.+36     	; 0x2580 <nwkTxAckWaitTimerHandler+0x48>
    255c:	ec 57       	subi	r30, 0x7C	; 124
    255e:	ff 4f       	sbci	r31, 0xFF	; 255
    2560:	20 81       	ld	r18, Z
    2562:	31 81       	ldd	r19, Z+1	; 0x01
    2564:	21 50       	subi	r18, 0x01	; 1
    2566:	31 09       	sbc	r19, r1
    2568:	31 83       	std	Z+1, r19	; 0x01
    256a:	20 83       	st	Z, r18
    256c:	23 2b       	or	r18, r19
    256e:	39 f4       	brne	.+14     	; 0x257e <nwkTxAckWaitTimerHandler+0x46>
    2570:	fc 01       	movw	r30, r24
    2572:	d0 83       	st	Z, r29
    2574:	ed 57       	subi	r30, 0x7D	; 125
    2576:	ff 4f       	sbci	r31, 0xFF	; 255
    2578:	c0 83       	st	Z, r28
    257a:	10 2f       	mov	r17, r16
    257c:	01 c0       	rjmp	.+2      	; 0x2580 <nwkTxAckWaitTimerHandler+0x48>
    257e:	10 2f       	mov	r17, r16
    2580:	83 db       	rcall	.-2298   	; 0x1c88 <nwkFrameNext>
    2582:	00 97       	sbiw	r24, 0x00	; 0
    2584:	39 f7       	brne	.-50     	; 0x2554 <nwkTxAckWaitTimerHandler+0x1c>
    2586:	11 23       	and	r17, r17
    2588:	11 f0       	breq	.+4      	; 0x258e <nwkTxAckWaitTimerHandler+0x56>
    258a:	c7 01       	movw	r24, r14
    258c:	09 d4       	rcall	.+2066   	; 0x2da0 <SYS_TimerStart>
    258e:	df 91       	pop	r29
    2590:	cf 91       	pop	r28
    2592:	1f 91       	pop	r17
    2594:	0f 91       	pop	r16
    2596:	ff 90       	pop	r15
    2598:	ef 90       	pop	r14
    259a:	08 95       	ret

0000259c <nwkTxInit>:
    259c:	10 92 0d 1f 	sts	0x1F0D, r1
    25a0:	10 92 0c 1f 	sts	0x1F0C, r1
    25a4:	ef ef       	ldi	r30, 0xFF	; 255
    25a6:	fe e1       	ldi	r31, 0x1E	; 30
    25a8:	82 e3       	ldi	r24, 0x32	; 50
    25aa:	90 e0       	ldi	r25, 0x00	; 0
    25ac:	a0 e0       	ldi	r26, 0x00	; 0
    25ae:	b0 e0       	ldi	r27, 0x00	; 0
    25b0:	86 83       	std	Z+6, r24	; 0x06
    25b2:	97 83       	std	Z+7, r25	; 0x07
    25b4:	a0 87       	std	Z+8, r26	; 0x08
    25b6:	b1 87       	std	Z+9, r27	; 0x09
    25b8:	12 86       	std	Z+10, r1	; 0x0a
    25ba:	8c e9       	ldi	r24, 0x9C	; 156
    25bc:	92 e1       	ldi	r25, 0x12	; 18
    25be:	94 87       	std	Z+12, r25	; 0x0c
    25c0:	83 87       	std	Z+11, r24	; 0x0b
    25c2:	e2 ef       	ldi	r30, 0xF2	; 242
    25c4:	fe e1       	ldi	r31, 0x1E	; 30
    25c6:	8a e0       	ldi	r24, 0x0A	; 10
    25c8:	90 e0       	ldi	r25, 0x00	; 0
    25ca:	a0 e0       	ldi	r26, 0x00	; 0
    25cc:	b0 e0       	ldi	r27, 0x00	; 0
    25ce:	86 83       	std	Z+6, r24	; 0x06
    25d0:	97 83       	std	Z+7, r25	; 0x07
    25d2:	a0 87       	std	Z+8, r26	; 0x08
    25d4:	b1 87       	std	Z+9, r27	; 0x09
    25d6:	12 86       	std	Z+10, r1	; 0x0a
    25d8:	80 e7       	ldi	r24, 0x70	; 112
    25da:	92 e1       	ldi	r25, 0x12	; 18
    25dc:	94 87       	std	Z+12, r25	; 0x0c
    25de:	83 87       	std	Z+11, r24	; 0x0b
    25e0:	08 95       	ret

000025e2 <nwkTxFrame>:
    25e2:	cf 93       	push	r28
    25e4:	df 93       	push	r29
    25e6:	fc 01       	movw	r30, r24
    25e8:	dc 01       	movw	r26, r24
    25ea:	aa 57       	subi	r26, 0x7A	; 122
    25ec:	bf 4f       	sbci	r27, 0xFF	; 255
    25ee:	8c 91       	ld	r24, X
    25f0:	81 ff       	sbrs	r24, 1
    25f2:	03 c0       	rjmp	.+6      	; 0x25fa <nwkTxFrame+0x18>
    25f4:	92 e1       	ldi	r25, 0x12	; 18
    25f6:	90 83       	st	Z, r25
    25f8:	08 c0       	rjmp	.+16     	; 0x260a <nwkTxFrame+0x28>
    25fa:	93 85       	ldd	r25, Z+11	; 0x0b
    25fc:	91 ff       	sbrs	r25, 1
    25fe:	03 c0       	rjmp	.+6      	; 0x2606 <nwkTxFrame+0x24>
    2600:	90 e1       	ldi	r25, 0x10	; 16
    2602:	90 83       	st	Z, r25
    2604:	02 c0       	rjmp	.+4      	; 0x260a <nwkTxFrame+0x28>
    2606:	92 e1       	ldi	r25, 0x12	; 18
    2608:	90 83       	st	Z, r25
    260a:	df 01       	movw	r26, r30
    260c:	ad 57       	subi	r26, 0x7D	; 125
    260e:	bf 4f       	sbci	r27, 0xFF	; 255
    2610:	1c 92       	st	X, r1
    2612:	80 ff       	sbrs	r24, 0
    2614:	05 c0       	rjmp	.+10     	; 0x2620 <nwkTxFrame+0x3e>
    2616:	8f ef       	ldi	r24, 0xFF	; 255
    2618:	9f ef       	ldi	r25, 0xFF	; 255
    261a:	96 83       	std	Z+6, r25	; 0x06
    261c:	85 83       	std	Z+5, r24	; 0x05
    261e:	06 c0       	rjmp	.+12     	; 0x262c <nwkTxFrame+0x4a>
    2620:	80 91 23 21 	lds	r24, 0x2123
    2624:	90 91 24 21 	lds	r25, 0x2124
    2628:	96 83       	std	Z+6, r25	; 0x06
    262a:	85 83       	std	Z+5, r24	; 0x05
    262c:	27 85       	ldd	r18, Z+15	; 0x0f
    262e:	30 89       	ldd	r19, Z+16	; 0x10
    2630:	30 87       	std	Z+8, r19	; 0x08
    2632:	27 83       	std	Z+7, r18	; 0x07
    2634:	a1 e2       	ldi	r26, 0x21	; 33
    2636:	b1 e2       	ldi	r27, 0x21	; 33
    2638:	8d 91       	ld	r24, X+
    263a:	9c 91       	ld	r25, X
    263c:	11 97       	sbiw	r26, 0x01	; 1
    263e:	92 87       	std	Z+10, r25	; 0x0a
    2640:	81 87       	std	Z+9, r24	; 0x09
    2642:	15 96       	adiw	r26, 0x05	; 5
    2644:	8c 91       	ld	r24, X
    2646:	15 97       	sbiw	r26, 0x05	; 5
    2648:	8f 5f       	subi	r24, 0xFF	; 255
    264a:	15 96       	adiw	r26, 0x05	; 5
    264c:	8c 93       	st	X, r24
    264e:	84 83       	std	Z+4, r24	; 0x04
    2650:	2f 3f       	cpi	r18, 0xFF	; 255
    2652:	3f 4f       	sbci	r19, 0xFF	; 255
    2654:	81 f4       	brne	.+32     	; 0x2676 <nwkTxFrame+0x94>
    2656:	ef 01       	movw	r28, r30
    2658:	81 e4       	ldi	r24, 0x41	; 65
    265a:	98 e8       	ldi	r25, 0x88	; 136
    265c:	93 83       	std	Z+3, r25	; 0x03
    265e:	82 83       	std	Z+2, r24	; 0x02
    2660:	0e 94 4c 51 	call	0xa298	; 0xa298 <rand>
    2664:	fe 01       	movw	r30, r28
    2666:	ec 57       	subi	r30, 0x7C	; 124
    2668:	ff 4f       	sbci	r31, 0xFF	; 255
    266a:	87 70       	andi	r24, 0x07	; 7
    266c:	99 27       	eor	r25, r25
    266e:	01 96       	adiw	r24, 0x01	; 1
    2670:	91 83       	std	Z+1, r25	; 0x01
    2672:	80 83       	st	Z, r24
    2674:	08 c0       	rjmp	.+16     	; 0x2686 <nwkTxFrame+0xa4>
    2676:	81 e6       	ldi	r24, 0x61	; 97
    2678:	98 e8       	ldi	r25, 0x88	; 136
    267a:	93 83       	std	Z+3, r25	; 0x03
    267c:	82 83       	std	Z+2, r24	; 0x02
    267e:	ec 57       	subi	r30, 0x7C	; 124
    2680:	ff 4f       	sbci	r31, 0xFF	; 255
    2682:	11 82       	std	Z+1, r1	; 0x01
    2684:	10 82       	st	Z, r1
    2686:	df 91       	pop	r29
    2688:	cf 91       	pop	r28
    268a:	08 95       	ret

0000268c <nwkTxBroadcastFrame>:
    268c:	0f 93       	push	r16
    268e:	1f 93       	push	r17
    2690:	cf 93       	push	r28
    2692:	df 93       	push	r29
    2694:	8c 01       	movw	r16, r24
    2696:	b5 da       	rcall	.-2710   	; 0x1c02 <nwkFrameAlloc>
    2698:	ec 01       	movw	r28, r24
    269a:	89 2b       	or	r24, r25
    269c:	b9 f1       	breq	.+110    	; 0x270c <nwkTxBroadcastFrame+0x80>
    269e:	82 e1       	ldi	r24, 0x12	; 18
    26a0:	88 83       	st	Y, r24
    26a2:	f8 01       	movw	r30, r16
    26a4:	81 81       	ldd	r24, Z+1	; 0x01
    26a6:	89 83       	std	Y+1, r24	; 0x01
    26a8:	fe 01       	movw	r30, r28
    26aa:	ed 57       	subi	r30, 0x7D	; 125
    26ac:	ff 4f       	sbci	r31, 0xFF	; 255
    26ae:	10 82       	st	Z, r1
    26b0:	0e 94 4c 51 	call	0xa298	; 0xa298 <rand>
    26b4:	fe 01       	movw	r30, r28
    26b6:	ec 57       	subi	r30, 0x7C	; 124
    26b8:	ff 4f       	sbci	r31, 0xFF	; 255
    26ba:	87 70       	andi	r24, 0x07	; 7
    26bc:	99 27       	eor	r25, r25
    26be:	01 96       	adiw	r24, 0x01	; 1
    26c0:	91 83       	std	Z+1, r25	; 0x01
    26c2:	80 83       	st	Z, r24
    26c4:	33 96       	adiw	r30, 0x03	; 3
    26c6:	11 82       	std	Z+1, r1	; 0x01
    26c8:	10 82       	st	Z, r1
    26ca:	f8 01       	movw	r30, r16
    26cc:	41 81       	ldd	r20, Z+1	; 0x01
    26ce:	50 e0       	ldi	r21, 0x00	; 0
    26d0:	b8 01       	movw	r22, r16
    26d2:	6e 5f       	subi	r22, 0xFE	; 254
    26d4:	7f 4f       	sbci	r23, 0xFF	; 255
    26d6:	ce 01       	movw	r24, r28
    26d8:	02 96       	adiw	r24, 0x02	; 2
    26da:	0e 94 67 51 	call	0xa2ce	; 0xa2ce <memcpy>
    26de:	81 e4       	ldi	r24, 0x41	; 65
    26e0:	98 e8       	ldi	r25, 0x88	; 136
    26e2:	9b 83       	std	Y+3, r25	; 0x03
    26e4:	8a 83       	std	Y+2, r24	; 0x02
    26e6:	8f ef       	ldi	r24, 0xFF	; 255
    26e8:	9f ef       	ldi	r25, 0xFF	; 255
    26ea:	98 87       	std	Y+8, r25	; 0x08
    26ec:	8f 83       	std	Y+7, r24	; 0x07
    26ee:	f8 01       	movw	r30, r16
    26f0:	85 81       	ldd	r24, Z+5	; 0x05
    26f2:	96 81       	ldd	r25, Z+6	; 0x06
    26f4:	9e 83       	std	Y+6, r25	; 0x06
    26f6:	8d 83       	std	Y+5, r24	; 0x05
    26f8:	e1 e2       	ldi	r30, 0x21	; 33
    26fa:	f1 e2       	ldi	r31, 0x21	; 33
    26fc:	80 81       	ld	r24, Z
    26fe:	91 81       	ldd	r25, Z+1	; 0x01
    2700:	9a 87       	std	Y+10, r25	; 0x0a
    2702:	89 87       	std	Y+9, r24	; 0x09
    2704:	85 81       	ldd	r24, Z+5	; 0x05
    2706:	8f 5f       	subi	r24, 0xFF	; 255
    2708:	85 83       	std	Z+5, r24	; 0x05
    270a:	8c 83       	std	Y+4, r24	; 0x04
    270c:	df 91       	pop	r29
    270e:	cf 91       	pop	r28
    2710:	1f 91       	pop	r17
    2712:	0f 91       	pop	r16
    2714:	08 95       	ret

00002716 <nwkTxAckReceived>:
    2716:	cf 93       	push	r28
    2718:	df 93       	push	r29
    271a:	fc 01       	movw	r30, r24
    271c:	c7 81       	ldd	r28, Z+7	; 0x07
    271e:	d0 85       	ldd	r29, Z+8	; 0x08
    2720:	81 85       	ldd	r24, Z+9	; 0x09
    2722:	83 30       	cpi	r24, 0x03	; 3
    2724:	c1 f4       	brne	.+48     	; 0x2756 <nwkTxAckReceived+0x40>
    2726:	80 e0       	ldi	r24, 0x00	; 0
    2728:	90 e0       	ldi	r25, 0x00	; 0
    272a:	10 c0       	rjmp	.+32     	; 0x274c <nwkTxAckReceived+0x36>
    272c:	fc 01       	movw	r30, r24
    272e:	20 81       	ld	r18, Z
    2730:	26 31       	cpi	r18, 0x16	; 22
    2732:	61 f4       	brne	.+24     	; 0x274c <nwkTxAckReceived+0x36>
    2734:	34 85       	ldd	r19, Z+12	; 0x0c
    2736:	29 81       	ldd	r18, Y+1	; 0x01
    2738:	32 13       	cpse	r19, r18
    273a:	08 c0       	rjmp	.+16     	; 0x274c <nwkTxAckReceived+0x36>
    273c:	27 e1       	ldi	r18, 0x17	; 23
    273e:	20 83       	st	Z, r18
    2740:	2a 81       	ldd	r18, Y+2	; 0x02
    2742:	ea 57       	subi	r30, 0x7A	; 122
    2744:	ff 4f       	sbci	r31, 0xFF	; 255
    2746:	20 83       	st	Z, r18
    2748:	81 e0       	ldi	r24, 0x01	; 1
    274a:	06 c0       	rjmp	.+12     	; 0x2758 <nwkTxAckReceived+0x42>
    274c:	9d da       	rcall	.-2758   	; 0x1c88 <nwkFrameNext>
    274e:	00 97       	sbiw	r24, 0x00	; 0
    2750:	69 f7       	brne	.-38     	; 0x272c <nwkTxAckReceived+0x16>
    2752:	80 e0       	ldi	r24, 0x00	; 0
    2754:	01 c0       	rjmp	.+2      	; 0x2758 <nwkTxAckReceived+0x42>
    2756:	80 e0       	ldi	r24, 0x00	; 0
    2758:	df 91       	pop	r29
    275a:	cf 91       	pop	r28
    275c:	08 95       	ret

0000275e <nwkTxEncryptConf>:
#ifdef NWK_ENABLE_SECURITY
/*************************************************************************//**
*****************************************************************************/
void nwkTxEncryptConf(NwkFrame_t *frame)
{
  frame->state = NWK_TX_STATE_DELAY;
    275e:	22 e1       	ldi	r18, 0x12	; 18
    2760:	fc 01       	movw	r30, r24
    2762:	20 83       	st	Z, r18
    2764:	08 95       	ret

00002766 <PHY_DataConf>:

/*************************************************************************//**
*****************************************************************************/
void PHY_DataConf(uint8_t status)
{
  nwkTxPhyActiveFrame->tx.status = nwkTxConvertPhyStatus(status);
    2766:	e0 91 0c 1f 	lds	r30, 0x1F0C
    276a:	f0 91 0d 1f 	lds	r31, 0x1F0D

/*************************************************************************//**
*****************************************************************************/
static uint8_t nwkTxConvertPhyStatus(uint8_t status)
{
  switch (status)
    276e:	81 30       	cpi	r24, 0x01	; 1
    2770:	21 f0       	breq	.+8      	; 0x277a <PHY_DataConf+0x14>
    2772:	48 f0       	brcs	.+18     	; 0x2786 <PHY_DataConf+0x20>
    2774:	82 30       	cpi	r24, 0x02	; 2
    2776:	19 f0       	breq	.+6      	; 0x277e <PHY_DataConf+0x18>
    2778:	04 c0       	rjmp	.+8      	; 0x2782 <PHY_DataConf+0x1c>
  {
    case PHY_STATUS_SUCCESS:
      return NWK_SUCCESS_STATUS;

    case PHY_STATUS_CHANNEL_ACCESS_FAILURE:
      return NWK_PHY_CHANNEL_ACCESS_FAILURE_STATUS;
    277a:	80 e2       	ldi	r24, 0x20	; 32
    277c:	05 c0       	rjmp	.+10     	; 0x2788 <PHY_DataConf+0x22>

    case PHY_STATUS_NO_ACK:
      return NWK_PHY_NO_ACK_STATUS;
    277e:	81 e2       	ldi	r24, 0x21	; 33
    2780:	03 c0       	rjmp	.+6      	; 0x2788 <PHY_DataConf+0x22>

    default:
      return NWK_ERROR_STATUS;
    2782:	81 e0       	ldi	r24, 0x01	; 1
    2784:	01 c0       	rjmp	.+2      	; 0x2788 <PHY_DataConf+0x22>
static uint8_t nwkTxConvertPhyStatus(uint8_t status)
{
  switch (status)
  {
    case PHY_STATUS_SUCCESS:
      return NWK_SUCCESS_STATUS;
    2786:	80 e0       	ldi	r24, 0x00	; 0

/*************************************************************************//**
*****************************************************************************/
void PHY_DataConf(uint8_t status)
{
  nwkTxPhyActiveFrame->tx.status = nwkTxConvertPhyStatus(status);
    2788:	df 01       	movw	r26, r30
    278a:	ad 57       	subi	r26, 0x7D	; 125
    278c:	bf 4f       	sbci	r27, 0xFF	; 255
    278e:	8c 93       	st	X, r24
  nwkTxPhyActiveFrame->state = NWK_TX_STATE_SENT;
    2790:	85 e1       	ldi	r24, 0x15	; 21
    2792:	80 83       	st	Z, r24
  nwkTxPhyActiveFrame = NULL;
    2794:	10 92 0d 1f 	sts	0x1F0D, r1
    2798:	10 92 0c 1f 	sts	0x1F0C, r1
  nwkIb.lock--;
    279c:	e1 e2       	ldi	r30, 0x21	; 33
    279e:	f1 e2       	ldi	r31, 0x21	; 33
    27a0:	86 a9       	ldd	r24, Z+54	; 0x36
    27a2:	97 a9       	ldd	r25, Z+55	; 0x37
    27a4:	01 97       	sbiw	r24, 0x01	; 1
    27a6:	97 ab       	std	Z+55, r25	; 0x37
    27a8:	86 ab       	std	Z+54, r24	; 0x36
    27aa:	08 95       	ret

000027ac <nwkTxTaskHandler>:

/*************************************************************************//**
  @brief Tx Module task handler
*****************************************************************************/
void nwkTxTaskHandler(void)
{
    27ac:	9f 92       	push	r9
    27ae:	af 92       	push	r10
    27b0:	bf 92       	push	r11
    27b2:	cf 92       	push	r12
    27b4:	df 92       	push	r13
    27b6:	ef 92       	push	r14
    27b8:	ff 92       	push	r15
    27ba:	0f 93       	push	r16
    27bc:	1f 93       	push	r17
    27be:	cf 93       	push	r28
    27c0:	df 93       	push	r29
  NwkFrame_t *frame = NULL;
    27c2:	c0 e0       	ldi	r28, 0x00	; 0
    27c4:	d0 e0       	ldi	r29, 0x00	; 0
      case NWK_TX_STATE_SEND:
      {
        if (NULL == nwkTxPhyActiveFrame)
        {
          nwkTxPhyActiveFrame = frame;
          frame->state = NWK_TX_STATE_WAIT_CONF;
    27c6:	0f 2e       	mov	r0, r31
    27c8:	f4 e1       	ldi	r31, 0x14	; 20
    27ca:	af 2e       	mov	r10, r31
    27cc:	f0 2d       	mov	r31, r0
          PHY_DataReq(frame->data, frame->size);
          nwkIb.lock++;
    27ce:	01 e2       	ldi	r16, 0x21	; 33
    27d0:	11 e2       	ldi	r17, 0x21	; 33
            frame->state = NWK_TX_STATE_CONFIRM;
          }
        }
        else
        {
          frame->state = NWK_TX_STATE_CONFIRM;
    27d2:	0f 2e       	mov	r0, r31
    27d4:	f7 e1       	ldi	r31, 0x17	; 23
    27d6:	df 2e       	mov	r13, r31
    27d8:	f0 2d       	mov	r31, r0
      {
        if (NWK_SUCCESS_STATUS == frame->tx.status)
        {
          if (frame->header.nwkSrcAddr == nwkIb.addr && frame->header.nwkFcf.ackRequest)
          {
            frame->state = NWK_TX_STATE_WAIT_ACK;
    27da:	0f 2e       	mov	r0, r31
    27dc:	f6 e1       	ldi	r31, 0x16	; 22
    27de:	9f 2e       	mov	r9, r31
    27e0:	f0 2d       	mov	r31, r0
            frame->tx.timeout = NWK_ACK_WAIT_TIME / NWK_TX_ACK_WAIT_TIMER_INTERVAL + 1;
    27e2:	0f 2e       	mov	r0, r31
    27e4:	f5 e1       	ldi	r31, 0x15	; 21
    27e6:	ef 2e       	mov	r14, r31
    27e8:	f1 2c       	mov	r15, r1
    27ea:	f0 2d       	mov	r31, r0
          frame->state = NWK_TX_STATE_WAIT_DELAY;
          SYS_TimerStart(&nwkTxDelayTimer);
        }
        else
        {
          frame->state = NWK_TX_STATE_SEND;
    27ec:	0f 2e       	mov	r0, r31
    27ee:	f3 e1       	ldi	r31, 0x13	; 19
    27f0:	cf 2e       	mov	r12, r31
    27f2:	f0 2d       	mov	r31, r0

      case NWK_TX_STATE_DELAY:
      {
        if (frame->tx.timeout > 0)
        {
          frame->state = NWK_TX_STATE_WAIT_DELAY;
    27f4:	0f 2e       	mov	r0, r31
    27f6:	f1 e1       	ldi	r31, 0x11	; 17
    27f8:	bf 2e       	mov	r11, r31
    27fa:	f0 2d       	mov	r31, r0
*****************************************************************************/
void nwkTxTaskHandler(void)
{
  NwkFrame_t *frame = NULL;

  while (NULL != (frame = nwkFrameNext(frame)))
    27fc:	64 c0       	rjmp	.+200    	; 0x28c6 <nwkTxTaskHandler+0x11a>
  {
    switch (frame->state)
    27fe:	88 81       	ld	r24, Y
    2800:	83 31       	cpi	r24, 0x13	; 19
    2802:	f1 f0       	breq	.+60     	; 0x2840 <nwkTxTaskHandler+0x94>
    2804:	28 f4       	brcc	.+10     	; 0x2810 <nwkTxTaskHandler+0x64>
    2806:	80 31       	cpi	r24, 0x10	; 16
    2808:	49 f0       	breq	.+18     	; 0x281c <nwkTxTaskHandler+0x70>
    280a:	82 31       	cpi	r24, 0x12	; 18
    280c:	59 f0       	breq	.+22     	; 0x2824 <nwkTxTaskHandler+0x78>
    280e:	5b c0       	rjmp	.+182    	; 0x28c6 <nwkTxTaskHandler+0x11a>
    2810:	85 31       	cpi	r24, 0x15	; 21
    2812:	69 f1       	breq	.+90     	; 0x286e <nwkTxTaskHandler+0xc2>
    2814:	87 31       	cpi	r24, 0x17	; 23
    2816:	09 f4       	brne	.+2      	; 0x281a <nwkTxTaskHandler+0x6e>
    2818:	49 c0       	rjmp	.+146    	; 0x28ac <nwkTxTaskHandler+0x100>
    281a:	55 c0       	rjmp	.+170    	; 0x28c6 <nwkTxTaskHandler+0x11a>
    {
#ifdef NWK_ENABLE_SECURITY
      case NWK_TX_STATE_ENCRYPT:
      {
        nwkSecurityProcess(frame, true);
    281c:	61 e0       	ldi	r22, 0x01	; 1
    281e:	ce 01       	movw	r24, r28
    2820:	23 dd       	rcall	.-1466   	; 0x2268 <nwkSecurityProcess>
      } break;
    2822:	51 c0       	rjmp	.+162    	; 0x28c6 <nwkTxTaskHandler+0x11a>
#endif

      case NWK_TX_STATE_DELAY:
      {
        if (frame->tx.timeout > 0)
    2824:	fe 01       	movw	r30, r28
    2826:	ec 57       	subi	r30, 0x7C	; 124
    2828:	ff 4f       	sbci	r31, 0xFF	; 255
    282a:	80 81       	ld	r24, Z
    282c:	91 81       	ldd	r25, Z+1	; 0x01
    282e:	89 2b       	or	r24, r25
    2830:	29 f0       	breq	.+10     	; 0x283c <nwkTxTaskHandler+0x90>
        {
          frame->state = NWK_TX_STATE_WAIT_DELAY;
    2832:	b8 82       	st	Y, r11
          SYS_TimerStart(&nwkTxDelayTimer);
    2834:	82 ef       	ldi	r24, 0xF2	; 242
    2836:	9e e1       	ldi	r25, 0x1E	; 30
    2838:	b3 d2       	rcall	.+1382   	; 0x2da0 <SYS_TimerStart>
    283a:	45 c0       	rjmp	.+138    	; 0x28c6 <nwkTxTaskHandler+0x11a>
        }
        else
        {
          frame->state = NWK_TX_STATE_SEND;
    283c:	c8 82       	st	Y, r12
    283e:	43 c0       	rjmp	.+134    	; 0x28c6 <nwkTxTaskHandler+0x11a>
        }
      } break;

      case NWK_TX_STATE_SEND:
      {
        if (NULL == nwkTxPhyActiveFrame)
    2840:	80 91 0c 1f 	lds	r24, 0x1F0C
    2844:	90 91 0d 1f 	lds	r25, 0x1F0D
    2848:	89 2b       	or	r24, r25
    284a:	09 f0       	breq	.+2      	; 0x284e <nwkTxTaskHandler+0xa2>
    284c:	3c c0       	rjmp	.+120    	; 0x28c6 <nwkTxTaskHandler+0x11a>
        {
          nwkTxPhyActiveFrame = frame;
    284e:	d0 93 0d 1f 	sts	0x1F0D, r29
    2852:	c0 93 0c 1f 	sts	0x1F0C, r28
          frame->state = NWK_TX_STATE_WAIT_CONF;
    2856:	a8 82       	st	Y, r10
          PHY_DataReq(frame->data, frame->size);
    2858:	69 81       	ldd	r22, Y+1	; 0x01
    285a:	ce 01       	movw	r24, r28
    285c:	02 96       	adiw	r24, 0x02	; 2
    285e:	ad d0       	rcall	.+346    	; 0x29ba <PHY_DataReq>
          nwkIb.lock++;
    2860:	f8 01       	movw	r30, r16
    2862:	86 a9       	ldd	r24, Z+54	; 0x36
    2864:	97 a9       	ldd	r25, Z+55	; 0x37
    2866:	01 96       	adiw	r24, 0x01	; 1
    2868:	97 ab       	std	Z+55, r25	; 0x37
    286a:	86 ab       	std	Z+54, r24	; 0x36
    286c:	2c c0       	rjmp	.+88     	; 0x28c6 <nwkTxTaskHandler+0x11a>
      case NWK_TX_STATE_WAIT_CONF:
        break;

      case NWK_TX_STATE_SENT:
      {
        if (NWK_SUCCESS_STATUS == frame->tx.status)
    286e:	fe 01       	movw	r30, r28
    2870:	ed 57       	subi	r30, 0x7D	; 125
    2872:	ff 4f       	sbci	r31, 0xFF	; 255
    2874:	80 81       	ld	r24, Z
    2876:	81 11       	cpse	r24, r1
    2878:	17 c0       	rjmp	.+46     	; 0x28a8 <nwkTxTaskHandler+0xfc>
        {
          if (frame->header.nwkSrcAddr == nwkIb.addr && frame->header.nwkFcf.ackRequest)
    287a:	2d 85       	ldd	r18, Y+13	; 0x0d
    287c:	3e 85       	ldd	r19, Y+14	; 0x0e
    287e:	f8 01       	movw	r30, r16
    2880:	80 81       	ld	r24, Z
    2882:	91 81       	ldd	r25, Z+1	; 0x01
    2884:	28 17       	cp	r18, r24
    2886:	39 07       	cpc	r19, r25
    2888:	69 f4       	brne	.+26     	; 0x28a4 <nwkTxTaskHandler+0xf8>
    288a:	8b 85       	ldd	r24, Y+11	; 0x0b
    288c:	80 ff       	sbrs	r24, 0
    288e:	0a c0       	rjmp	.+20     	; 0x28a4 <nwkTxTaskHandler+0xf8>
          {
            frame->state = NWK_TX_STATE_WAIT_ACK;
    2890:	98 82       	st	Y, r9
            frame->tx.timeout = NWK_ACK_WAIT_TIME / NWK_TX_ACK_WAIT_TIMER_INTERVAL + 1;
    2892:	fe 01       	movw	r30, r28
    2894:	ec 57       	subi	r30, 0x7C	; 124
    2896:	ff 4f       	sbci	r31, 0xFF	; 255
    2898:	f1 82       	std	Z+1, r15	; 0x01
    289a:	e0 82       	st	Z, r14
            SYS_TimerStart(&nwkTxAckWaitTimer);
    289c:	8f ef       	ldi	r24, 0xFF	; 255
    289e:	9e e1       	ldi	r25, 0x1E	; 30
    28a0:	7f d2       	rcall	.+1278   	; 0x2da0 <SYS_TimerStart>
    28a2:	11 c0       	rjmp	.+34     	; 0x28c6 <nwkTxTaskHandler+0x11a>
          }
          else
          {
            frame->state = NWK_TX_STATE_CONFIRM;
    28a4:	d8 82       	st	Y, r13
    28a6:	0f c0       	rjmp	.+30     	; 0x28c6 <nwkTxTaskHandler+0x11a>
          }
        }
        else
        {
          frame->state = NWK_TX_STATE_CONFIRM;
    28a8:	d8 82       	st	Y, r13
    28aa:	0d c0       	rjmp	.+26     	; 0x28c6 <nwkTxTaskHandler+0x11a>
      case NWK_TX_STATE_CONFIRM:
      {
#ifdef NWK_ENABLE_ROUTING
        nwkRouteFrameSent(frame);
#endif
        if (NULL == frame->tx.confirm)
    28ac:	fe 01       	movw	r30, r28
    28ae:	e9 57       	subi	r30, 0x79	; 121
    28b0:	ff 4f       	sbci	r31, 0xFF	; 255
    28b2:	01 90       	ld	r0, Z+
    28b4:	f0 81       	ld	r31, Z
    28b6:	e0 2d       	mov	r30, r0
    28b8:	30 97       	sbiw	r30, 0x00	; 0
    28ba:	19 f4       	brne	.+6      	; 0x28c2 <nwkTxTaskHandler+0x116>
          nwkFrameFree(frame);
    28bc:	ce 01       	movw	r24, r28
    28be:	da d9       	rcall	.-3148   	; 0x1c74 <nwkFrameFree>
    28c0:	02 c0       	rjmp	.+4      	; 0x28c6 <nwkTxTaskHandler+0x11a>
        else
          frame->tx.confirm(frame);
    28c2:	ce 01       	movw	r24, r28
    28c4:	19 95       	eicall
*****************************************************************************/
void nwkTxTaskHandler(void)
{
  NwkFrame_t *frame = NULL;

  while (NULL != (frame = nwkFrameNext(frame)))
    28c6:	ce 01       	movw	r24, r28
    28c8:	df d9       	rcall	.-3138   	; 0x1c88 <nwkFrameNext>
    28ca:	ec 01       	movw	r28, r24
    28cc:	89 2b       	or	r24, r25
    28ce:	09 f0       	breq	.+2      	; 0x28d2 <nwkTxTaskHandler+0x126>
    28d0:	96 cf       	rjmp	.-212    	; 0x27fe <nwkTxTaskHandler+0x52>

      default:
        break;
    };
  }
}
    28d2:	df 91       	pop	r29
    28d4:	cf 91       	pop	r28
    28d6:	1f 91       	pop	r17
    28d8:	0f 91       	pop	r16
    28da:	ff 90       	pop	r15
    28dc:	ef 90       	pop	r14
    28de:	df 90       	pop	r13
    28e0:	cf 90       	pop	r12
    28e2:	bf 90       	pop	r11
    28e4:	af 90       	pop	r10
    28e6:	9f 90       	pop	r9
    28e8:	08 95       	ret

000028ea <phySetChannel>:
*****************************************************************************/
void PHY_Wakeup(void)
{
  TRXPR_REG_s.slptr = 0;
  phySetRxState();
  phyState = PHY_STATE_IDLE;
    28ea:	80 91 0e 1f 	lds	r24, 0x1F0E
    28ee:	98 2f       	mov	r25, r24
    28f0:	9f 70       	andi	r25, 0x0F	; 15
    28f2:	e4 e5       	ldi	r30, 0x54	; 84
    28f4:	f1 e0       	ldi	r31, 0x01	; 1
    28f6:	80 81       	ld	r24, Z
    28f8:	80 7f       	andi	r24, 0xF0	; 240
    28fa:	89 2b       	or	r24, r25
    28fc:	80 83       	st	Z, r24
    28fe:	80 91 0e 1f 	lds	r24, 0x1F0E
    2902:	88 23       	and	r24, r24
    2904:	29 f0       	breq	.+10     	; 0x2910 <phySetChannel+0x26>
    2906:	80 91 0f 1f 	lds	r24, 0x1F0F
    290a:	80 93 53 01 	sts	0x0153, r24
    290e:	08 95       	ret
    2910:	80 91 0f 1f 	lds	r24, 0x1F0F
    2914:	98 2f       	mov	r25, r24
    2916:	9f 71       	andi	r25, 0x1F	; 31
    2918:	e8 e4       	ldi	r30, 0x48	; 72
    291a:	f1 e0       	ldi	r31, 0x01	; 1
    291c:	80 81       	ld	r24, Z
    291e:	80 7e       	andi	r24, 0xE0	; 224
    2920:	89 2b       	or	r24, r25
    2922:	80 83       	st	Z, r24
    2924:	08 95       	ret

00002926 <phyTrxSetState>:
    2926:	93 e0       	ldi	r25, 0x03	; 3
    2928:	90 93 42 01 	sts	0x0142, r25
    292c:	e1 e4       	ldi	r30, 0x41	; 65
    292e:	f1 e0       	ldi	r31, 0x01	; 1
    2930:	90 81       	ld	r25, Z
    2932:	9f 71       	andi	r25, 0x1F	; 31
    2934:	98 30       	cpi	r25, 0x08	; 8
    2936:	e1 f7       	brne	.-8      	; 0x2930 <phyTrxSetState+0xa>
    2938:	80 93 42 01 	sts	0x0142, r24
    293c:	e1 e4       	ldi	r30, 0x41	; 65
    293e:	f1 e0       	ldi	r31, 0x01	; 1
    2940:	90 81       	ld	r25, Z
    2942:	9f 71       	andi	r25, 0x1F	; 31
    2944:	98 13       	cpse	r25, r24
    2946:	fc cf       	rjmp	.-8      	; 0x2940 <phyTrxSetState+0x1a>
    2948:	08 95       	ret

0000294a <phySetRxState>:
    294a:	88 e0       	ldi	r24, 0x08	; 8
    294c:	ec df       	rcall	.-40     	; 0x2926 <phyTrxSetState>
    294e:	8f ef       	ldi	r24, 0xFF	; 255
    2950:	80 93 4f 01 	sts	0x014F, r24
    2954:	80 91 10 1f 	lds	r24, 0x1F10
    2958:	88 23       	and	r24, r24
    295a:	11 f0       	breq	.+4      	; 0x2960 <phySetRxState+0x16>
    295c:	86 e1       	ldi	r24, 0x16	; 22
    295e:	e3 cf       	rjmp	.-58     	; 0x2926 <phyTrxSetState>
    2960:	08 95       	ret

00002962 <PHY_SetRxState>:
    2962:	80 93 10 1f 	sts	0x1F10, r24
    2966:	f1 cf       	rjmp	.-30     	; 0x294a <phySetRxState>
    2968:	08 95       	ret

0000296a <PHY_SetChannel>:
    296a:	80 93 0f 1f 	sts	0x1F0F, r24
    296e:	bd cf       	rjmp	.-134    	; 0x28ea <phySetChannel>
    2970:	08 95       	ret

00002972 <PHY_SetPanId>:
    2972:	cf 93       	push	r28
    2974:	df 93       	push	r29
    2976:	1f 92       	push	r1
    2978:	1f 92       	push	r1
    297a:	cd b7       	in	r28, 0x3d	; 61
    297c:	de b7       	in	r29, 0x3e	; 62
    297e:	9a 83       	std	Y+2, r25	; 0x02
    2980:	89 83       	std	Y+1, r24	; 0x01
    2982:	80 93 62 01 	sts	0x0162, r24
    2986:	8a 81       	ldd	r24, Y+2	; 0x02
    2988:	80 93 63 01 	sts	0x0163, r24
    298c:	0f 90       	pop	r0
    298e:	0f 90       	pop	r0
    2990:	df 91       	pop	r29
    2992:	cf 91       	pop	r28
    2994:	08 95       	ret

00002996 <PHY_SetShortAddr>:
    2996:	cf 93       	push	r28
    2998:	df 93       	push	r29
    299a:	1f 92       	push	r1
    299c:	1f 92       	push	r1
    299e:	cd b7       	in	r28, 0x3d	; 61
    29a0:	de b7       	in	r29, 0x3e	; 62
    29a2:	9a 83       	std	Y+2, r25	; 0x02
    29a4:	89 83       	std	Y+1, r24	; 0x01
    29a6:	80 93 60 01 	sts	0x0160, r24
    29aa:	8a 81       	ldd	r24, Y+2	; 0x02
    29ac:	80 93 61 01 	sts	0x0161, r24
    29b0:	0f 90       	pop	r0
    29b2:	0f 90       	pop	r0
    29b4:	df 91       	pop	r29
    29b6:	cf 91       	pop	r28
    29b8:	08 95       	ret

000029ba <PHY_DataReq>:
}

/*************************************************************************//**
*****************************************************************************/
void PHY_DataReq(uint8_t *data, uint8_t size)
{
    29ba:	0f 93       	push	r16
    29bc:	1f 93       	push	r17
    29be:	cf 93       	push	r28
    29c0:	8c 01       	movw	r16, r24
    29c2:	c6 2f       	mov	r28, r22
  phyTrxSetState(TRX_CMD_TX_ARET_ON);
    29c4:	89 e1       	ldi	r24, 0x19	; 25
    29c6:	af df       	rcall	.-162    	; 0x2926 <phyTrxSetState>

  IRQ_STATUS_REG = IRQ_CLEAR_VALUE;
    29c8:	8f ef       	ldi	r24, 0xFF	; 255
    29ca:	80 93 4f 01 	sts	0x014F, r24

  TRX_FRAME_BUFFER(0) = size + PHY_CRC_SIZE;
    29ce:	82 e0       	ldi	r24, 0x02	; 2
    29d0:	8c 0f       	add	r24, r28
    29d2:	80 93 80 01 	sts	0x0180, r24
  for (uint8_t i = 0; i < size; i++)
    29d6:	cc 23       	and	r28, r28
    29d8:	81 f0       	breq	.+32     	; 0x29fa <PHY_DataReq+0x40>
    29da:	f8 01       	movw	r30, r16
    29dc:	c1 50       	subi	r28, 0x01	; 1
    29de:	2c 2f       	mov	r18, r28
    29e0:	30 e0       	ldi	r19, 0x00	; 0
    29e2:	2f 5f       	subi	r18, 0xFF	; 255
    29e4:	3f 4f       	sbci	r19, 0xFF	; 255
    29e6:	c8 01       	movw	r24, r16
    29e8:	82 0f       	add	r24, r18
    29ea:	93 1f       	adc	r25, r19
    29ec:	a1 e8       	ldi	r26, 0x81	; 129
    29ee:	b1 e0       	ldi	r27, 0x01	; 1
    TRX_FRAME_BUFFER(i+1) = data[i];
    29f0:	21 91       	ld	r18, Z+
    29f2:	2d 93       	st	X+, r18
  phyTrxSetState(TRX_CMD_TX_ARET_ON);

  IRQ_STATUS_REG = IRQ_CLEAR_VALUE;

  TRX_FRAME_BUFFER(0) = size + PHY_CRC_SIZE;
  for (uint8_t i = 0; i < size; i++)
    29f4:	e8 17       	cp	r30, r24
    29f6:	f9 07       	cpc	r31, r25
    29f8:	d9 f7       	brne	.-10     	; 0x29f0 <PHY_DataReq+0x36>
    TRX_FRAME_BUFFER(i+1) = data[i];

  phyState = PHY_STATE_TX_WAIT_END;
    29fa:	83 e0       	ldi	r24, 0x03	; 3
    29fc:	80 93 91 1f 	sts	0x1F91, r24
  TRX_STATE_REG = TRX_CMD_TX_START;
    2a00:	82 e0       	ldi	r24, 0x02	; 2
    2a02:	80 93 42 01 	sts	0x0142, r24
}
    2a06:	cf 91       	pop	r28
    2a08:	1f 91       	pop	r17
    2a0a:	0f 91       	pop	r16
    2a0c:	08 95       	ret

00002a0e <PHY_RandomReq>:

#ifdef PHY_ENABLE_RANDOM_NUMBER_GENERATOR
/*************************************************************************//**
*****************************************************************************/
uint16_t PHY_RandomReq(void)
{
    2a0e:	ef 92       	push	r14
    2a10:	ff 92       	push	r15
    2a12:	0f 93       	push	r16
    2a14:	1f 93       	push	r17
    2a16:	cf 93       	push	r28
    2a18:	df 93       	push	r29
  uint16_t rnd = 0;

  TRX_RPC_REG = 0x00;
    2a1a:	10 92 56 01 	sts	0x0156, r1

  phyTrxSetState(TRX_CMD_RX_ON);
    2a1e:	86 e0       	ldi	r24, 0x06	; 6
    2a20:	82 df       	rcall	.-252    	; 0x2926 <phyTrxSetState>
    2a22:	c0 e0       	ldi	r28, 0x00	; 0
    2a24:	d0 e0       	ldi	r29, 0x00	; 0
#ifdef PHY_ENABLE_RANDOM_NUMBER_GENERATOR
/*************************************************************************//**
*****************************************************************************/
uint16_t PHY_RandomReq(void)
{
  uint16_t rnd = 0;
    2a26:	e1 2c       	mov	r14, r1
    2a28:	f1 2c       	mov	r15, r1
  phyTrxSetState(TRX_CMD_RX_ON);

  for (uint8_t i = 0; i < 16; i += 2)
  {
    HAL_Delay(RANDOM_NUMBER_UPDATE_INTERVAL);
    rnd |= PHY_RSSI_REG_s.rndValue << i;
    2a2a:	06 e4       	ldi	r16, 0x46	; 70
    2a2c:	11 e0       	ldi	r17, 0x01	; 1

  phyTrxSetState(TRX_CMD_RX_ON);

  for (uint8_t i = 0; i < 16; i += 2)
  {
    HAL_Delay(RANDOM_NUMBER_UPDATE_INTERVAL);
    2a2e:	81 e0       	ldi	r24, 0x01	; 1
    2a30:	0e 94 83 0c 	call	0x1906	; 0x1906 <HAL_Delay>
    rnd |= PHY_RSSI_REG_s.rndValue << i;
    2a34:	f8 01       	movw	r30, r16
    2a36:	20 81       	ld	r18, Z
    2a38:	22 95       	swap	r18
    2a3a:	26 95       	lsr	r18
    2a3c:	27 70       	andi	r18, 0x07	; 7
    2a3e:	23 70       	andi	r18, 0x03	; 3
    2a40:	30 e0       	ldi	r19, 0x00	; 0
    2a42:	0c 2e       	mov	r0, r28
    2a44:	02 c0       	rjmp	.+4      	; 0x2a4a <PHY_RandomReq+0x3c>
    2a46:	22 0f       	add	r18, r18
    2a48:	33 1f       	adc	r19, r19
    2a4a:	0a 94       	dec	r0
    2a4c:	e2 f7       	brpl	.-8      	; 0x2a46 <PHY_RandomReq+0x38>
    2a4e:	e2 2a       	or	r14, r18
    2a50:	f3 2a       	or	r15, r19
    2a52:	22 96       	adiw	r28, 0x02	; 2

  TRX_RPC_REG = 0x00;

  phyTrxSetState(TRX_CMD_RX_ON);

  for (uint8_t i = 0; i < 16; i += 2)
    2a54:	c0 31       	cpi	r28, 0x10	; 16
    2a56:	d1 05       	cpc	r29, r1
    2a58:	51 f7       	brne	.-44     	; 0x2a2e <PHY_RandomReq+0x20>
  {
    HAL_Delay(RANDOM_NUMBER_UPDATE_INTERVAL);
    rnd |= PHY_RSSI_REG_s.rndValue << i;
  }

  phyTrxSetState(TRX_CMD_TRX_OFF);
    2a5a:	88 e0       	ldi	r24, 0x08	; 8
    2a5c:	64 df       	rcall	.-312    	; 0x2926 <phyTrxSetState>

  TRX_RPC_REG = TRX_RPC_REG_VALUE;
    2a5e:	8b ee       	ldi	r24, 0xEB	; 235
    2a60:	80 93 56 01 	sts	0x0156, r24

  phySetRxState();
    2a64:	72 df       	rcall	.-284    	; 0x294a <phySetRxState>

  return rnd;
}
    2a66:	c7 01       	movw	r24, r14
    2a68:	df 91       	pop	r29
    2a6a:	cf 91       	pop	r28
    2a6c:	1f 91       	pop	r17
    2a6e:	0f 91       	pop	r16
    2a70:	ff 90       	pop	r15
    2a72:	ef 90       	pop	r14
    2a74:	08 95       	ret

00002a76 <PHY_Init>:
/*************************************************************************//**
*****************************************************************************/
void PHY_Init(void)
{
  //Rest transceiver
  TRXPR_REG_s.trxrst = 1;
    2a76:	e9 e3       	ldi	r30, 0x39	; 57
    2a78:	f1 e0       	ldi	r31, 0x01	; 1
    2a7a:	80 81       	ld	r24, Z
    2a7c:	81 60       	ori	r24, 0x01	; 1
    2a7e:	80 83       	st	Z, r24

  phyRxState = false;
    2a80:	10 92 10 1f 	sts	0x1F10, r1
  phyBand = 0;
    2a84:	10 92 0e 1f 	sts	0x1F0E, r1
  phyState = PHY_STATE_IDLE;
    2a88:	81 e0       	ldi	r24, 0x01	; 1
    2a8a:	80 93 91 1f 	sts	0x1F91, r24

  //off transceiver
  phyTrxSetState(TRX_CMD_TRX_OFF);
    2a8e:	88 e0       	ldi	r24, 0x08	; 8
    2a90:	4a df       	rcall	.-364    	; 0x2926 <phyTrxSetState>
  //transceiver power reduction mode
  TRX_RPC_REG = TRX_RPC_REG_VALUE;
    2a92:	8b ee       	ldi	r24, 0xEB	; 235
    2a94:	80 93 56 01 	sts	0x0156, r24
  //If this bit is set, the next received frame will be protected and not overwritten by following frames
  TRX_CTRL_2_REG_s.rxSafeMode = 1;
    2a98:	ec e4       	ldi	r30, 0x4C	; 76
    2a9a:	f1 e0       	ldi	r31, 0x01	; 1
    2a9c:	80 81       	ld	r24, Z
    2a9e:	80 68       	ori	r24, 0x80	; 128
    2aa0:	80 83       	st	Z, r24

#ifdef PHY_ENABLE_RANDOM_NUMBER_GENERATOR
  CSMA_SEED_0_REG = (uint8_t)PHY_RandomReq();
    2aa2:	b5 df       	rcall	.-150    	; 0x2a0e <PHY_RandomReq>
    2aa4:	80 93 6d 01 	sts	0x016D, r24
    2aa8:	08 95       	ret

00002aaa <PHY_EncryptReq>:

#ifdef PHY_ENABLE_AES_MODULE
/*************************************************************************//**
*****************************************************************************/
void PHY_EncryptReq(uint8_t *text, uint8_t *key)
{
    2aaa:	cf 93       	push	r28
    2aac:	df 93       	push	r29
    2aae:	fb 01       	movw	r30, r22
    2ab0:	ab 01       	movw	r20, r22
    2ab2:	40 5f       	subi	r20, 0xF0	; 240
    2ab4:	5f 4f       	sbci	r21, 0xFF	; 255
  for (uint8_t i = 0; i < AES_BLOCK_SIZE; i++)
    AES_KEY = key[i];
    2ab6:	af e3       	ldi	r26, 0x3F	; 63
    2ab8:	b1 e0       	ldi	r27, 0x01	; 1
    2aba:	21 91       	ld	r18, Z+
    2abc:	2c 93       	st	X, r18
#ifdef PHY_ENABLE_AES_MODULE
/*************************************************************************//**
*****************************************************************************/
void PHY_EncryptReq(uint8_t *text, uint8_t *key)
{
  for (uint8_t i = 0; i < AES_BLOCK_SIZE; i++)
    2abe:	e4 17       	cp	r30, r20
    2ac0:	f5 07       	cpc	r31, r21
    2ac2:	d9 f7       	brne	.-10     	; 0x2aba <PHY_EncryptReq+0x10>
    AES_KEY = key[i];

  AES_CTRL = (0<<AES_CTRL_DIR) | (0<<AES_CTRL_MODE);
    2ac4:	10 92 3c 01 	sts	0x013C, r1
    2ac8:	dc 01       	movw	r26, r24
    2aca:	9c 01       	movw	r18, r24
    2acc:	20 5f       	subi	r18, 0xF0	; 240
    2ace:	3f 4f       	sbci	r19, 0xFF	; 255
    2ad0:	fc 01       	movw	r30, r24

  for (uint8_t i = 0; i < AES_BLOCK_SIZE; i++)
    AES_STATE = text[i];
    2ad2:	ce e3       	ldi	r28, 0x3E	; 62
    2ad4:	d1 e0       	ldi	r29, 0x01	; 1
    2ad6:	81 91       	ld	r24, Z+
    2ad8:	88 83       	st	Y, r24
  for (uint8_t i = 0; i < AES_BLOCK_SIZE; i++)
    AES_KEY = key[i];

  AES_CTRL = (0<<AES_CTRL_DIR) | (0<<AES_CTRL_MODE);

  for (uint8_t i = 0; i < AES_BLOCK_SIZE; i++)
    2ada:	e2 17       	cp	r30, r18
    2adc:	f3 07       	cpc	r31, r19
    2ade:	d9 f7       	brne	.-10     	; 0x2ad6 <PHY_EncryptReq+0x2c>
    AES_STATE = text[i];

  AES_CTRL |= (1<<AES_CTRL_REQUEST);
    2ae0:	ec e3       	ldi	r30, 0x3C	; 60
    2ae2:	f1 e0       	ldi	r31, 0x01	; 1
    2ae4:	80 81       	ld	r24, Z
    2ae6:	80 68       	ori	r24, 0x80	; 128
    2ae8:	80 83       	st	Z, r24

  while (0 == (AES_STATUS & (1<<AES_STATUS_RY)));
    2aea:	ed e3       	ldi	r30, 0x3D	; 61
    2aec:	f1 e0       	ldi	r31, 0x01	; 1
    2aee:	80 81       	ld	r24, Z
    2af0:	80 ff       	sbrs	r24, 0
    2af2:	fd cf       	rjmp	.-6      	; 0x2aee <PHY_EncryptReq+0x44>

  for (uint8_t i = 0; i < AES_BLOCK_SIZE; i++)
    text[i] = AES_STATE;
    2af4:	ee e3       	ldi	r30, 0x3E	; 62
    2af6:	f1 e0       	ldi	r31, 0x01	; 1
    2af8:	80 81       	ld	r24, Z
    2afa:	8d 93       	st	X+, r24

  AES_CTRL |= (1<<AES_CTRL_REQUEST);

  while (0 == (AES_STATUS & (1<<AES_STATUS_RY)));

  for (uint8_t i = 0; i < AES_BLOCK_SIZE; i++)
    2afc:	a2 17       	cp	r26, r18
    2afe:	b3 07       	cpc	r27, r19
    2b00:	d9 f7       	brne	.-10     	; 0x2af8 <PHY_EncryptReq+0x4e>
    text[i] = AES_STATE;
}
    2b02:	df 91       	pop	r29
    2b04:	cf 91       	pop	r28
    2b06:	08 95       	ret

00002b08 <PHY_TaskHandler>:
}

/*************************************************************************//**
*****************************************************************************/
void PHY_TaskHandler(void)
{
    2b08:	1f 93       	push	r17
    2b0a:	cf 93       	push	r28
    2b0c:	df 93       	push	r29
    2b0e:	00 d0       	rcall	.+0      	; 0x2b10 <PHY_TaskHandler+0x8>
    2b10:	1f 92       	push	r1
    2b12:	1f 92       	push	r1
    2b14:	cd b7       	in	r28, 0x3d	; 61
    2b16:	de b7       	in	r29, 0x3e	; 62
  if (PHY_STATE_SLEEP == phyState)
    2b18:	80 91 91 1f 	lds	r24, 0x1F91
    2b1c:	82 30       	cpi	r24, 0x02	; 2
    2b1e:	09 f4       	brne	.+2      	; 0x2b22 <PHY_TaskHandler+0x1a>
    2b20:	65 c0       	rjmp	.+202    	; 0x2bec <PHY_TaskHandler+0xe4>
    return;

  if (IRQ_STATUS_REG_s.rxEnd)
    2b22:	80 91 4f 01 	lds	r24, 0x014F
    2b26:	83 ff       	sbrs	r24, 3
    2b28:	3e c0       	rjmp	.+124    	; 0x2ba6 <PHY_TaskHandler+0x9e>
  {
    PHY_DataInd_t ind;
    uint8_t size = TST_RX_LENGTH_REG;
    2b2a:	a0 91 7b 01 	lds	r26, 0x017B

    for (uint8_t i = 0; i < size + 1/*lqi*/; i++)
    2b2e:	6a 2f       	mov	r22, r26
    2b30:	70 e0       	ldi	r23, 0x00	; 0
    2b32:	ab 01       	movw	r20, r22
    2b34:	4f 5f       	subi	r20, 0xFF	; 255
    2b36:	5f 4f       	sbci	r21, 0xFF	; 255
    2b38:	80 e0       	ldi	r24, 0x00	; 0
    2b3a:	90 e0       	ldi	r25, 0x00	; 0
    2b3c:	20 e0       	ldi	r18, 0x00	; 0
      phyRxBuffer[i] = TRX_FRAME_BUFFER(i);
    2b3e:	fc 01       	movw	r30, r24
    2b40:	e0 58       	subi	r30, 0x80	; 128
    2b42:	fe 4f       	sbci	r31, 0xFE	; 254
    2b44:	30 81       	ld	r19, Z
    2b46:	fc 01       	movw	r30, r24
    2b48:	ef 5e       	subi	r30, 0xEF	; 239
    2b4a:	f0 4e       	sbci	r31, 0xE0	; 224
    2b4c:	30 83       	st	Z, r19
  if (IRQ_STATUS_REG_s.rxEnd)
  {
    PHY_DataInd_t ind;
    uint8_t size = TST_RX_LENGTH_REG;

    for (uint8_t i = 0; i < size + 1/*lqi*/; i++)
    2b4e:	2f 5f       	subi	r18, 0xFF	; 255
    2b50:	82 2f       	mov	r24, r18
    2b52:	90 e0       	ldi	r25, 0x00	; 0
    2b54:	84 17       	cp	r24, r20
    2b56:	95 07       	cpc	r25, r21
    2b58:	94 f3       	brlt	.-28     	; 0x2b3e <PHY_TaskHandler+0x36>
      phyRxBuffer[i] = TRX_FRAME_BUFFER(i);

    ind.data = phyRxBuffer;
    2b5a:	81 e1       	ldi	r24, 0x11	; 17
    2b5c:	9f e1       	ldi	r25, 0x1F	; 31
    2b5e:	9a 83       	std	Y+2, r25	; 0x02
    2b60:	89 83       	std	Y+1, r24	; 0x01
    ind.size = size - PHY_CRC_SIZE;
    2b62:	a2 50       	subi	r26, 0x02	; 2
    2b64:	ab 83       	std	Y+3, r26	; 0x03
    ind.lqi  = phyRxBuffer[size];
    2b66:	fb 01       	movw	r30, r22
    2b68:	ef 5e       	subi	r30, 0xEF	; 239
    2b6a:	f0 4e       	sbci	r31, 0xE0	; 224
    2b6c:	80 81       	ld	r24, Z
    2b6e:	8c 83       	std	Y+4, r24	; 0x04
    ind.rssi = (int8_t)PHY_ED_LEVEL_REG + PHY_RSSI_BASE_VAL;
    2b70:	80 91 47 01 	lds	r24, 0x0147
    2b74:	8a 55       	subi	r24, 0x5A	; 90
    2b76:	8d 83       	std	Y+5, r24	; 0x05
    PHY_DataInd(&ind);
    2b78:	ce 01       	movw	r24, r28
    2b7a:	01 96       	adiw	r24, 0x01	; 1
    2b7c:	02 d9       	rcall	.-3580   	; 0x1d82 <PHY_DataInd>

    while (TRX_STATUS_RX_AACK_ON != TRX_STATUS_REG_s.trxStatus);
    2b7e:	e1 e4       	ldi	r30, 0x41	; 65
    2b80:	f1 e0       	ldi	r31, 0x01	; 1
    2b82:	80 81       	ld	r24, Z
    2b84:	8f 71       	andi	r24, 0x1F	; 31
    2b86:	86 31       	cpi	r24, 0x16	; 22
    2b88:	e1 f7       	brne	.-8      	; 0x2b82 <PHY_TaskHandler+0x7a>

    IRQ_STATUS_REG_s.rxEnd = 1;
    2b8a:	ef e4       	ldi	r30, 0x4F	; 79
    2b8c:	f1 e0       	ldi	r31, 0x01	; 1
    2b8e:	80 81       	ld	r24, Z
    2b90:	88 60       	ori	r24, 0x08	; 8
    2b92:	80 83       	st	Z, r24
    TRX_CTRL_2_REG_s.rxSafeMode = 0;
    2b94:	ec e4       	ldi	r30, 0x4C	; 76
    2b96:	f1 e0       	ldi	r31, 0x01	; 1
    2b98:	80 81       	ld	r24, Z
    2b9a:	8f 77       	andi	r24, 0x7F	; 127
    2b9c:	80 83       	st	Z, r24
    TRX_CTRL_2_REG_s.rxSafeMode = 1;
    2b9e:	80 81       	ld	r24, Z
    2ba0:	80 68       	ori	r24, 0x80	; 128
    2ba2:	80 83       	st	Z, r24
    2ba4:	23 c0       	rjmp	.+70     	; 0x2bec <PHY_TaskHandler+0xe4>
  }

  else if (IRQ_STATUS_REG_s.txEnd)
    2ba6:	80 91 4f 01 	lds	r24, 0x014F
    2baa:	86 ff       	sbrs	r24, 6
    2bac:	1f c0       	rjmp	.+62     	; 0x2bec <PHY_TaskHandler+0xe4>
  {
    if (TRX_STATUS_TX_ARET_ON == TRX_STATUS_REG_s.trxStatus)
    2bae:	80 91 41 01 	lds	r24, 0x0141
    2bb2:	8f 71       	andi	r24, 0x1F	; 31
    2bb4:	89 31       	cpi	r24, 0x19	; 25
    2bb6:	a9 f4       	brne	.+42     	; 0x2be2 <PHY_TaskHandler+0xda>
    {
      uint8_t status = TRX_STATE_REG_s.tracStatus;
    2bb8:	10 91 42 01 	lds	r17, 0x0142
    2bbc:	12 95       	swap	r17
    2bbe:	16 95       	lsr	r17
    2bc0:	17 70       	andi	r17, 0x07	; 7

      if (TRAC_STATUS_SUCCESS == status)
    2bc2:	49 f0       	breq	.+18     	; 0x2bd6 <PHY_TaskHandler+0xce>
        status = PHY_STATUS_SUCCESS;
      else if (TRAC_STATUS_CHANNEL_ACCESS_FAILURE == status)
    2bc4:	13 30       	cpi	r17, 0x03	; 3
    2bc6:	21 f0       	breq	.+8      	; 0x2bd0 <PHY_TaskHandler+0xc8>
        status = PHY_STATUS_CHANNEL_ACCESS_FAILURE;
      else if (TRAC_STATUS_NO_ACK == status)
    2bc8:	15 30       	cpi	r17, 0x05	; 5
    2bca:	21 f0       	breq	.+8      	; 0x2bd4 <PHY_TaskHandler+0xcc>
        status = PHY_STATUS_NO_ACK;
      else
        status = PHY_STATUS_ERROR;
    2bcc:	13 e0       	ldi	r17, 0x03	; 3
    2bce:	03 c0       	rjmp	.+6      	; 0x2bd6 <PHY_TaskHandler+0xce>
      uint8_t status = TRX_STATE_REG_s.tracStatus;

      if (TRAC_STATUS_SUCCESS == status)
        status = PHY_STATUS_SUCCESS;
      else if (TRAC_STATUS_CHANNEL_ACCESS_FAILURE == status)
        status = PHY_STATUS_CHANNEL_ACCESS_FAILURE;
    2bd0:	11 e0       	ldi	r17, 0x01	; 1
    2bd2:	01 c0       	rjmp	.+2      	; 0x2bd6 <PHY_TaskHandler+0xce>
      else if (TRAC_STATUS_NO_ACK == status)
        status = PHY_STATUS_NO_ACK;
    2bd4:	12 e0       	ldi	r17, 0x02	; 2
      else
        status = PHY_STATUS_ERROR;

      phySetRxState();
    2bd6:	b9 de       	rcall	.-654    	; 0x294a <phySetRxState>
      phyState = PHY_STATE_IDLE;
    2bd8:	81 e0       	ldi	r24, 0x01	; 1
    2bda:	80 93 91 1f 	sts	0x1F91, r24

      PHY_DataConf(status);
    2bde:	81 2f       	mov	r24, r17
    2be0:	c2 dd       	rcall	.-1148   	; 0x2766 <PHY_DataConf>
    }

    IRQ_STATUS_REG_s.txEnd = 1;
    2be2:	ef e4       	ldi	r30, 0x4F	; 79
    2be4:	f1 e0       	ldi	r31, 0x01	; 1
    2be6:	80 81       	ld	r24, Z
    2be8:	80 64       	ori	r24, 0x40	; 64
    2bea:	80 83       	st	Z, r24
  }
}
    2bec:	0f 90       	pop	r0
    2bee:	0f 90       	pop	r0
    2bf0:	0f 90       	pop	r0
    2bf2:	0f 90       	pop	r0
    2bf4:	0f 90       	pop	r0
    2bf6:	df 91       	pop	r29
    2bf8:	cf 91       	pop	r28
    2bfa:	1f 91       	pop	r17
    2bfc:	08 95       	ret

00002bfe <SYS_Init>:
/*************************************************************************//**
*****************************************************************************/
void SYS_Init(void)
{
  //prescaler defined, timer 4 defined
  HAL_Init();
    2bfe:	0e 94 6f 0c 	call	0x18de	; 0x18de <HAL_Init>
  //initialize application timer
  SYS_TimerInit();
    2c02:	72 d0       	rcall	.+228    	; 0x2ce8 <SYS_TimerInit>
  //transceiver initialization
  PHY_Init();
    2c04:	38 df       	rcall	.-400    	; 0x2a76 <PHY_Init>
  //mesh network initialization
  NWK_Init();
    2c06:	0e 94 ce 0c 	call	0x199c	; 0x199c <NWK_Init>
  PHY_TX_PWR = 0x00; //For maximizing Tx power
    2c0a:	10 92 45 01 	sts	0x0145, r1
    2c0e:	08 95       	ret

00002c10 <SYS_TaskHandler>:

/*************************************************************************//**
*****************************************************************************/
void SYS_TaskHandler(void)
{
  PHY_TaskHandler();
    2c10:	7b df       	rcall	.-266    	; 0x2b08 <PHY_TaskHandler>
  NWK_TaskHandler();
    2c12:	0e 94 fa 0c 	call	0x19f4	; 0x19f4 <NWK_TaskHandler>
  SYS_TimerTaskHandler();
    2c16:	cf c0       	rjmp	.+414    	; 0x2db6 <SYS_TimerTaskHandler>
    2c18:	08 95       	ret

00002c1a <SYS_EncryptReq>:
/*************************************************************************//**
*****************************************************************************/
void SYS_EncryptReq(uint8_t *text, uint8_t *key)
{
#if SYS_SECURITY_MODE == 0
  PHY_EncryptReq(text, key);
    2c1a:	47 df       	rcall	.-370    	; 0x2aaa <PHY_EncryptReq>
  text[3] ^= text[1];
  xtea(&text[2], key);

#endif

  SYS_EncryptConf();
    2c1c:	34 cb       	rjmp	.-2456   	; 0x2286 <SYS_EncryptConf>
    2c1e:	08 95       	ret

00002c20 <placeTimer>:
}

/*************************************************************************//**
*****************************************************************************/
static void placeTimer(SYS_Timer_t *timer)
{
    2c20:	0f 93       	push	r16
    2c22:	1f 93       	push	r17
    2c24:	cf 93       	push	r28
    2c26:	df 93       	push	r29
    2c28:	ec 01       	movw	r28, r24
  if (timers)
    2c2a:	80 91 92 1f 	lds	r24, 0x1F92
    2c2e:	90 91 93 1f 	lds	r25, 0x1F93
    2c32:	00 97       	sbiw	r24, 0x00	; 0
    2c34:	09 f4       	brne	.+2      	; 0x2c38 <placeTimer+0x18>
    2c36:	45 c0       	rjmp	.+138    	; 0x2cc2 <placeTimer+0xa2>
  {
    SYS_Timer_t *prev = NULL;
    uint32_t timeout = timer->interval;
    2c38:	4e 81       	ldd	r20, Y+6	; 0x06
    2c3a:	5f 81       	ldd	r21, Y+7	; 0x07
    2c3c:	68 85       	ldd	r22, Y+8	; 0x08
    2c3e:	79 85       	ldd	r23, Y+9	; 0x09

    for (SYS_Timer_t *t = timers; t; t = t->next)
    {
      if (timeout < t->timeout)
    2c40:	fc 01       	movw	r30, r24
    2c42:	02 81       	ldd	r16, Z+2	; 0x02
    2c44:	13 81       	ldd	r17, Z+3	; 0x03
    2c46:	24 81       	ldd	r18, Z+4	; 0x04
    2c48:	35 81       	ldd	r19, Z+5	; 0x05
    2c4a:	40 17       	cp	r20, r16
    2c4c:	51 07       	cpc	r21, r17
    2c4e:	62 07       	cpc	r22, r18
    2c50:	73 07       	cpc	r23, r19
    2c52:	60 f0       	brcs	.+24     	; 0x2c6c <placeTimer+0x4c>
    2c54:	dc 01       	movw	r26, r24
    2c56:	17 c0       	rjmp	.+46     	; 0x2c86 <placeTimer+0x66>
    2c58:	02 81       	ldd	r16, Z+2	; 0x02
    2c5a:	13 81       	ldd	r17, Z+3	; 0x03
    2c5c:	24 81       	ldd	r18, Z+4	; 0x04
    2c5e:	35 81       	ldd	r19, Z+5	; 0x05
    2c60:	40 17       	cp	r20, r16
    2c62:	51 07       	cpc	r21, r17
    2c64:	62 07       	cpc	r22, r18
    2c66:	73 07       	cpc	r23, r19
    2c68:	68 f4       	brcc	.+26     	; 0x2c84 <placeTimer+0x64>
    2c6a:	03 c0       	rjmp	.+6      	; 0x2c72 <placeTimer+0x52>
  if (timers)
  {
    SYS_Timer_t *prev = NULL;
    uint32_t timeout = timer->interval;

    for (SYS_Timer_t *t = timers; t; t = t->next)
    2c6c:	fc 01       	movw	r30, r24
*****************************************************************************/
static void placeTimer(SYS_Timer_t *timer)
{
  if (timers)
  {
    SYS_Timer_t *prev = NULL;
    2c6e:	a0 e0       	ldi	r26, 0x00	; 0
    2c70:	b0 e0       	ldi	r27, 0x00	; 0

    for (SYS_Timer_t *t = timers; t; t = t->next)
    {
      if (timeout < t->timeout)
      {
         t->timeout -= timeout;
    2c72:	04 1b       	sub	r16, r20
    2c74:	15 0b       	sbc	r17, r21
    2c76:	26 0b       	sbc	r18, r22
    2c78:	37 0b       	sbc	r19, r23
    2c7a:	02 83       	std	Z+2, r16	; 0x02
    2c7c:	13 83       	std	Z+3, r17	; 0x03
    2c7e:	24 83       	std	Z+4, r18	; 0x04
    2c80:	35 83       	std	Z+5, r19	; 0x05
         break;
    2c82:	0a c0       	rjmp	.+20     	; 0x2c98 <placeTimer+0x78>
  if (timers)
  {
    SYS_Timer_t *prev = NULL;
    uint32_t timeout = timer->interval;

    for (SYS_Timer_t *t = timers; t; t = t->next)
    2c84:	df 01       	movw	r26, r30
      {
         t->timeout -= timeout;
         break;
      }
      else
        timeout -= t->timeout;
    2c86:	40 1b       	sub	r20, r16
    2c88:	51 0b       	sbc	r21, r17
    2c8a:	62 0b       	sbc	r22, r18
    2c8c:	73 0b       	sbc	r23, r19
  if (timers)
  {
    SYS_Timer_t *prev = NULL;
    uint32_t timeout = timer->interval;

    for (SYS_Timer_t *t = timers; t; t = t->next)
    2c8e:	ed 91       	ld	r30, X+
    2c90:	fc 91       	ld	r31, X
    2c92:	11 97       	sbiw	r26, 0x01	; 1
    2c94:	30 97       	sbiw	r30, 0x00	; 0
    2c96:	01 f7       	brne	.-64     	; 0x2c58 <placeTimer+0x38>
        timeout -= t->timeout;

      prev = t;
    }

    timer->timeout = timeout;
    2c98:	4a 83       	std	Y+2, r20	; 0x02
    2c9a:	5b 83       	std	Y+3, r21	; 0x03
    2c9c:	6c 83       	std	Y+4, r22	; 0x04
    2c9e:	7d 83       	std	Y+5, r23	; 0x05

    if (prev)
    2ca0:	10 97       	sbiw	r26, 0x00	; 0
    2ca2:	41 f0       	breq	.+16     	; 0x2cb4 <placeTimer+0x94>
    {
      timer->next = prev->next;
    2ca4:	8d 91       	ld	r24, X+
    2ca6:	9c 91       	ld	r25, X
    2ca8:	11 97       	sbiw	r26, 0x01	; 1
    2caa:	99 83       	std	Y+1, r25	; 0x01
    2cac:	88 83       	st	Y, r24
      prev->next = timer;
    2cae:	cd 93       	st	X+, r28
    2cb0:	dc 93       	st	X, r29
    2cb2:	15 c0       	rjmp	.+42     	; 0x2cde <placeTimer+0xbe>
    }
    else
    {
      timer->next = timers;
    2cb4:	99 83       	std	Y+1, r25	; 0x01
    2cb6:	88 83       	st	Y, r24
      timers = timer;
    2cb8:	d0 93 93 1f 	sts	0x1F93, r29
    2cbc:	c0 93 92 1f 	sts	0x1F92, r28
    2cc0:	0e c0       	rjmp	.+28     	; 0x2cde <placeTimer+0xbe>
    }
  }
  else
  {
    timer->next = NULL;
    2cc2:	19 82       	std	Y+1, r1	; 0x01
    2cc4:	18 82       	st	Y, r1
    timer->timeout = timer->interval;
    2cc6:	8e 81       	ldd	r24, Y+6	; 0x06
    2cc8:	9f 81       	ldd	r25, Y+7	; 0x07
    2cca:	a8 85       	ldd	r26, Y+8	; 0x08
    2ccc:	b9 85       	ldd	r27, Y+9	; 0x09
    2cce:	8a 83       	std	Y+2, r24	; 0x02
    2cd0:	9b 83       	std	Y+3, r25	; 0x03
    2cd2:	ac 83       	std	Y+4, r26	; 0x04
    2cd4:	bd 83       	std	Y+5, r27	; 0x05
    timers = timer;
    2cd6:	d0 93 93 1f 	sts	0x1F93, r29
    2cda:	c0 93 92 1f 	sts	0x1F92, r28
  }
}
    2cde:	df 91       	pop	r29
    2ce0:	cf 91       	pop	r28
    2ce2:	1f 91       	pop	r17
    2ce4:	0f 91       	pop	r16
    2ce6:	08 95       	ret

00002ce8 <SYS_TimerInit>:

/*************************************************************************//**
*****************************************************************************/
void SYS_TimerInit(void)
{
  timers = NULL;
    2ce8:	10 92 93 1f 	sts	0x1F93, r1
    2cec:	10 92 92 1f 	sts	0x1F92, r1
    2cf0:	08 95       	ret

00002cf2 <SYS_TimerStop>:
}

/*************************************************************************//**
*****************************************************************************/
void SYS_TimerStop(SYS_Timer_t *timer)
{
    2cf2:	cf 93       	push	r28
    2cf4:	df 93       	push	r29
  SYS_Timer_t *prev = NULL;

  for (SYS_Timer_t *t = timers; t; t = t->next)
    2cf6:	a0 91 92 1f 	lds	r26, 0x1F92
    2cfa:	b0 91 93 1f 	lds	r27, 0x1F93
    2cfe:	10 97       	sbiw	r26, 0x00	; 0
    2d00:	91 f1       	breq	.+100    	; 0x2d66 <SYS_TimerStop+0x74>
  {
    if (t == timer)
    2d02:	a8 17       	cp	r26, r24
    2d04:	b9 07       	cpc	r27, r25
    2d06:	51 f5       	brne	.+84     	; 0x2d5c <SYS_TimerStop+0x6a>
    2d08:	0a c0       	rjmp	.+20     	; 0x2d1e <SYS_TimerStop+0x2c>
    2d0a:	8e 17       	cp	r24, r30
    2d0c:	9f 07       	cpc	r25, r31
    2d0e:	29 f5       	brne	.+74     	; 0x2d5a <SYS_TimerStop+0x68>
    {
      if (prev)
    2d10:	10 97       	sbiw	r26, 0x00	; 0
    2d12:	31 f0       	breq	.+12     	; 0x2d20 <SYS_TimerStop+0x2e>
        prev->next = t->next;
    2d14:	20 81       	ld	r18, Z
    2d16:	31 81       	ldd	r19, Z+1	; 0x01
    2d18:	2d 93       	st	X+, r18
    2d1a:	3c 93       	st	X, r19
    2d1c:	07 c0       	rjmp	.+14     	; 0x2d2c <SYS_TimerStop+0x3a>
*****************************************************************************/
void SYS_TimerStop(SYS_Timer_t *timer)
{
  SYS_Timer_t *prev = NULL;

  for (SYS_Timer_t *t = timers; t; t = t->next)
    2d1e:	fc 01       	movw	r30, r24
    if (t == timer)
    {
      if (prev)
        prev->next = t->next;
      else
        timers = t->next;
    2d20:	20 81       	ld	r18, Z
    2d22:	31 81       	ldd	r19, Z+1	; 0x01
    2d24:	30 93 93 1f 	sts	0x1F93, r19
    2d28:	20 93 92 1f 	sts	0x1F92, r18

      if (t->next)
    2d2c:	01 90       	ld	r0, Z+
    2d2e:	f0 81       	ld	r31, Z
    2d30:	e0 2d       	mov	r30, r0
    2d32:	30 97       	sbiw	r30, 0x00	; 0
    2d34:	c1 f0       	breq	.+48     	; 0x2d66 <SYS_TimerStop+0x74>
        t->next->timeout += timer->timeout;
    2d36:	42 81       	ldd	r20, Z+2	; 0x02
    2d38:	53 81       	ldd	r21, Z+3	; 0x03
    2d3a:	64 81       	ldd	r22, Z+4	; 0x04
    2d3c:	75 81       	ldd	r23, Z+5	; 0x05
    2d3e:	ec 01       	movw	r28, r24
    2d40:	8a 81       	ldd	r24, Y+2	; 0x02
    2d42:	9b 81       	ldd	r25, Y+3	; 0x03
    2d44:	ac 81       	ldd	r26, Y+4	; 0x04
    2d46:	bd 81       	ldd	r27, Y+5	; 0x05
    2d48:	84 0f       	add	r24, r20
    2d4a:	95 1f       	adc	r25, r21
    2d4c:	a6 1f       	adc	r26, r22
    2d4e:	b7 1f       	adc	r27, r23
    2d50:	82 83       	std	Z+2, r24	; 0x02
    2d52:	93 83       	std	Z+3, r25	; 0x03
    2d54:	a4 83       	std	Z+4, r26	; 0x04
    2d56:	b5 83       	std	Z+5, r27	; 0x05
    2d58:	06 c0       	rjmp	.+12     	; 0x2d66 <SYS_TimerStop+0x74>
*****************************************************************************/
void SYS_TimerStop(SYS_Timer_t *timer)
{
  SYS_Timer_t *prev = NULL;

  for (SYS_Timer_t *t = timers; t; t = t->next)
    2d5a:	df 01       	movw	r26, r30
    2d5c:	ed 91       	ld	r30, X+
    2d5e:	fc 91       	ld	r31, X
    2d60:	11 97       	sbiw	r26, 0x01	; 1
    2d62:	30 97       	sbiw	r30, 0x00	; 0
    2d64:	91 f6       	brne	.-92     	; 0x2d0a <SYS_TimerStop+0x18>

      break;
    }
    prev = t;
  }
}
    2d66:	df 91       	pop	r29
    2d68:	cf 91       	pop	r28
    2d6a:	08 95       	ret

00002d6c <SYS_TimerStarted>:

/*************************************************************************//**
*****************************************************************************/
bool SYS_TimerStarted(SYS_Timer_t *timer)
{
  for (SYS_Timer_t *t = timers; t; t = t->next)
    2d6c:	e0 91 92 1f 	lds	r30, 0x1F92
    2d70:	f0 91 93 1f 	lds	r31, 0x1F93
    2d74:	30 97       	sbiw	r30, 0x00	; 0
    2d76:	71 f0       	breq	.+28     	; 0x2d94 <SYS_TimerStarted+0x28>
    if (t == timer)
    2d78:	e8 17       	cp	r30, r24
    2d7a:	f9 07       	cpc	r31, r25
    2d7c:	21 f4       	brne	.+8      	; 0x2d86 <SYS_TimerStarted+0x1a>
    2d7e:	0c c0       	rjmp	.+24     	; 0x2d98 <SYS_TimerStarted+0x2c>
    2d80:	8e 17       	cp	r24, r30
    2d82:	9f 07       	cpc	r25, r31
    2d84:	59 f0       	breq	.+22     	; 0x2d9c <SYS_TimerStarted+0x30>

/*************************************************************************//**
*****************************************************************************/
bool SYS_TimerStarted(SYS_Timer_t *timer)
{
  for (SYS_Timer_t *t = timers; t; t = t->next)
    2d86:	01 90       	ld	r0, Z+
    2d88:	f0 81       	ld	r31, Z
    2d8a:	e0 2d       	mov	r30, r0
    2d8c:	30 97       	sbiw	r30, 0x00	; 0
    2d8e:	c1 f7       	brne	.-16     	; 0x2d80 <SYS_TimerStarted+0x14>
    if (t == timer)
      return true;
  return false;
    2d90:	80 e0       	ldi	r24, 0x00	; 0
    2d92:	08 95       	ret
    2d94:	80 e0       	ldi	r24, 0x00	; 0
    2d96:	08 95       	ret
*****************************************************************************/
bool SYS_TimerStarted(SYS_Timer_t *timer)
{
  for (SYS_Timer_t *t = timers; t; t = t->next)
    if (t == timer)
      return true;
    2d98:	81 e0       	ldi	r24, 0x01	; 1
    2d9a:	08 95       	ret
    2d9c:	81 e0       	ldi	r24, 0x01	; 1
  return false;
}
    2d9e:	08 95       	ret

00002da0 <SYS_TimerStart>:
}

/*************************************************************************//**
*****************************************************************************/
void SYS_TimerStart(SYS_Timer_t *timer)
{
    2da0:	cf 93       	push	r28
    2da2:	df 93       	push	r29
    2da4:	ec 01       	movw	r28, r24
  if (!SYS_TimerStarted(timer))
    2da6:	e2 df       	rcall	.-60     	; 0x2d6c <SYS_TimerStarted>
    2da8:	81 11       	cpse	r24, r1
    2daa:	02 c0       	rjmp	.+4      	; 0x2db0 <SYS_TimerStart+0x10>
    placeTimer(timer);
    2dac:	ce 01       	movw	r24, r28
    2dae:	38 df       	rcall	.-400    	; 0x2c20 <placeTimer>
}
    2db0:	df 91       	pop	r29
    2db2:	cf 91       	pop	r28
    2db4:	08 95       	ret

00002db6 <SYS_TimerTaskHandler>:
}

/*************************************************************************//**
*****************************************************************************/
void SYS_TimerTaskHandler(void)
{
    2db6:	cf 92       	push	r12
    2db8:	df 92       	push	r13
    2dba:	ef 92       	push	r14
    2dbc:	ff 92       	push	r15
    2dbe:	cf 93       	push	r28
    2dc0:	df 93       	push	r29
  uint32_t elapsed;
  uint8_t cnt;

  if (0 == halTimerIrqCount)
    2dc2:	80 91 20 21 	lds	r24, 0x2120
    2dc6:	88 23       	and	r24, r24
    2dc8:	09 f4       	brne	.+2      	; 0x2dcc <SYS_TimerTaskHandler+0x16>
    2dca:	59 c0       	rjmp	.+178    	; 0x2e7e <SYS_TimerTaskHandler+0xc8>
    return;

  ATOMIC_SECTION_ENTER
    2dcc:	8f b7       	in	r24, 0x3f	; 63
    2dce:	f8 94       	cli
    cnt = halTimerIrqCount;
    2dd0:	c0 90 20 21 	lds	r12, 0x2120
    halTimerIrqCount = 0;
    2dd4:	10 92 20 21 	sts	0x2120, r1
  ATOMIC_SECTION_LEAVE
    2dd8:	8f bf       	out	0x3f, r24	; 63

  elapsed = cnt * HAL_TIMER_INTERVAL;
    2dda:	d1 2c       	mov	r13, r1
    2ddc:	e1 2c       	mov	r14, r1
    2dde:	f1 2c       	mov	r15, r1
    2de0:	cc 0c       	add	r12, r12
    2de2:	dd 1c       	adc	r13, r13
    2de4:	ee 1c       	adc	r14, r14
    2de6:	ff 1c       	adc	r15, r15
    2de8:	d7 01       	movw	r26, r14
    2dea:	c6 01       	movw	r24, r12
    2dec:	88 0f       	add	r24, r24
    2dee:	99 1f       	adc	r25, r25
    2df0:	aa 1f       	adc	r26, r26
    2df2:	bb 1f       	adc	r27, r27
    2df4:	88 0f       	add	r24, r24
    2df6:	99 1f       	adc	r25, r25
    2df8:	aa 1f       	adc	r26, r26
    2dfa:	bb 1f       	adc	r27, r27
    2dfc:	c8 0e       	add	r12, r24
    2dfe:	d9 1e       	adc	r13, r25
    2e00:	ea 1e       	adc	r14, r26
    2e02:	fb 1e       	adc	r15, r27

  while (timers && (timers->timeout <= elapsed))
    2e04:	c0 91 92 1f 	lds	r28, 0x1F92
    2e08:	d0 91 93 1f 	lds	r29, 0x1F93
    2e0c:	20 97       	sbiw	r28, 0x00	; 0
    2e0e:	b9 f1       	breq	.+110    	; 0x2e7e <SYS_TimerTaskHandler+0xc8>
    2e10:	8a 81       	ldd	r24, Y+2	; 0x02
    2e12:	9b 81       	ldd	r25, Y+3	; 0x03
    2e14:	ac 81       	ldd	r26, Y+4	; 0x04
    2e16:	bd 81       	ldd	r27, Y+5	; 0x05
    2e18:	c8 16       	cp	r12, r24
    2e1a:	d9 06       	cpc	r13, r25
    2e1c:	ea 06       	cpc	r14, r26
    2e1e:	fb 06       	cpc	r15, r27
    2e20:	10 f1       	brcs	.+68     	; 0x2e66 <SYS_TimerTaskHandler+0xb0>
  {
    SYS_Timer_t *timer = timers;

    elapsed -= timers->timeout;
    2e22:	c8 1a       	sub	r12, r24
    2e24:	d9 0a       	sbc	r13, r25
    2e26:	ea 0a       	sbc	r14, r26
    2e28:	fb 0a       	sbc	r15, r27
    timers = timers->next;
    2e2a:	88 81       	ld	r24, Y
    2e2c:	99 81       	ldd	r25, Y+1	; 0x01
    2e2e:	90 93 93 1f 	sts	0x1F93, r25
    2e32:	80 93 92 1f 	sts	0x1F92, r24
    if (SYS_TIMER_PERIODIC_MODE == timer->mode)
    2e36:	8a 85       	ldd	r24, Y+10	; 0x0a
    2e38:	81 30       	cpi	r24, 0x01	; 1
    2e3a:	11 f4       	brne	.+4      	; 0x2e40 <SYS_TimerTaskHandler+0x8a>
      placeTimer(timer);
    2e3c:	ce 01       	movw	r24, r28
    2e3e:	f0 de       	rcall	.-544    	; 0x2c20 <placeTimer>
    timer->handler(timer);
    2e40:	eb 85       	ldd	r30, Y+11	; 0x0b
    2e42:	fc 85       	ldd	r31, Y+12	; 0x0c
    2e44:	ce 01       	movw	r24, r28
    2e46:	19 95       	eicall
    halTimerIrqCount = 0;
  ATOMIC_SECTION_LEAVE

  elapsed = cnt * HAL_TIMER_INTERVAL;

  while (timers && (timers->timeout <= elapsed))
    2e48:	c0 91 92 1f 	lds	r28, 0x1F92
    2e4c:	d0 91 93 1f 	lds	r29, 0x1F93
    2e50:	20 97       	sbiw	r28, 0x00	; 0
    2e52:	a9 f0       	breq	.+42     	; 0x2e7e <SYS_TimerTaskHandler+0xc8>
    2e54:	8a 81       	ldd	r24, Y+2	; 0x02
    2e56:	9b 81       	ldd	r25, Y+3	; 0x03
    2e58:	ac 81       	ldd	r26, Y+4	; 0x04
    2e5a:	bd 81       	ldd	r27, Y+5	; 0x05
    2e5c:	c8 16       	cp	r12, r24
    2e5e:	d9 06       	cpc	r13, r25
    2e60:	ea 06       	cpc	r14, r26
    2e62:	fb 06       	cpc	r15, r27
    2e64:	f0 f6       	brcc	.-68     	; 0x2e22 <SYS_TimerTaskHandler+0x6c>
      placeTimer(timer);
    timer->handler(timer);
  }

  if (timers)
    timers->timeout -= elapsed;
    2e66:	8a 81       	ldd	r24, Y+2	; 0x02
    2e68:	9b 81       	ldd	r25, Y+3	; 0x03
    2e6a:	ac 81       	ldd	r26, Y+4	; 0x04
    2e6c:	bd 81       	ldd	r27, Y+5	; 0x05
    2e6e:	8c 19       	sub	r24, r12
    2e70:	9d 09       	sbc	r25, r13
    2e72:	ae 09       	sbc	r26, r14
    2e74:	bf 09       	sbc	r27, r15
    2e76:	8a 83       	std	Y+2, r24	; 0x02
    2e78:	9b 83       	std	Y+3, r25	; 0x03
    2e7a:	ac 83       	std	Y+4, r26	; 0x04
    2e7c:	bd 83       	std	Y+5, r27	; 0x05
}
    2e7e:	df 91       	pop	r29
    2e80:	cf 91       	pop	r28
    2e82:	ff 90       	pop	r15
    2e84:	ef 90       	pop	r14
    2e86:	df 90       	pop	r13
    2e88:	cf 90       	pop	r12
    2e8a:	08 95       	ret

00002e8c <errorTimerStatusHandler>:
	else
	{
		int_to_ascii((uint8_t)data);
		send_usart_char("\r\n");
	}
}
    2e8c:	80 91 80 20 	lds	r24, 0x2080
    2e90:	8f 5f       	subi	r24, 0xFF	; 255
    2e92:	80 93 80 20 	sts	0x2080, r24
    2e96:	88 23       	and	r24, r24
    2e98:	19 f0       	breq	.+6      	; 0x2ea0 <errorTimerStatusHandler+0x14>
    2e9a:	10 92 80 20 	sts	0x2080, r1
    2e9e:	08 95       	ret
    2ea0:	81 e0       	ldi	r24, 0x01	; 1
    2ea2:	80 93 a5 20 	sts	0x20A5, r24
    2ea6:	08 95       	ret

00002ea8 <appLEDIntervalTimerHandler>:
    2ea8:	8a ea       	ldi	r24, 0xAA	; 170
    2eaa:	90 e2       	ldi	r25, 0x20	; 32
    2eac:	79 cf       	rjmp	.-270    	; 0x2da0 <SYS_TimerStart>
    2eae:	08 95       	ret

00002eb0 <appWPSActivationTimerHandler>:
    2eb0:	80 91 62 20 	lds	r24, 0x2062
    2eb4:	81 30       	cpi	r24, 0x01	; 1
    2eb6:	81 f4       	brne	.+32     	; 0x2ed8 <appWPSActivationTimerHandler+0x28>
    2eb8:	8b ee       	ldi	r24, 0xEB	; 235
    2eba:	90 e2       	ldi	r25, 0x20	; 32
    2ebc:	1a df       	rcall	.-460    	; 0x2cf2 <SYS_TimerStop>
    2ebe:	84 e0       	ldi	r24, 0x04	; 4
    2ec0:	80 93 6c 20 	sts	0x206C, r24
    2ec4:	10 92 67 20 	sts	0x2067, r1
    2ec8:	10 92 66 20 	sts	0x2066, r1
    2ecc:	0e 94 8c 02 	call	0x518	; 0x518 <APP_IbLoadSettings_WPS>
    2ed0:	8c ef       	ldi	r24, 0xFC	; 252
    2ed2:	90 e2       	ldi	r25, 0x20	; 32
    2ed4:	65 cf       	rjmp	.-310    	; 0x2da0 <SYS_TimerStart>
    2ed6:	08 95       	ret
    2ed8:	81 11       	cpse	r24, r1
    2eda:	10 c0       	rjmp	.+32     	; 0x2efc <appWPSActivationTimerHandler+0x4c>
    2edc:	8b ee       	ldi	r24, 0xEB	; 235
    2ede:	90 e2       	ldi	r25, 0x20	; 32
    2ee0:	08 df       	rcall	.-496    	; 0x2cf2 <SYS_TimerStop>
    2ee2:	81 e0       	ldi	r24, 0x01	; 1
    2ee4:	80 93 6c 20 	sts	0x206C, r24
    2ee8:	0e 94 e1 01 	call	0x3c2	; 0x3c2 <APP_IbLoadSettings>
    2eec:	0e 94 b0 03 	call	0x760	; 0x760 <APP_NwkInit>
    2ef0:	8c ef       	ldi	r24, 0xFC	; 252
    2ef2:	90 e2       	ldi	r25, 0x20	; 32
    2ef4:	fe de       	rcall	.-516    	; 0x2cf2 <SYS_TimerStop>
    2ef6:	83 e4       	ldi	r24, 0x43	; 67
    2ef8:	90 e2       	ldi	r25, 0x20	; 32
    2efa:	fb ce       	rjmp	.-522    	; 0x2cf2 <SYS_TimerStop>
    2efc:	08 95       	ret

00002efe <appWPSRequestTimerHandler>:
    2efe:	84 e9       	ldi	r24, 0x94	; 148
    2f00:	9f e1       	ldi	r25, 0x1F	; 31
    2f02:	0c 94 08 3a 	jmp	0x7410	; 0x7410 <request_to_RF>
    2f06:	08 95       	ret

00002f08 <errorTimerWpsHandler>:
    2f08:	81 e0       	ldi	r24, 0x01	; 1
    2f0a:	80 93 3e 20 	sts	0x203E, r24
    2f0e:	80 e4       	ldi	r24, 0x40	; 64
    2f10:	92 e0       	ldi	r25, 0x02	; 2
    2f12:	0c 94 43 2a 	jmp	0x5486	; 0x5486 <send_usart_char>
    2f16:	08 95       	ret

00002f18 <appLEDTimerHandler>:
    2f18:	80 91 11 20 	lds	r24, 0x2011
    2f1c:	82 30       	cpi	r24, 0x02	; 2
    2f1e:	08 f0       	brcs	.+2      	; 0x2f22 <appLEDTimerHandler+0xa>
    2f20:	6a c0       	rjmp	.+212    	; 0x2ff6 <appLEDTimerHandler+0xde>
    2f22:	80 91 28 20 	lds	r24, 0x2028
    2f26:	82 30       	cpi	r24, 0x02	; 2
    2f28:	49 f0       	breq	.+18     	; 0x2f3c <appLEDTimerHandler+0x24>
    2f2a:	18 f4       	brcc	.+6      	; 0x2f32 <appLEDTimerHandler+0x1a>
    2f2c:	81 30       	cpi	r24, 0x01	; 1
    2f2e:	c9 f1       	breq	.+114    	; 0x2fa2 <appLEDTimerHandler+0x8a>
    2f30:	49 c0       	rjmp	.+146    	; 0x2fc4 <appLEDTimerHandler+0xac>
    2f32:	85 30       	cpi	r24, 0x05	; 5
    2f34:	a1 f0       	breq	.+40     	; 0x2f5e <appLEDTimerHandler+0x46>
    2f36:	86 30       	cpi	r24, 0x06	; 6
    2f38:	19 f1       	breq	.+70     	; 0x2f80 <appLEDTimerHandler+0x68>
    2f3a:	44 c0       	rjmp	.+136    	; 0x2fc4 <appLEDTimerHandler+0xac>
    2f3c:	60 91 81 20 	lds	r22, 0x2081
    2f40:	70 91 82 20 	lds	r23, 0x2082
    2f44:	80 91 83 20 	lds	r24, 0x2083
    2f48:	0e 94 c0 0a 	call	0x1580	; 0x1580 <gpio_clr>
    2f4c:	60 91 5f 20 	lds	r22, 0x205F
    2f50:	70 91 60 20 	lds	r23, 0x2060
    2f54:	80 91 61 20 	lds	r24, 0x2061
    2f58:	0e 94 09 0b 	call	0x1612	; 0x1612 <gpio_toggle>
    2f5c:	43 c0       	rjmp	.+134    	; 0x2fe4 <appLEDTimerHandler+0xcc>
    2f5e:	60 91 5f 20 	lds	r22, 0x205F
    2f62:	70 91 60 20 	lds	r23, 0x2060
    2f66:	80 91 61 20 	lds	r24, 0x2061
    2f6a:	0e 94 09 0b 	call	0x1612	; 0x1612 <gpio_toggle>
    2f6e:	60 91 81 20 	lds	r22, 0x2081
    2f72:	70 91 82 20 	lds	r23, 0x2082
    2f76:	80 91 83 20 	lds	r24, 0x2083
    2f7a:	0e 94 c0 0a 	call	0x1580	; 0x1580 <gpio_clr>
    2f7e:	32 c0       	rjmp	.+100    	; 0x2fe4 <appLEDTimerHandler+0xcc>
    2f80:	60 91 5f 20 	lds	r22, 0x205F
    2f84:	70 91 60 20 	lds	r23, 0x2060
    2f88:	80 91 61 20 	lds	r24, 0x2061
    2f8c:	0e 94 09 0b 	call	0x1612	; 0x1612 <gpio_toggle>
    2f90:	60 91 81 20 	lds	r22, 0x2081
    2f94:	70 91 82 20 	lds	r23, 0x2082
    2f98:	80 91 83 20 	lds	r24, 0x2083
    2f9c:	0e 94 09 0b 	call	0x1612	; 0x1612 <gpio_toggle>
    2fa0:	21 c0       	rjmp	.+66     	; 0x2fe4 <appLEDTimerHandler+0xcc>
    2fa2:	60 91 5f 20 	lds	r22, 0x205F
    2fa6:	70 91 60 20 	lds	r23, 0x2060
    2faa:	80 91 61 20 	lds	r24, 0x2061
    2fae:	0e 94 09 0b 	call	0x1612	; 0x1612 <gpio_toggle>
    2fb2:	60 91 81 20 	lds	r22, 0x2081
    2fb6:	70 91 82 20 	lds	r23, 0x2082
    2fba:	80 91 83 20 	lds	r24, 0x2083
    2fbe:	0e 94 c0 0a 	call	0x1580	; 0x1580 <gpio_clr>
    2fc2:	10 c0       	rjmp	.+32     	; 0x2fe4 <appLEDTimerHandler+0xcc>
    2fc4:	60 91 5f 20 	lds	r22, 0x205F
    2fc8:	70 91 60 20 	lds	r23, 0x2060
    2fcc:	80 91 61 20 	lds	r24, 0x2061
    2fd0:	0e 94 c0 0a 	call	0x1580	; 0x1580 <gpio_clr>
    2fd4:	60 91 81 20 	lds	r22, 0x2081
    2fd8:	70 91 82 20 	lds	r23, 0x2082
    2fdc:	80 91 83 20 	lds	r24, 0x2083
    2fe0:	0e 94 c0 0a 	call	0x1580	; 0x1580 <gpio_clr>
    2fe4:	80 91 11 20 	lds	r24, 0x2011
    2fe8:	8f 5f       	subi	r24, 0xFF	; 255
    2fea:	80 93 11 20 	sts	0x2011, r24
    2fee:	8a ea       	ldi	r24, 0xAA	; 170
    2ff0:	90 e2       	ldi	r25, 0x20	; 32
    2ff2:	d6 de       	rcall	.-596    	; 0x2da0 <SYS_TimerStart>
    2ff4:	15 c0       	rjmp	.+42     	; 0x3020 <appLEDTimerHandler+0x108>
    2ff6:	60 91 5f 20 	lds	r22, 0x205F
    2ffa:	70 91 60 20 	lds	r23, 0x2060
    2ffe:	80 91 61 20 	lds	r24, 0x2061
    3002:	0e 94 c0 0a 	call	0x1580	; 0x1580 <gpio_clr>
    3006:	60 91 81 20 	lds	r22, 0x2081
    300a:	70 91 82 20 	lds	r23, 0x2082
    300e:	80 91 83 20 	lds	r24, 0x2083
    3012:	0e 94 c0 0a 	call	0x1580	; 0x1580 <gpio_clr>
    3016:	10 92 11 20 	sts	0x2011, r1
    301a:	84 e8       	ldi	r24, 0x84	; 132
    301c:	90 e2       	ldi	r25, 0x20	; 32
    301e:	c0 de       	rcall	.-640    	; 0x2da0 <SYS_TimerStart>
    3020:	a8 95       	wdr
    3022:	08 95       	ret

00003024 <PNEWELSGpioInit>:
    3024:	ef 92       	push	r14
    3026:	ff 92       	push	r15
    3028:	0f 93       	push	r16
    302a:	1f 93       	push	r17
    302c:	cf 93       	push	r28
    302e:	df 93       	push	r29
    3030:	e7 eb       	ldi	r30, 0xB7	; 183
    3032:	f0 e2       	ldi	r31, 0x20	; 32
    3034:	10 82       	st	Z, r1
    3036:	0f 2e       	mov	r0, r31
    3038:	f3 e0       	ldi	r31, 0x03	; 3
    303a:	ff 2e       	mov	r15, r31
    303c:	f0 2d       	mov	r31, r0
    303e:	f1 82       	std	Z+1, r15	; 0x01
    3040:	8b e0       	ldi	r24, 0x0B	; 11
    3042:	82 83       	std	Z+2, r24	; 0x02
    3044:	60 91 b7 20 	lds	r22, 0x20B7
    3048:	70 91 b8 20 	lds	r23, 0x20B8
    304c:	80 91 b9 20 	lds	r24, 0x20B9
    3050:	4c ed       	ldi	r20, 0xDC	; 220
    3052:	5c e1       	ldi	r21, 0x1C	; 28
    3054:	0e 94 34 0a 	call	0x1468	; 0x1468 <ext_int_set_interrupt_callback>
    3058:	60 91 b7 20 	lds	r22, 0x20B7
    305c:	70 91 b8 20 	lds	r23, 0x20B8
    3060:	80 91 b9 20 	lds	r24, 0x20B9
    3064:	0e 94 1e 0a 	call	0x143c	; 0x143c <ext_int_pcint_init>
    3068:	e0 e5       	ldi	r30, 0x50	; 80
    306a:	f0 e2       	ldi	r31, 0x20	; 32
    306c:	10 82       	st	Z, r1
    306e:	c2 e0       	ldi	r28, 0x02	; 2
    3070:	c1 83       	std	Z+1, r28	; 0x01
    3072:	8a e0       	ldi	r24, 0x0A	; 10
    3074:	82 83       	std	Z+2, r24	; 0x02
    3076:	60 91 50 20 	lds	r22, 0x2050
    307a:	70 91 51 20 	lds	r23, 0x2051
    307e:	80 91 52 20 	lds	r24, 0x2052
    3082:	0e 94 1e 0a 	call	0x143c	; 0x143c <ext_int_pcint_init>
    3086:	e3 e5       	ldi	r30, 0x53	; 83
    3088:	f0 e2       	ldi	r31, 0x20	; 32
    308a:	10 82       	st	Z, r1
    308c:	d1 e0       	ldi	r29, 0x01	; 1
    308e:	d1 83       	std	Z+1, r29	; 0x01
    3090:	89 e0       	ldi	r24, 0x09	; 9
    3092:	82 83       	std	Z+2, r24	; 0x02
    3094:	60 91 53 20 	lds	r22, 0x2053
    3098:	70 91 54 20 	lds	r23, 0x2054
    309c:	80 91 55 20 	lds	r24, 0x2055
    30a0:	0e 94 1e 0a 	call	0x143c	; 0x143c <ext_int_pcint_init>
    30a4:	e9 ef       	ldi	r30, 0xF9	; 249
    30a6:	f0 e2       	ldi	r31, 0x20	; 32
    30a8:	10 82       	st	Z, r1
    30aa:	11 82       	std	Z+1, r1	; 0x01
    30ac:	88 e0       	ldi	r24, 0x08	; 8
    30ae:	82 83       	std	Z+2, r24	; 0x02
    30b0:	60 91 f9 20 	lds	r22, 0x20F9
    30b4:	70 91 fa 20 	lds	r23, 0x20FA
    30b8:	80 91 fb 20 	lds	r24, 0x20FB
    30bc:	0e 94 1e 0a 	call	0x143c	; 0x143c <ext_int_pcint_init>
    30c0:	e6 ea       	ldi	r30, 0xA6	; 166
    30c2:	f0 e2       	ldi	r31, 0x20	; 32
    30c4:	d0 83       	st	Z, r29
    30c6:	68 94       	set
    30c8:	ee 24       	eor	r14, r14
    30ca:	e2 f8       	bld	r14, 2
    30cc:	e1 82       	std	Z+1, r14	; 0x01
    30ce:	60 91 a6 20 	lds	r22, 0x20A6
    30d2:	70 91 a7 20 	lds	r23, 0x20A7
    30d6:	80 91 a8 20 	lds	r24, 0x20A8
    30da:	0e 94 4d 0b 	call	0x169a	; 0x169a <gpio_in>
    30de:	60 91 a6 20 	lds	r22, 0x20A6
    30e2:	70 91 a7 20 	lds	r23, 0x20A7
    30e6:	80 91 a8 20 	lds	r24, 0x20A8
    30ea:	0e 94 ef 0b 	call	0x17de	; 0x17de <gpio_pullup>
    30ee:	ef e5       	ldi	r30, 0x5F	; 95
    30f0:	f0 e2       	ldi	r31, 0x20	; 32
    30f2:	c0 83       	st	Z, r28
    30f4:	05 e0       	ldi	r16, 0x05	; 5
    30f6:	01 83       	std	Z+1, r16	; 0x01
    30f8:	60 91 5f 20 	lds	r22, 0x205F
    30fc:	70 91 60 20 	lds	r23, 0x2060
    3100:	80 91 61 20 	lds	r24, 0x2061
    3104:	0e 94 ab 0b 	call	0x1756	; 0x1756 <gpio_out>
    3108:	e1 e8       	ldi	r30, 0x81	; 129
    310a:	f0 e2       	ldi	r31, 0x20	; 32
    310c:	c0 83       	st	Z, r28
    310e:	17 e0       	ldi	r17, 0x07	; 7
    3110:	11 83       	std	Z+1, r17	; 0x01
    3112:	60 91 81 20 	lds	r22, 0x2081
    3116:	70 91 82 20 	lds	r23, 0x2082
    311a:	80 91 83 20 	lds	r24, 0x2083
    311e:	0e 94 ab 0b 	call	0x1756	; 0x1756 <gpio_out>
    3122:	e3 e9       	ldi	r30, 0x93	; 147
    3124:	f0 e2       	ldi	r31, 0x20	; 32
    3126:	c0 83       	st	Z, r28
    3128:	e1 82       	std	Z+1, r14	; 0x01
    312a:	60 91 93 20 	lds	r22, 0x2093
    312e:	70 91 94 20 	lds	r23, 0x2094
    3132:	80 91 95 20 	lds	r24, 0x2095
    3136:	0e 94 ab 0b 	call	0x1756	; 0x1756 <gpio_out>
    313a:	e3 e6       	ldi	r30, 0x63	; 99
    313c:	f0 e2       	ldi	r31, 0x20	; 32
    313e:	c0 83       	st	Z, r28
    3140:	f1 82       	std	Z+1, r15	; 0x01
    3142:	60 91 63 20 	lds	r22, 0x2063
    3146:	70 91 64 20 	lds	r23, 0x2064
    314a:	80 91 65 20 	lds	r24, 0x2065
    314e:	0e 94 ab 0b 	call	0x1756	; 0x1756 <gpio_out>
    3152:	00 93 41 20 	sts	0x2041, r16
    3156:	60 91 40 20 	lds	r22, 0x2040
    315a:	70 91 41 20 	lds	r23, 0x2041
    315e:	80 91 42 20 	lds	r24, 0x2042
    3162:	0e 94 ab 0b 	call	0x1756	; 0x1756 <gpio_out>
    3166:	0f 2e       	mov	r0, r31
    3168:	f6 e0       	ldi	r31, 0x06	; 6
    316a:	ff 2e       	mov	r15, r31
    316c:	f0 2d       	mov	r31, r0
    316e:	f0 92 15 21 	sts	0x2115, r15
    3172:	60 91 14 21 	lds	r22, 0x2114
    3176:	70 91 15 21 	lds	r23, 0x2115
    317a:	80 91 16 21 	lds	r24, 0x2116
    317e:	0e 94 ab 0b 	call	0x1756	; 0x1756 <gpio_out>
    3182:	10 93 1b 21 	sts	0x211B, r17
    3186:	60 91 1a 21 	lds	r22, 0x211A
    318a:	70 91 1b 21 	lds	r23, 0x211B
    318e:	80 91 1c 21 	lds	r24, 0x211C
    3192:	0e 94 ab 0b 	call	0x1756	; 0x1756 <gpio_out>
    3196:	ee e0       	ldi	r30, 0x0E	; 14
    3198:	f1 e2       	ldi	r31, 0x21	; 33
    319a:	c0 83       	st	Z, r28
    319c:	11 82       	std	Z+1, r1	; 0x01
    319e:	60 91 0e 21 	lds	r22, 0x210E
    31a2:	70 91 0f 21 	lds	r23, 0x210F
    31a6:	80 91 10 21 	lds	r24, 0x2110
    31aa:	0e 94 4d 0b 	call	0x169a	; 0x169a <gpio_in>
    31ae:	60 91 0e 21 	lds	r22, 0x210E
    31b2:	70 91 0f 21 	lds	r23, 0x210F
    31b6:	80 91 10 21 	lds	r24, 0x2110
    31ba:	0e 94 ef 0b 	call	0x17de	; 0x17de <gpio_pullup>
    31be:	e9 e0       	ldi	r30, 0x09	; 9
    31c0:	f1 e2       	ldi	r31, 0x21	; 33
    31c2:	c0 83       	st	Z, r28
    31c4:	d1 83       	std	Z+1, r29	; 0x01
    31c6:	60 91 09 21 	lds	r22, 0x2109
    31ca:	70 91 0a 21 	lds	r23, 0x210A
    31ce:	80 91 0b 21 	lds	r24, 0x210B
    31d2:	0e 94 4d 0b 	call	0x169a	; 0x169a <gpio_in>
    31d6:	60 91 09 21 	lds	r22, 0x2109
    31da:	70 91 0a 21 	lds	r23, 0x210A
    31de:	80 91 0b 21 	lds	r24, 0x210B
    31e2:	0e 94 ef 0b 	call	0x17de	; 0x17de <gpio_pullup>
    31e6:	ec e5       	ldi	r30, 0x5C	; 92
    31e8:	f0 e2       	ldi	r31, 0x20	; 32
    31ea:	c0 83       	st	Z, r28
    31ec:	c1 83       	std	Z+1, r28	; 0x01
    31ee:	60 91 5c 20 	lds	r22, 0x205C
    31f2:	70 91 5d 20 	lds	r23, 0x205D
    31f6:	80 91 5e 20 	lds	r24, 0x205E
    31fa:	0e 94 4d 0b 	call	0x169a	; 0x169a <gpio_in>
    31fe:	60 91 5c 20 	lds	r22, 0x205C
    3202:	70 91 5d 20 	lds	r23, 0x205D
    3206:	80 91 5e 20 	lds	r24, 0x205E
    320a:	0e 94 ef 0b 	call	0x17de	; 0x17de <gpio_pullup>
    320e:	ea eb       	ldi	r30, 0xBA	; 186
    3210:	f0 e2       	ldi	r31, 0x20	; 32
    3212:	d0 83       	st	Z, r29
    3214:	01 83       	std	Z+1, r16	; 0x01
    3216:	60 91 ba 20 	lds	r22, 0x20BA
    321a:	70 91 bb 20 	lds	r23, 0x20BB
    321e:	80 91 bc 20 	lds	r24, 0x20BC
    3222:	0e 94 4d 0b 	call	0x169a	; 0x169a <gpio_in>
    3226:	60 91 ba 20 	lds	r22, 0x20BA
    322a:	70 91 bb 20 	lds	r23, 0x20BB
    322e:	80 91 bc 20 	lds	r24, 0x20BC
    3232:	0e 94 ef 0b 	call	0x17de	; 0x17de <gpio_pullup>
    3236:	e2 e1       	ldi	r30, 0x12	; 18
    3238:	f0 e2       	ldi	r31, 0x20	; 32
    323a:	d0 83       	st	Z, r29
    323c:	f1 82       	std	Z+1, r15	; 0x01
    323e:	60 91 12 20 	lds	r22, 0x2012
    3242:	70 91 13 20 	lds	r23, 0x2013
    3246:	80 91 14 20 	lds	r24, 0x2014
    324a:	0e 94 4d 0b 	call	0x169a	; 0x169a <gpio_in>
    324e:	60 91 12 20 	lds	r22, 0x2012
    3252:	70 91 13 20 	lds	r23, 0x2013
    3256:	80 91 14 20 	lds	r24, 0x2014
    325a:	0e 94 ef 0b 	call	0x17de	; 0x17de <gpio_pullup>
    325e:	e9 e6       	ldi	r30, 0x69	; 105
    3260:	f0 e2       	ldi	r31, 0x20	; 32
    3262:	d0 83       	st	Z, r29
    3264:	11 83       	std	Z+1, r17	; 0x01
    3266:	60 91 69 20 	lds	r22, 0x2069
    326a:	70 91 6a 20 	lds	r23, 0x206A
    326e:	80 91 6b 20 	lds	r24, 0x206B
    3272:	0e 94 4d 0b 	call	0x169a	; 0x169a <gpio_in>
    3276:	60 91 69 20 	lds	r22, 0x2069
    327a:	70 91 6a 20 	lds	r23, 0x206A
    327e:	80 91 6b 20 	lds	r24, 0x206B
    3282:	0e 94 ef 0b 	call	0x17de	; 0x17de <gpio_pullup>
    3286:	df 91       	pop	r29
    3288:	cf 91       	pop	r28
    328a:	1f 91       	pop	r17
    328c:	0f 91       	pop	r16
    328e:	ff 90       	pop	r15
    3290:	ef 90       	pop	r14
    3292:	08 95       	ret

00003294 <pneOperationMode>:
    3294:	0f 93       	push	r16
    3296:	cf 93       	push	r28
    3298:	df 93       	push	r29
    329a:	80 91 6c 20 	lds	r24, 0x206C
    329e:	90 e0       	ldi	r25, 0x00	; 0
    32a0:	87 30       	cpi	r24, 0x07	; 7
    32a2:	91 05       	cpc	r25, r1
    32a4:	08 f0       	brcs	.+2      	; 0x32a8 <pneOperationMode+0x14>
    32a6:	53 c3       	rjmp	.+1702   	; 0x394e <pneOperationMode+0x6ba>
    32a8:	fc 01       	movw	r30, r24
    32aa:	88 27       	eor	r24, r24
    32ac:	ed 59       	subi	r30, 0x9D	; 157
    32ae:	fe 4f       	sbci	r31, 0xFE	; 254
    32b0:	8f 4f       	sbci	r24, 0xFF	; 255
    32b2:	0c 94 c4 50 	jmp	0xa188	; 0xa188 <__tablejump2__>
    32b6:	10 92 62 20 	sts	0x2062, r1
    32ba:	c1 e0       	ldi	r28, 0x01	; 1
    32bc:	c0 93 3e 20 	sts	0x203E, r28
    32c0:	60 91 40 20 	lds	r22, 0x2040
    32c4:	70 91 41 20 	lds	r23, 0x2041
    32c8:	80 91 42 20 	lds	r24, 0x2042
    32cc:	0e 94 c0 0a 	call	0x1580	; 0x1580 <gpio_clr>
    32d0:	e6 e1       	ldi	r30, 0x16	; 22
    32d2:	f0 e2       	ldi	r31, 0x20	; 32
    32d4:	13 86       	std	Z+11, r1	; 0x0b
    32d6:	c3 8b       	std	Z+19, r28	; 0x13
    32d8:	85 e0       	ldi	r24, 0x05	; 5
    32da:	82 8b       	std	Z+18, r24	; 0x12
    32dc:	c1 8b       	std	Z+17, r28	; 0x11
    32de:	84 ef       	ldi	r24, 0xF4	; 244
    32e0:	91 e0       	ldi	r25, 0x01	; 1
    32e2:	a0 e0       	ldi	r26, 0x00	; 0
    32e4:	b0 e0       	ldi	r27, 0x00	; 0
    32e6:	80 93 b0 20 	sts	0x20B0, r24
    32ea:	90 93 b1 20 	sts	0x20B1, r25
    32ee:	a0 93 b2 20 	sts	0x20B2, r26
    32f2:	b0 93 b3 20 	sts	0x20B3, r27
    32f6:	88 ee       	ldi	r24, 0xE8	; 232
    32f8:	93 e0       	ldi	r25, 0x03	; 3
    32fa:	a0 e0       	ldi	r26, 0x00	; 0
    32fc:	b0 e0       	ldi	r27, 0x00	; 0
    32fe:	80 93 8a 20 	sts	0x208A, r24
    3302:	90 93 8b 20 	sts	0x208B, r25
    3306:	a0 93 8c 20 	sts	0x208C, r26
    330a:	b0 93 8d 20 	sts	0x208D, r27
    330e:	80 81       	ld	r24, Z
    3310:	81 30       	cpi	r24, 0x01	; 1
    3312:	81 f4       	brne	.+32     	; 0x3334 <pneOperationMode+0xa0>
    3314:	80 91 a9 20 	lds	r24, 0x20A9
    3318:	81 11       	cpse	r24, r1
    331a:	0c c0       	rjmp	.+24     	; 0x3334 <pneOperationMode+0xa0>
    331c:	60 91 93 20 	lds	r22, 0x2093
    3320:	70 91 94 20 	lds	r23, 0x2094
    3324:	80 91 95 20 	lds	r24, 0x2095
    3328:	0e 94 33 0c 	call	0x1866	; 0x1866 <gpio_read>
    332c:	81 11       	cpse	r24, r1
    332e:	02 c0       	rjmp	.+4      	; 0x3334 <pneOperationMode+0xa0>
    3330:	10 92 6c 20 	sts	0x206C, r1
    3334:	80 91 1e 20 	lds	r24, 0x201E
    3338:	81 30       	cpi	r24, 0x01	; 1
    333a:	21 f0       	breq	.+8      	; 0x3344 <pneOperationMode+0xb0>
    333c:	80 91 19 20 	lds	r24, 0x2019
    3340:	81 30       	cpi	r24, 0x01	; 1
    3342:	11 f4       	brne	.+4      	; 0x3348 <pneOperationMode+0xb4>
    3344:	10 92 6c 20 	sts	0x206C, r1
    3348:	80 91 1a 20 	lds	r24, 0x201A
    334c:	81 30       	cpi	r24, 0x01	; 1
    334e:	19 f4       	brne	.+6      	; 0x3356 <pneOperationMode+0xc2>
    3350:	85 e0       	ldi	r24, 0x05	; 5
    3352:	80 93 6c 20 	sts	0x206C, r24
    3356:	80 91 1f 20 	lds	r24, 0x201F
    335a:	81 30       	cpi	r24, 0x01	; 1
    335c:	19 f4       	brne	.+6      	; 0x3364 <pneOperationMode+0xd0>
    335e:	82 e0       	ldi	r24, 0x02	; 2
    3360:	80 93 6c 20 	sts	0x206C, r24
    3364:	80 91 20 20 	lds	r24, 0x2020
    3368:	81 30       	cpi	r24, 0x01	; 1
    336a:	09 f0       	breq	.+2      	; 0x336e <pneOperationMode+0xda>
    336c:	f0 c2       	rjmp	.+1504   	; 0x394e <pneOperationMode+0x6ba>
    336e:	83 e0       	ldi	r24, 0x03	; 3
    3370:	80 93 6c 20 	sts	0x206C, r24
    3374:	10 92 97 20 	sts	0x2097, r1
    3378:	ea c2       	rjmp	.+1492   	; 0x394e <pneOperationMode+0x6ba>
    337a:	80 91 97 20 	lds	r24, 0x2097
    337e:	81 30       	cpi	r24, 0x01	; 1
    3380:	31 f4       	brne	.+12     	; 0x338e <pneOperationMode+0xfa>
    3382:	80 91 97 20 	lds	r24, 0x2097
    3386:	8f 5f       	subi	r24, 0xFF	; 255
    3388:	80 93 97 20 	sts	0x2097, r24
    338c:	02 c0       	rjmp	.+4      	; 0x3392 <pneOperationMode+0xfe>
    338e:	10 92 97 20 	sts	0x2097, r1
    3392:	10 92 62 20 	sts	0x2062, r1
    3396:	81 e0       	ldi	r24, 0x01	; 1
    3398:	80 93 3e 20 	sts	0x203E, r24
    339c:	e6 e1       	ldi	r30, 0x16	; 22
    339e:	f0 e2       	ldi	r31, 0x20	; 32
    33a0:	82 8b       	std	Z+18, r24	; 0x12
    33a2:	8a ef       	ldi	r24, 0xFA	; 250
    33a4:	90 e0       	ldi	r25, 0x00	; 0
    33a6:	a0 e0       	ldi	r26, 0x00	; 0
    33a8:	b0 e0       	ldi	r27, 0x00	; 0
    33aa:	80 93 b0 20 	sts	0x20B0, r24
    33ae:	90 93 b1 20 	sts	0x20B1, r25
    33b2:	a0 93 b2 20 	sts	0x20B2, r26
    33b6:	b0 93 b3 20 	sts	0x20B3, r27
    33ba:	84 ef       	ldi	r24, 0xF4	; 244
    33bc:	91 e0       	ldi	r25, 0x01	; 1
    33be:	a0 e0       	ldi	r26, 0x00	; 0
    33c0:	b0 e0       	ldi	r27, 0x00	; 0
    33c2:	80 93 8a 20 	sts	0x208A, r24
    33c6:	90 93 8b 20 	sts	0x208B, r25
    33ca:	a0 93 8c 20 	sts	0x208C, r26
    33ce:	b0 93 8d 20 	sts	0x208D, r27
    33d2:	80 89       	ldd	r24, Z+16	; 0x10
    33d4:	81 30       	cpi	r24, 0x01	; 1
    33d6:	21 f0       	breq	.+8      	; 0x33e0 <pneOperationMode+0x14c>
    33d8:	80 91 27 20 	lds	r24, 0x2027
    33dc:	81 11       	cpse	r24, r1
    33de:	14 c0       	rjmp	.+40     	; 0x3408 <pneOperationMode+0x174>
    33e0:	60 91 40 20 	lds	r22, 0x2040
    33e4:	70 91 41 20 	lds	r23, 0x2041
    33e8:	80 91 42 20 	lds	r24, 0x2042
    33ec:	0e 94 c0 0a 	call	0x1580	; 0x1580 <gpio_clr>
    33f0:	10 92 21 20 	sts	0x2021, r1
    33f4:	80 91 e9 20 	lds	r24, 0x20E9
    33f8:	81 11       	cpse	r24, r1
    33fa:	06 c0       	rjmp	.+12     	; 0x3408 <pneOperationMode+0x174>
    33fc:	87 e0       	ldi	r24, 0x07	; 7
    33fe:	0e 94 89 25 	call	0x4b12	; 0x4b12 <store>
    3402:	81 e0       	ldi	r24, 0x01	; 1
    3404:	80 93 e9 20 	sts	0x20E9, r24
    3408:	80 91 26 20 	lds	r24, 0x2026
    340c:	81 11       	cpse	r24, r1
    340e:	0f c0       	rjmp	.+30     	; 0x342e <pneOperationMode+0x19a>
    3410:	80 91 27 20 	lds	r24, 0x2027
    3414:	81 30       	cpi	r24, 0x01	; 1
    3416:	59 f4       	brne	.+22     	; 0x342e <pneOperationMode+0x19a>
    3418:	60 91 40 20 	lds	r22, 0x2040
    341c:	70 91 41 20 	lds	r23, 0x2041
    3420:	80 91 42 20 	lds	r24, 0x2042
    3424:	0e 94 7c 0a 	call	0x14f8	; 0x14f8 <gpio_set>
    3428:	81 e0       	ldi	r24, 0x01	; 1
    342a:	80 93 21 20 	sts	0x2021, r24
    342e:	80 91 0c 21 	lds	r24, 0x210C
    3432:	81 11       	cpse	r24, r1
    3434:	06 c0       	rjmp	.+12     	; 0x3442 <pneOperationMode+0x1ae>
    3436:	84 e0       	ldi	r24, 0x04	; 4
    3438:	0e 94 89 25 	call	0x4b12	; 0x4b12 <store>
    343c:	81 e0       	ldi	r24, 0x01	; 1
    343e:	80 93 0c 21 	sts	0x210C, r24
    3442:	80 91 20 20 	lds	r24, 0x2020
    3446:	81 30       	cpi	r24, 0x01	; 1
    3448:	29 f4       	brne	.+10     	; 0x3454 <pneOperationMode+0x1c0>
    344a:	83 e0       	ldi	r24, 0x03	; 3
    344c:	80 93 6c 20 	sts	0x206C, r24
    3450:	10 92 0c 21 	sts	0x210C, r1
    3454:	80 91 35 20 	lds	r24, 0x2035
    3458:	81 11       	cpse	r24, r1
    345a:	16 c0       	rjmp	.+44     	; 0x3488 <pneOperationMode+0x1f4>
    345c:	80 91 16 20 	lds	r24, 0x2016
    3460:	81 11       	cpse	r24, r1
    3462:	2a c0       	rjmp	.+84     	; 0x34b8 <pneOperationMode+0x224>
    3464:	80 91 1e 20 	lds	r24, 0x201E
    3468:	81 11       	cpse	r24, r1
    346a:	26 c0       	rjmp	.+76     	; 0x34b8 <pneOperationMode+0x224>
    346c:	80 91 19 20 	lds	r24, 0x2019
    3470:	81 11       	cpse	r24, r1
    3472:	22 c0       	rjmp	.+68     	; 0x34b8 <pneOperationMode+0x224>
    3474:	85 e0       	ldi	r24, 0x05	; 5
    3476:	0e 94 89 25 	call	0x4b12	; 0x4b12 <store>
    347a:	10 92 0c 21 	sts	0x210C, r1
    347e:	10 92 e9 20 	sts	0x20E9, r1
    3482:	81 e0       	ldi	r24, 0x01	; 1
    3484:	80 93 6c 20 	sts	0x206C, r24
    3488:	80 91 35 20 	lds	r24, 0x2035
    348c:	81 30       	cpi	r24, 0x01	; 1
    348e:	a1 f4       	brne	.+40     	; 0x34b8 <pneOperationMode+0x224>
    3490:	80 91 1e 20 	lds	r24, 0x201E
    3494:	81 30       	cpi	r24, 0x01	; 1
    3496:	81 f4       	brne	.+32     	; 0x34b8 <pneOperationMode+0x224>
    3498:	60 91 93 20 	lds	r22, 0x2093
    349c:	70 91 94 20 	lds	r23, 0x2094
    34a0:	80 91 95 20 	lds	r24, 0x2095
    34a4:	0e 94 c0 0a 	call	0x1580	; 0x1580 <gpio_clr>
    34a8:	e6 e1       	ldi	r30, 0x16	; 22
    34aa:	f0 e2       	ldi	r31, 0x20	; 32
    34ac:	10 86       	std	Z+8, r1	; 0x08
    34ae:	13 82       	std	Z+3, r1	; 0x03
    34b0:	81 85       	ldd	r24, Z+9	; 0x09
    34b2:	81 30       	cpi	r24, 0x01	; 1
    34b4:	69 f5       	brne	.+90     	; 0x3510 <pneOperationMode+0x27c>
    34b6:	04 c0       	rjmp	.+8      	; 0x34c0 <pneOperationMode+0x22c>
    34b8:	80 91 1f 20 	lds	r24, 0x201F
    34bc:	81 30       	cpi	r24, 0x01	; 1
    34be:	11 f4       	brne	.+4      	; 0x34c4 <pneOperationMode+0x230>
    34c0:	10 92 1f 20 	sts	0x201F, r1
    34c4:	80 91 19 20 	lds	r24, 0x2019
    34c8:	81 30       	cpi	r24, 0x01	; 1
    34ca:	11 f5       	brne	.+68     	; 0x3510 <pneOperationMode+0x27c>
    34cc:	80 91 1a 20 	lds	r24, 0x201A
    34d0:	81 30       	cpi	r24, 0x01	; 1
    34d2:	f1 f4       	brne	.+60     	; 0x3510 <pneOperationMode+0x27c>
    34d4:	80 91 7d 20 	lds	r24, 0x207D
    34d8:	90 91 7e 20 	lds	r25, 0x207E
    34dc:	01 96       	adiw	r24, 0x01	; 1
    34de:	90 93 7e 20 	sts	0x207E, r25
    34e2:	80 93 7d 20 	sts	0x207D, r24
    34e6:	89 3e       	cpi	r24, 0xE9	; 233
    34e8:	9d 4f       	sbci	r25, 0xFD	; 253
    34ea:	08 f4       	brcc	.+2      	; 0x34ee <pneOperationMode+0x25a>
    34ec:	30 c2       	rjmp	.+1120   	; 0x394e <pneOperationMode+0x6ba>
    34ee:	82 e0       	ldi	r24, 0x02	; 2
    34f0:	90 e1       	ldi	r25, 0x10	; 16
    34f2:	0e 94 43 32 	call	0x6486	; 0x6486 <readE2prom>
    34f6:	08 2f       	mov	r16, r24
    34f8:	03 60       	ori	r16, 0x03	; 3
    34fa:	00 93 15 20 	sts	0x2015, r16
    34fe:	20 e1       	ldi	r18, 0x10	; 16
    3500:	42 e0       	ldi	r20, 0x02	; 2
    3502:	65 e4       	ldi	r22, 0x45	; 69
    3504:	8e ea       	ldi	r24, 0xAE	; 174
    3506:	0e 94 ce 24 	call	0x499c	; 0x499c <PNEWELSE2promWrite>
    350a:	0e 94 0b 36 	call	0x6c16	; 0x6c16 <reboot_to_rf>
    350e:	1f c2       	rjmp	.+1086   	; 0x394e <pneOperationMode+0x6ba>
    3510:	10 92 7e 20 	sts	0x207E, r1
    3514:	10 92 7d 20 	sts	0x207D, r1
    3518:	1a c2       	rjmp	.+1076   	; 0x394e <pneOperationMode+0x6ba>
    351a:	c6 e1       	ldi	r28, 0x16	; 22
    351c:	d0 e2       	ldi	r29, 0x20	; 32
    351e:	83 e0       	ldi	r24, 0x03	; 3
    3520:	8a 8b       	std	Y+18, r24	; 0x12
    3522:	60 91 40 20 	lds	r22, 0x2040
    3526:	70 91 41 20 	lds	r23, 0x2041
    352a:	80 91 42 20 	lds	r24, 0x2042
    352e:	0e 94 7c 0a 	call	0x14f8	; 0x14f8 <gpio_set>
    3532:	81 e0       	ldi	r24, 0x01	; 1
    3534:	8b 87       	std	Y+11, r24	; 0x0b
    3536:	10 92 62 20 	sts	0x2062, r1
    353a:	80 93 3e 20 	sts	0x203E, r24
    353e:	80 91 0c 21 	lds	r24, 0x210C
    3542:	81 11       	cpse	r24, r1
    3544:	11 c0       	rjmp	.+34     	; 0x3568 <pneOperationMode+0x2d4>
    3546:	82 e0       	ldi	r24, 0x02	; 2
    3548:	0e 94 89 25 	call	0x4b12	; 0x4b12 <store>
    354c:	81 e0       	ldi	r24, 0x01	; 1
    354e:	80 93 0c 21 	sts	0x210C, r24
    3552:	84 e6       	ldi	r24, 0x64	; 100
    3554:	0e 94 ef 37 	call	0x6fde	; 0x6fde <pend_to_rf>
    3558:	60 91 93 20 	lds	r22, 0x2093
    355c:	70 91 94 20 	lds	r23, 0x2094
    3560:	80 91 95 20 	lds	r24, 0x2095
    3564:	0e 94 7c 0a 	call	0x14f8	; 0x14f8 <gpio_set>
    3568:	80 91 35 20 	lds	r24, 0x2035
    356c:	81 30       	cpi	r24, 0x01	; 1
    356e:	49 f5       	brne	.+82     	; 0x35c2 <pneOperationMode+0x32e>
    3570:	83 e0       	ldi	r24, 0x03	; 3
    3572:	0e 94 89 25 	call	0x4b12	; 0x4b12 <store>
    3576:	62 e0       	ldi	r22, 0x02	; 2
    3578:	81 e6       	ldi	r24, 0x61	; 97
    357a:	0e 94 44 39 	call	0x7288	; 0x7288 <test_completed>
    357e:	10 92 0c 21 	sts	0x210C, r1
    3582:	81 e0       	ldi	r24, 0x01	; 1
    3584:	80 93 97 20 	sts	0x2097, r24
    3588:	10 92 6c 20 	sts	0x206C, r1
    358c:	c6 e1       	ldi	r28, 0x16	; 22
    358e:	d0 e2       	ldi	r29, 0x20	; 32
    3590:	1a 86       	std	Y+10, r1	; 0x0a
    3592:	60 91 93 20 	lds	r22, 0x2093
    3596:	70 91 94 20 	lds	r23, 0x2094
    359a:	80 91 95 20 	lds	r24, 0x2095
    359e:	0e 94 c0 0a 	call	0x1580	; 0x1580 <gpio_clr>
    35a2:	1b 86       	std	Y+11, r1	; 0x0b
    35a4:	60 91 f9 20 	lds	r22, 0x20F9
    35a8:	70 91 fa 20 	lds	r23, 0x20FA
    35ac:	80 91 fb 20 	lds	r24, 0x20FB
    35b0:	0e 94 33 0c 	call	0x1866	; 0x1866 <gpio_read>
    35b4:	91 e0       	ldi	r25, 0x01	; 1
    35b6:	81 11       	cpse	r24, r1
    35b8:	01 c0       	rjmp	.+2      	; 0x35bc <pneOperationMode+0x328>
    35ba:	90 e0       	ldi	r25, 0x00	; 0
    35bc:	90 93 16 20 	sts	0x2016, r25
    35c0:	c6 c1       	rjmp	.+908    	; 0x394e <pneOperationMode+0x6ba>
    35c2:	80 91 26 20 	lds	r24, 0x2026
    35c6:	81 30       	cpi	r24, 0x01	; 1
    35c8:	49 f5       	brne	.+82     	; 0x361c <pneOperationMode+0x388>
    35ca:	83 e0       	ldi	r24, 0x03	; 3
    35cc:	0e 94 89 25 	call	0x4b12	; 0x4b12 <store>
    35d0:	62 e0       	ldi	r22, 0x02	; 2
    35d2:	8e e6       	ldi	r24, 0x6E	; 110
    35d4:	0e 94 44 39 	call	0x7288	; 0x7288 <test_completed>
    35d8:	10 92 0c 21 	sts	0x210C, r1
    35dc:	81 e0       	ldi	r24, 0x01	; 1
    35de:	80 93 97 20 	sts	0x2097, r24
    35e2:	80 93 6c 20 	sts	0x206C, r24
    35e6:	c6 e1       	ldi	r28, 0x16	; 22
    35e8:	d0 e2       	ldi	r29, 0x20	; 32
    35ea:	1a 86       	std	Y+10, r1	; 0x0a
    35ec:	60 91 93 20 	lds	r22, 0x2093
    35f0:	70 91 94 20 	lds	r23, 0x2094
    35f4:	80 91 95 20 	lds	r24, 0x2095
    35f8:	0e 94 c0 0a 	call	0x1580	; 0x1580 <gpio_clr>
    35fc:	1b 86       	std	Y+11, r1	; 0x0b
    35fe:	60 91 f9 20 	lds	r22, 0x20F9
    3602:	70 91 fa 20 	lds	r23, 0x20FA
    3606:	80 91 fb 20 	lds	r24, 0x20FB
    360a:	0e 94 33 0c 	call	0x1866	; 0x1866 <gpio_read>
    360e:	91 e0       	ldi	r25, 0x01	; 1
    3610:	81 11       	cpse	r24, r1
    3612:	01 c0       	rjmp	.+2      	; 0x3616 <pneOperationMode+0x382>
    3614:	90 e0       	ldi	r25, 0x00	; 0
    3616:	90 93 16 20 	sts	0x2016, r25
    361a:	99 c1       	rjmp	.+818    	; 0x394e <pneOperationMode+0x6ba>
    361c:	80 91 20 20 	lds	r24, 0x2020
    3620:	81 30       	cpi	r24, 0x01	; 1
    3622:	09 f4       	brne	.+2      	; 0x3626 <pneOperationMode+0x392>
    3624:	94 c1       	rjmp	.+808    	; 0x394e <pneOperationMode+0x6ba>
    3626:	83 e0       	ldi	r24, 0x03	; 3
    3628:	0e 94 89 25 	call	0x4b12	; 0x4b12 <store>
    362c:	62 e0       	ldi	r22, 0x02	; 2
    362e:	83 e7       	ldi	r24, 0x73	; 115
    3630:	0e 94 44 39 	call	0x7288	; 0x7288 <test_completed>
    3634:	10 92 0c 21 	sts	0x210C, r1
    3638:	81 e0       	ldi	r24, 0x01	; 1
    363a:	80 93 97 20 	sts	0x2097, r24
    363e:	80 93 6c 20 	sts	0x206C, r24
    3642:	c6 e1       	ldi	r28, 0x16	; 22
    3644:	d0 e2       	ldi	r29, 0x20	; 32
    3646:	1a 86       	std	Y+10, r1	; 0x0a
    3648:	60 91 93 20 	lds	r22, 0x2093
    364c:	70 91 94 20 	lds	r23, 0x2094
    3650:	80 91 95 20 	lds	r24, 0x2095
    3654:	0e 94 c0 0a 	call	0x1580	; 0x1580 <gpio_clr>
    3658:	1b 86       	std	Y+11, r1	; 0x0b
    365a:	60 91 f9 20 	lds	r22, 0x20F9
    365e:	70 91 fa 20 	lds	r23, 0x20FA
    3662:	80 91 fb 20 	lds	r24, 0x20FB
    3666:	0e 94 33 0c 	call	0x1866	; 0x1866 <gpio_read>
    366a:	91 e0       	ldi	r25, 0x01	; 1
    366c:	81 11       	cpse	r24, r1
    366e:	01 c0       	rjmp	.+2      	; 0x3672 <pneOperationMode+0x3de>
    3670:	90 e0       	ldi	r25, 0x00	; 0
    3672:	90 93 16 20 	sts	0x2016, r25
    3676:	6b c1       	rjmp	.+726    	; 0x394e <pneOperationMode+0x6ba>
    3678:	e6 e1       	ldi	r30, 0x16	; 22
    367a:	f0 e2       	ldi	r31, 0x20	; 32
    367c:	84 e0       	ldi	r24, 0x04	; 4
    367e:	82 8b       	std	Z+18, r24	; 0x12
    3680:	10 92 62 20 	sts	0x2062, r1
    3684:	81 e0       	ldi	r24, 0x01	; 1
    3686:	80 93 3e 20 	sts	0x203E, r24
    368a:	82 e0       	ldi	r24, 0x02	; 2
    368c:	83 8b       	std	Z+19, r24	; 0x13
    368e:	80 91 0c 21 	lds	r24, 0x210C
    3692:	81 11       	cpse	r24, r1
    3694:	08 c0       	rjmp	.+16     	; 0x36a6 <pneOperationMode+0x412>
    3696:	0e 94 89 25 	call	0x4b12	; 0x4b12 <store>
    369a:	81 e0       	ldi	r24, 0x01	; 1
    369c:	80 93 0c 21 	sts	0x210C, r24
    36a0:	83 e6       	ldi	r24, 0x63	; 99
    36a2:	0e 94 ef 37 	call	0x6fde	; 0x6fde <pend_to_rf>
    36a6:	80 91 16 20 	lds	r24, 0x2016
    36aa:	81 30       	cpi	r24, 0x01	; 1
    36ac:	a9 f4       	brne	.+42     	; 0x36d8 <pneOperationMode+0x444>
    36ae:	80 91 a9 20 	lds	r24, 0x20A9
    36b2:	81 11       	cpse	r24, r1
    36b4:	11 c0       	rjmp	.+34     	; 0x36d8 <pneOperationMode+0x444>
    36b6:	81 e0       	ldi	r24, 0x01	; 1
    36b8:	0e 94 89 25 	call	0x4b12	; 0x4b12 <store>
    36bc:	62 e0       	ldi	r22, 0x02	; 2
    36be:	81 e6       	ldi	r24, 0x61	; 97
    36c0:	0e 94 44 39 	call	0x7288	; 0x7288 <test_completed>
    36c4:	10 92 0c 21 	sts	0x210C, r1
    36c8:	81 e0       	ldi	r24, 0x01	; 1
    36ca:	80 93 97 20 	sts	0x2097, r24
    36ce:	80 93 6c 20 	sts	0x206C, r24
    36d2:	10 92 1f 20 	sts	0x201F, r1
    36d6:	3b c1       	rjmp	.+630    	; 0x394e <pneOperationMode+0x6ba>
    36d8:	80 91 10 20 	lds	r24, 0x2010
    36dc:	90 91 17 20 	lds	r25, 0x2017
    36e0:	98 17       	cp	r25, r24
    36e2:	88 f0       	brcs	.+34     	; 0x3706 <pneOperationMode+0x472>
    36e4:	81 e0       	ldi	r24, 0x01	; 1
    36e6:	0e 94 89 25 	call	0x4b12	; 0x4b12 <store>
    36ea:	62 e0       	ldi	r22, 0x02	; 2
    36ec:	8e e6       	ldi	r24, 0x6E	; 110
    36ee:	0e 94 44 39 	call	0x7288	; 0x7288 <test_completed>
    36f2:	10 92 0c 21 	sts	0x210C, r1
    36f6:	81 e0       	ldi	r24, 0x01	; 1
    36f8:	80 93 97 20 	sts	0x2097, r24
    36fc:	80 93 6c 20 	sts	0x206C, r24
    3700:	10 92 1f 20 	sts	0x201F, r1
    3704:	24 c1       	rjmp	.+584    	; 0x394e <pneOperationMode+0x6ba>
    3706:	80 91 1f 20 	lds	r24, 0x201F
    370a:	81 30       	cpi	r24, 0x01	; 1
    370c:	09 f4       	brne	.+2      	; 0x3710 <pneOperationMode+0x47c>
    370e:	1f c1       	rjmp	.+574    	; 0x394e <pneOperationMode+0x6ba>
    3710:	81 e0       	ldi	r24, 0x01	; 1
    3712:	0e 94 89 25 	call	0x4b12	; 0x4b12 <store>
    3716:	62 e0       	ldi	r22, 0x02	; 2
    3718:	83 e7       	ldi	r24, 0x73	; 115
    371a:	0e 94 44 39 	call	0x7288	; 0x7288 <test_completed>
    371e:	10 92 0c 21 	sts	0x210C, r1
    3722:	81 e0       	ldi	r24, 0x01	; 1
    3724:	80 93 97 20 	sts	0x2097, r24
    3728:	80 93 6c 20 	sts	0x206C, r24
    372c:	10 92 1f 20 	sts	0x201F, r1
    3730:	0e c1       	rjmp	.+540    	; 0x394e <pneOperationMode+0x6ba>
    3732:	80 91 62 20 	lds	r24, 0x2062
    3736:	81 11       	cpse	r24, r1
    3738:	08 c0       	rjmp	.+16     	; 0x374a <pneOperationMode+0x4b6>
    373a:	8b ee       	ldi	r24, 0xEB	; 235
    373c:	90 e2       	ldi	r25, 0x20	; 32
    373e:	30 db       	rcall	.-2464   	; 0x2da0 <SYS_TimerStart>
    3740:	80 91 62 20 	lds	r24, 0x2062
    3744:	8f 5f       	subi	r24, 0xFF	; 255
    3746:	80 93 62 20 	sts	0x2062, r24
    374a:	80 91 7c 20 	lds	r24, 0x207C
    374e:	89 30       	cpi	r24, 0x09	; 9
    3750:	80 f0       	brcs	.+32     	; 0x3772 <pneOperationMode+0x4de>
    3752:	60 91 50 20 	lds	r22, 0x2050
    3756:	70 91 51 20 	lds	r23, 0x2051
    375a:	80 91 52 20 	lds	r24, 0x2052
    375e:	0e 94 33 0c 	call	0x1866	; 0x1866 <gpio_read>
    3762:	91 e0       	ldi	r25, 0x01	; 1
    3764:	81 11       	cpse	r24, r1
    3766:	90 e0       	ldi	r25, 0x00	; 0
    3768:	90 93 1a 20 	sts	0x201A, r25
    376c:	10 92 7c 20 	sts	0x207C, r1
    3770:	03 c0       	rjmp	.+6      	; 0x3778 <pneOperationMode+0x4e4>
    3772:	8f 5f       	subi	r24, 0xFF	; 255
    3774:	80 93 7c 20 	sts	0x207C, r24
    3778:	80 91 1a 20 	lds	r24, 0x201A
    377c:	81 11       	cpse	r24, r1
    377e:	08 c0       	rjmp	.+16     	; 0x3790 <pneOperationMode+0x4fc>
    3780:	8b ee       	ldi	r24, 0xEB	; 235
    3782:	90 e2       	ldi	r25, 0x20	; 32
    3784:	b6 da       	rcall	.-2708   	; 0x2cf2 <SYS_TimerStop>
    3786:	81 e0       	ldi	r24, 0x01	; 1
    3788:	80 93 6c 20 	sts	0x206C, r24
    378c:	10 92 62 20 	sts	0x2062, r1
    3790:	80 91 16 20 	lds	r24, 0x2016
    3794:	81 30       	cpi	r24, 0x01	; 1
    3796:	09 f0       	breq	.+2      	; 0x379a <pneOperationMode+0x506>
    3798:	da c0       	rjmp	.+436    	; 0x394e <pneOperationMode+0x6ba>
    379a:	80 91 a9 20 	lds	r24, 0x20A9
    379e:	81 11       	cpse	r24, r1
    37a0:	d6 c0       	rjmp	.+428    	; 0x394e <pneOperationMode+0x6ba>
    37a2:	10 92 6c 20 	sts	0x206C, r1
    37a6:	10 92 62 20 	sts	0x2062, r1
    37aa:	d1 c0       	rjmp	.+418    	; 0x394e <pneOperationMode+0x6ba>
    37ac:	8d e7       	ldi	r24, 0x7D	; 125
    37ae:	90 e0       	ldi	r25, 0x00	; 0
    37b0:	a0 e0       	ldi	r26, 0x00	; 0
    37b2:	b0 e0       	ldi	r27, 0x00	; 0
    37b4:	80 93 b0 20 	sts	0x20B0, r24
    37b8:	90 93 b1 20 	sts	0x20B1, r25
    37bc:	a0 93 b2 20 	sts	0x20B2, r26
    37c0:	b0 93 b3 20 	sts	0x20B3, r27
    37c4:	8a ef       	ldi	r24, 0xFA	; 250
    37c6:	90 e0       	ldi	r25, 0x00	; 0
    37c8:	a0 e0       	ldi	r26, 0x00	; 0
    37ca:	b0 e0       	ldi	r27, 0x00	; 0
    37cc:	80 93 8a 20 	sts	0x208A, r24
    37d0:	90 93 8b 20 	sts	0x208B, r25
    37d4:	a0 93 8c 20 	sts	0x208C, r26
    37d8:	b0 93 8d 20 	sts	0x208D, r27
    37dc:	10 92 3e 20 	sts	0x203E, r1
    37e0:	82 e0       	ldi	r24, 0x02	; 2
    37e2:	80 93 28 20 	sts	0x2028, r24
    37e6:	80 91 f8 20 	lds	r24, 0x20F8
    37ea:	81 30       	cpi	r24, 0x01	; 1
    37ec:	31 f0       	breq	.+12     	; 0x37fa <pneOperationMode+0x566>
    37ee:	c0 f1       	brcs	.+112    	; 0x3860 <pneOperationMode+0x5cc>
    37f0:	82 30       	cpi	r24, 0x02	; 2
    37f2:	51 f0       	breq	.+20     	; 0x3808 <pneOperationMode+0x574>
    37f4:	83 30       	cpi	r24, 0x03	; 3
    37f6:	89 f0       	breq	.+34     	; 0x381a <pneOperationMode+0x586>
    37f8:	30 c0       	rjmp	.+96     	; 0x385a <pneOperationMode+0x5c6>
    37fa:	8c ef       	ldi	r24, 0xFC	; 252
    37fc:	90 e2       	ldi	r25, 0x20	; 32
    37fe:	79 da       	rcall	.-2830   	; 0x2cf2 <SYS_TimerStop>
    3800:	82 e0       	ldi	r24, 0x02	; 2
    3802:	80 93 f8 20 	sts	0x20F8, r24
    3806:	2c c0       	rjmp	.+88     	; 0x3860 <pneOperationMode+0x5cc>
    3808:	60 e1       	ldi	r22, 0x10	; 16
    380a:	84 e9       	ldi	r24, 0x94	; 148
    380c:	9f e1       	ldi	r25, 0x1F	; 31
    380e:	0e 94 2c 3a 	call	0x7458	; 0x7458 <WPS_OK_Alert>
    3812:	83 e0       	ldi	r24, 0x03	; 3
    3814:	80 93 f8 20 	sts	0x20F8, r24
    3818:	23 c0       	rjmp	.+70     	; 0x3860 <pneOperationMode+0x5cc>
    381a:	80 91 66 20 	lds	r24, 0x2066
    381e:	90 91 67 20 	lds	r25, 0x2067
    3822:	81 35       	cpi	r24, 0x51	; 81
    3824:	23 ec       	ldi	r18, 0xC3	; 195
    3826:	92 07       	cpc	r25, r18
    3828:	90 f0       	brcs	.+36     	; 0x384e <pneOperationMode+0x5ba>
    382a:	80 91 12 21 	lds	r24, 0x2112
    382e:	81 ff       	sbrs	r24, 1
    3830:	0b c0       	rjmp	.+22     	; 0x3848 <pneOperationMode+0x5b4>
    3832:	80 91 12 21 	lds	r24, 0x2112
    3836:	8d 7f       	andi	r24, 0xFD	; 253
    3838:	80 93 12 21 	sts	0x2112, r24
    383c:	60 91 12 21 	lds	r22, 0x2112
    3840:	82 e0       	ldi	r24, 0x02	; 2
    3842:	90 e1       	ldi	r25, 0x10	; 16
    3844:	0e 94 cd 33 	call	0x679a	; 0x679a <writeE2prom>
    3848:	0e 94 0b 36 	call	0x6c16	; 0x6c16 <reboot_to_rf>
    384c:	09 c0       	rjmp	.+18     	; 0x3860 <pneOperationMode+0x5cc>
    384e:	01 96       	adiw	r24, 0x01	; 1
    3850:	90 93 67 20 	sts	0x2067, r25
    3854:	80 93 66 20 	sts	0x2066, r24
    3858:	03 c0       	rjmp	.+6      	; 0x3860 <pneOperationMode+0x5cc>
    385a:	88 e0       	ldi	r24, 0x08	; 8
    385c:	0e 94 6c 37 	call	0x6ed8	; 0x6ed8 <error_to_rf>
    3860:	80 91 7c 20 	lds	r24, 0x207C
    3864:	89 30       	cpi	r24, 0x09	; 9
    3866:	f0 f0       	brcs	.+60     	; 0x38a4 <pneOperationMode+0x610>
    3868:	60 91 50 20 	lds	r22, 0x2050
    386c:	70 91 51 20 	lds	r23, 0x2051
    3870:	80 91 52 20 	lds	r24, 0x2052
    3874:	0e 94 33 0c 	call	0x1866	; 0x1866 <gpio_read>
    3878:	91 e0       	ldi	r25, 0x01	; 1
    387a:	81 11       	cpse	r24, r1
    387c:	90 e0       	ldi	r25, 0x00	; 0
    387e:	90 93 1a 20 	sts	0x201A, r25
    3882:	60 91 f9 20 	lds	r22, 0x20F9
    3886:	70 91 fa 20 	lds	r23, 0x20FA
    388a:	80 91 fb 20 	lds	r24, 0x20FB
    388e:	0e 94 33 0c 	call	0x1866	; 0x1866 <gpio_read>
    3892:	91 e0       	ldi	r25, 0x01	; 1
    3894:	81 11       	cpse	r24, r1
    3896:	01 c0       	rjmp	.+2      	; 0x389a <pneOperationMode+0x606>
    3898:	90 e0       	ldi	r25, 0x00	; 0
    389a:	90 93 16 20 	sts	0x2016, r25
    389e:	10 92 7c 20 	sts	0x207C, r1
    38a2:	03 c0       	rjmp	.+6      	; 0x38aa <pneOperationMode+0x616>
    38a4:	8f 5f       	subi	r24, 0xFF	; 255
    38a6:	80 93 7c 20 	sts	0x207C, r24
    38aa:	80 91 1a 20 	lds	r24, 0x201A
    38ae:	81 30       	cpi	r24, 0x01	; 1
    38b0:	51 f4       	brne	.+20     	; 0x38c6 <pneOperationMode+0x632>
    38b2:	80 91 62 20 	lds	r24, 0x2062
    38b6:	81 30       	cpi	r24, 0x01	; 1
    38b8:	91 f4       	brne	.+36     	; 0x38de <pneOperationMode+0x64a>
    38ba:	8b ee       	ldi	r24, 0xEB	; 235
    38bc:	90 e2       	ldi	r25, 0x20	; 32
    38be:	70 da       	rcall	.-2848   	; 0x2da0 <SYS_TimerStart>
    38c0:	10 92 62 20 	sts	0x2062, r1
    38c4:	0c c0       	rjmp	.+24     	; 0x38de <pneOperationMode+0x64a>
    38c6:	81 11       	cpse	r24, r1
    38c8:	0a c0       	rjmp	.+20     	; 0x38de <pneOperationMode+0x64a>
    38ca:	80 91 62 20 	lds	r24, 0x2062
    38ce:	81 11       	cpse	r24, r1
    38d0:	03 c0       	rjmp	.+6      	; 0x38d8 <pneOperationMode+0x644>
    38d2:	8b ee       	ldi	r24, 0xEB	; 235
    38d4:	90 e2       	ldi	r25, 0x20	; 32
    38d6:	0d da       	rcall	.-3046   	; 0x2cf2 <SYS_TimerStop>
    38d8:	81 e0       	ldi	r24, 0x01	; 1
    38da:	80 93 62 20 	sts	0x2062, r24
    38de:	80 91 16 20 	lds	r24, 0x2016
    38e2:	81 30       	cpi	r24, 0x01	; 1
    38e4:	a1 f5       	brne	.+104    	; 0x394e <pneOperationMode+0x6ba>
    38e6:	80 91 a9 20 	lds	r24, 0x20A9
    38ea:	81 11       	cpse	r24, r1
    38ec:	30 c0       	rjmp	.+96     	; 0x394e <pneOperationMode+0x6ba>
    38ee:	10 92 f8 20 	sts	0x20F8, r1
    38f2:	81 e0       	ldi	r24, 0x01	; 1
    38f4:	80 93 6c 20 	sts	0x206C, r24
    38f8:	0e 94 e1 01 	call	0x3c2	; 0x3c2 <APP_IbLoadSettings>
    38fc:	0e 94 b0 03 	call	0x760	; 0x760 <APP_NwkInit>
    3900:	83 e4       	ldi	r24, 0x43	; 67
    3902:	90 e2       	ldi	r25, 0x20	; 32
    3904:	f6 d9       	rcall	.-3092   	; 0x2cf2 <SYS_TimerStop>
    3906:	8c ef       	ldi	r24, 0xFC	; 252
    3908:	90 e2       	ldi	r25, 0x20	; 32
    390a:	f3 d9       	rcall	.-3098   	; 0x2cf2 <SYS_TimerStop>
    390c:	20 c0       	rjmp	.+64     	; 0x394e <pneOperationMode+0x6ba>
    390e:	80 91 66 20 	lds	r24, 0x2066
    3912:	90 91 67 20 	lds	r25, 0x2067
    3916:	82 30       	cpi	r24, 0x02	; 2
    3918:	91 05       	cpc	r25, r1
    391a:	a0 f0       	brcs	.+40     	; 0x3944 <pneOperationMode+0x6b0>
    391c:	81 e0       	ldi	r24, 0x01	; 1
    391e:	80 93 6c 20 	sts	0x206C, r24
    3922:	10 92 67 20 	sts	0x2067, r1
    3926:	10 92 66 20 	sts	0x2066, r1
    392a:	0e 94 e1 01 	call	0x3c2	; 0x3c2 <APP_IbLoadSettings>
    392e:	0e 94 b0 03 	call	0x760	; 0x760 <APP_NwkInit>
    3932:	60 91 40 20 	lds	r22, 0x2040
    3936:	70 91 41 20 	lds	r23, 0x2041
    393a:	80 91 42 20 	lds	r24, 0x2042
    393e:	0e 94 c0 0a 	call	0x1580	; 0x1580 <gpio_clr>
    3942:	05 c0       	rjmp	.+10     	; 0x394e <pneOperationMode+0x6ba>
    3944:	01 96       	adiw	r24, 0x01	; 1
    3946:	90 93 67 20 	sts	0x2067, r25
    394a:	80 93 66 20 	sts	0x2066, r24
    394e:	df 91       	pop	r29
    3950:	cf 91       	pop	r28
    3952:	0f 91       	pop	r16
    3954:	08 95       	ret

00003956 <pneOutgoingData>:
    3956:	80 91 a5 20 	lds	r24, 0x20A5
    395a:	88 23       	and	r24, r24
    395c:	71 f0       	breq	.+28     	; 0x397a <pneOutgoingData+0x24>
    395e:	80 91 97 20 	lds	r24, 0x2097
    3962:	88 23       	and	r24, r24
    3964:	19 f0       	breq	.+6      	; 0x396c <pneOutgoingData+0x16>
    3966:	10 92 97 20 	sts	0x2097, r1
    396a:	02 c0       	rjmp	.+4      	; 0x3970 <pneOutgoingData+0x1a>
    396c:	0e 94 d4 36 	call	0x6da8	; 0x6da8 <status_send_to_rf>
    3970:	8e e6       	ldi	r24, 0x6E	; 110
    3972:	90 e2       	ldi	r25, 0x20	; 32
    3974:	15 da       	rcall	.-3030   	; 0x2da0 <SYS_TimerStart>
    3976:	10 92 a5 20 	sts	0x20A5, r1
    397a:	08 95       	ret

0000397c <manual_btn_handler>:
    397c:	80 91 20 20 	lds	r24, 0x2020
    3980:	81 11       	cpse	r24, r1
    3982:	19 c0       	rjmp	.+50     	; 0x39b6 <manual_btn_handler+0x3a>
    3984:	80 91 1e 20 	lds	r24, 0x201E
    3988:	81 30       	cpi	r24, 0x01	; 1
    398a:	21 f0       	breq	.+8      	; 0x3994 <manual_btn_handler+0x18>
    398c:	80 91 19 20 	lds	r24, 0x2019
    3990:	81 30       	cpi	r24, 0x01	; 1
    3992:	49 f4       	brne	.+18     	; 0x39a6 <manual_btn_handler+0x2a>
    3994:	60 91 93 20 	lds	r22, 0x2093
    3998:	70 91 94 20 	lds	r23, 0x2094
    399c:	80 91 95 20 	lds	r24, 0x2095
    39a0:	0c 94 7c 0a 	jmp	0x14f8	; 0x14f8 <gpio_set>
    39a4:	08 95       	ret
    39a6:	60 91 93 20 	lds	r22, 0x2093
    39aa:	70 91 94 20 	lds	r23, 0x2094
    39ae:	80 91 95 20 	lds	r24, 0x2095
    39b2:	0c 94 c0 0a 	jmp	0x1580	; 0x1580 <gpio_clr>
    39b6:	08 95       	ret

000039b8 <manual_btn_isr>:
    39b8:	81 e0       	ldi	r24, 0x01	; 1
    39ba:	80 93 17 21 	sts	0x2117, r24
    39be:	de cf       	rjmp	.-68     	; 0x397c <manual_btn_handler>
    39c0:	08 95       	ret

000039c2 <pneGetStatus>:
    39c2:	cf 93       	push	r28
    39c4:	df 93       	push	r29
    39c6:	80 91 3f 20 	lds	r24, 0x203F
    39ca:	88 23       	and	r24, r24
    39cc:	09 f4       	brne	.+2      	; 0x39d0 <pneGetStatus+0xe>
    39ce:	61 c0       	rjmp	.+194    	; 0x3a92 <pneGetStatus+0xd0>
    39d0:	0e 94 4e 3b 	call	0x769c	; 0x769c <pneBatteryAverage>
    39d4:	c6 e1       	ldi	r28, 0x16	; 22
    39d6:	d0 e2       	ldi	r29, 0x20	; 32
    39d8:	89 83       	std	Y+1, r24	; 0x01
    39da:	0e 94 25 25 	call	0x4a4a	; 0x4a4a <PNEWELSTemperatureRead>
    39de:	8e 83       	std	Y+6, r24	; 0x06
    39e0:	80 ef       	ldi	r24, 0xF0	; 240
    39e2:	8f 87       	std	Y+15, r24	; 0x0f
    39e4:	10 92 3f 20 	sts	0x203F, r1
    39e8:	eb e7       	ldi	r30, 0x7B	; 123
    39ea:	f0 e0       	ldi	r31, 0x00	; 0
    39ec:	80 81       	ld	r24, Z
    39ee:	87 7f       	andi	r24, 0xF7	; 247
    39f0:	80 83       	st	Z, r24
    39f2:	81 e6       	ldi	r24, 0x61	; 97
    39f4:	80 93 7c 00 	sts	0x007C, r24
    39f8:	ea e7       	ldi	r30, 0x7A	; 122
    39fa:	f0 e0       	ldi	r31, 0x00	; 0
    39fc:	80 81       	ld	r24, Z
    39fe:	80 64       	ori	r24, 0x40	; 64
    3a00:	80 83       	st	Z, r24
    3a02:	80 81       	ld	r24, Z
    3a04:	86 fd       	sbrc	r24, 6
    3a06:	fd cf       	rjmp	.-6      	; 0x3a02 <pneGetStatus+0x40>
    3a08:	80 91 79 00 	lds	r24, 0x0079
    3a0c:	24 e2       	ldi	r18, 0x24	; 36
    3a0e:	82 9f       	mul	r24, r18
    3a10:	c0 01       	movw	r24, r0
    3a12:	11 24       	eor	r1, r1
    3a14:	6f ef       	ldi	r22, 0xFF	; 255
    3a16:	70 e0       	ldi	r23, 0x00	; 0
    3a18:	0e 94 8f 50 	call	0xa11e	; 0xa11e <__divmodhi4>
    3a1c:	60 93 18 20 	sts	0x2018, r22
    3a20:	60 91 0e 21 	lds	r22, 0x210E
    3a24:	70 91 0f 21 	lds	r23, 0x210F
    3a28:	80 91 10 21 	lds	r24, 0x2110
    3a2c:	0e 94 33 0c 	call	0x1866	; 0x1866 <gpio_read>
    3a30:	91 e0       	ldi	r25, 0x01	; 1
    3a32:	81 11       	cpse	r24, r1
    3a34:	01 c0       	rjmp	.+2      	; 0x3a38 <pneGetStatus+0x76>
    3a36:	90 e0       	ldi	r25, 0x00	; 0
    3a38:	90 93 35 20 	sts	0x2035, r25
    3a3c:	20 91 17 20 	lds	r18, 0x2017
    3a40:	30 e0       	ldi	r19, 0x00	; 0
    3a42:	80 91 0d 21 	lds	r24, 0x210D
    3a46:	90 e0       	ldi	r25, 0x00	; 0
    3a48:	0a 97       	sbiw	r24, 0x0a	; 10
    3a4a:	28 17       	cp	r18, r24
    3a4c:	39 07       	cpc	r19, r25
    3a4e:	34 f4       	brge	.+12     	; 0x3a5c <pneGetStatus+0x9a>
    3a50:	e6 e1       	ldi	r30, 0x16	; 22
    3a52:	f0 e2       	ldi	r31, 0x20	; 32
    3a54:	81 e0       	ldi	r24, 0x01	; 1
    3a56:	80 8b       	std	Z+16, r24	; 0x10
    3a58:	11 8a       	std	Z+17, r1	; 0x11
    3a5a:	0d c0       	rjmp	.+26     	; 0x3a76 <pneGetStatus+0xb4>
    3a5c:	80 91 0d 21 	lds	r24, 0x210D
    3a60:	90 e0       	ldi	r25, 0x00	; 0
    3a62:	0a 96       	adiw	r24, 0x0a	; 10
    3a64:	28 17       	cp	r18, r24
    3a66:	39 07       	cpc	r19, r25
    3a68:	1c f0       	brlt	.+6      	; 0x3a70 <pneGetStatus+0xae>
    3a6a:	10 92 26 20 	sts	0x2026, r1
    3a6e:	03 c0       	rjmp	.+6      	; 0x3a76 <pneGetStatus+0xb4>
    3a70:	82 e0       	ldi	r24, 0x02	; 2
    3a72:	80 93 26 20 	sts	0x2026, r24
    3a76:	80 91 1c 20 	lds	r24, 0x201C
    3a7a:	8d 33       	cpi	r24, 0x3D	; 61
    3a7c:	18 f0       	brcs	.+6      	; 0x3a84 <pneGetStatus+0xc2>
    3a7e:	80 e0       	ldi	r24, 0x00	; 0
    3a80:	0e 94 6c 37 	call	0x6ed8	; 0x6ed8 <error_to_rf>
    3a84:	80 91 17 20 	lds	r24, 0x2017
    3a88:	85 36       	cpi	r24, 0x65	; 101
    3a8a:	18 f4       	brcc	.+6      	; 0x3a92 <pneGetStatus+0xd0>
    3a8c:	81 e0       	ldi	r24, 0x01	; 1
    3a8e:	0e 94 6c 37 	call	0x6ed8	; 0x6ed8 <error_to_rf>
    3a92:	80 91 7f 20 	lds	r24, 0x207F
    3a96:	81 30       	cpi	r24, 0x01	; 1
    3a98:	29 f0       	breq	.+10     	; 0x3aa4 <pneGetStatus+0xe2>
    3a9a:	80 91 17 21 	lds	r24, 0x2117
    3a9e:	81 30       	cpi	r24, 0x01	; 1
    3aa0:	09 f0       	breq	.+2      	; 0x3aa4 <pneGetStatus+0xe2>
    3aa2:	b4 c0       	rjmp	.+360    	; 0x3c0c <pneGetStatus+0x24a>
    3aa4:	80 91 7c 20 	lds	r24, 0x207C
    3aa8:	89 30       	cpi	r24, 0x09	; 9
    3aaa:	08 f4       	brcc	.+2      	; 0x3aae <pneGetStatus+0xec>
    3aac:	ac c0       	rjmp	.+344    	; 0x3c06 <pneGetStatus+0x244>
    3aae:	60 91 b7 20 	lds	r22, 0x20B7
    3ab2:	70 91 b8 20 	lds	r23, 0x20B8
    3ab6:	80 91 b9 20 	lds	r24, 0x20B9
    3aba:	0e 94 33 0c 	call	0x1866	; 0x1866 <gpio_read>
    3abe:	91 e0       	ldi	r25, 0x01	; 1
    3ac0:	81 11       	cpse	r24, r1
    3ac2:	90 e0       	ldi	r25, 0x00	; 0
    3ac4:	90 93 19 20 	sts	0x2019, r25
    3ac8:	59 df       	rcall	.-334    	; 0x397c <manual_btn_handler>
    3aca:	60 91 50 20 	lds	r22, 0x2050
    3ace:	70 91 51 20 	lds	r23, 0x2051
    3ad2:	80 91 52 20 	lds	r24, 0x2052
    3ad6:	0e 94 33 0c 	call	0x1866	; 0x1866 <gpio_read>
    3ada:	91 e0       	ldi	r25, 0x01	; 1
    3adc:	81 11       	cpse	r24, r1
    3ade:	90 e0       	ldi	r25, 0x00	; 0
    3ae0:	90 93 1a 20 	sts	0x201A, r25
    3ae4:	60 91 53 20 	lds	r22, 0x2053
    3ae8:	70 91 54 20 	lds	r23, 0x2054
    3aec:	80 91 55 20 	lds	r24, 0x2055
    3af0:	0e 94 33 0c 	call	0x1866	; 0x1866 <gpio_read>
    3af4:	91 e0       	ldi	r25, 0x01	; 1
    3af6:	81 11       	cpse	r24, r1
    3af8:	01 c0       	rjmp	.+2      	; 0x3afc <pneGetStatus+0x13a>
    3afa:	90 e0       	ldi	r25, 0x00	; 0
    3afc:	90 93 1b 20 	sts	0x201B, r25
    3b00:	60 91 f9 20 	lds	r22, 0x20F9
    3b04:	70 91 fa 20 	lds	r23, 0x20FA
    3b08:	80 91 fb 20 	lds	r24, 0x20FB
    3b0c:	0e 94 33 0c 	call	0x1866	; 0x1866 <gpio_read>
    3b10:	91 e0       	ldi	r25, 0x01	; 1
    3b12:	81 11       	cpse	r24, r1
    3b14:	01 c0       	rjmp	.+2      	; 0x3b18 <pneGetStatus+0x156>
    3b16:	90 e0       	ldi	r25, 0x00	; 0
    3b18:	90 93 16 20 	sts	0x2016, r25
    3b1c:	60 91 0e 21 	lds	r22, 0x210E
    3b20:	70 91 0f 21 	lds	r23, 0x210F
    3b24:	80 91 10 21 	lds	r24, 0x2110
    3b28:	0e 94 33 0c 	call	0x1866	; 0x1866 <gpio_read>
    3b2c:	91 e0       	ldi	r25, 0x01	; 1
    3b2e:	81 11       	cpse	r24, r1
    3b30:	01 c0       	rjmp	.+2      	; 0x3b34 <pneGetStatus+0x172>
    3b32:	90 e0       	ldi	r25, 0x00	; 0
    3b34:	90 93 35 20 	sts	0x2035, r25
    3b38:	60 91 09 21 	lds	r22, 0x2109
    3b3c:	70 91 0a 21 	lds	r23, 0x210A
    3b40:	80 91 0b 21 	lds	r24, 0x210B
    3b44:	0e 94 33 0c 	call	0x1866	; 0x1866 <gpio_read>
    3b48:	91 e0       	ldi	r25, 0x01	; 1
    3b4a:	81 11       	cpse	r24, r1
    3b4c:	90 e0       	ldi	r25, 0x00	; 0
    3b4e:	90 93 36 20 	sts	0x2036, r25
    3b52:	60 91 5c 20 	lds	r22, 0x205C
    3b56:	70 91 5d 20 	lds	r23, 0x205D
    3b5a:	80 91 5e 20 	lds	r24, 0x205E
    3b5e:	0e 94 33 0c 	call	0x1866	; 0x1866 <gpio_read>
    3b62:	91 e0       	ldi	r25, 0x01	; 1
    3b64:	81 11       	cpse	r24, r1
    3b66:	90 e0       	ldi	r25, 0x00	; 0
    3b68:	90 93 37 20 	sts	0x2037, r25
    3b6c:	60 91 ba 20 	lds	r22, 0x20BA
    3b70:	70 91 bb 20 	lds	r23, 0x20BB
    3b74:	80 91 bc 20 	lds	r24, 0x20BC
    3b78:	0e 94 33 0c 	call	0x1866	; 0x1866 <gpio_read>
    3b7c:	91 e0       	ldi	r25, 0x01	; 1
    3b7e:	81 11       	cpse	r24, r1
    3b80:	90 e0       	ldi	r25, 0x00	; 0
    3b82:	90 93 38 20 	sts	0x2038, r25
    3b86:	60 91 12 20 	lds	r22, 0x2012
    3b8a:	70 91 13 20 	lds	r23, 0x2013
    3b8e:	80 91 14 20 	lds	r24, 0x2014
    3b92:	0e 94 33 0c 	call	0x1866	; 0x1866 <gpio_read>
    3b96:	91 e0       	ldi	r25, 0x01	; 1
    3b98:	81 11       	cpse	r24, r1
    3b9a:	90 e0       	ldi	r25, 0x00	; 0
    3b9c:	90 93 39 20 	sts	0x2039, r25
    3ba0:	60 91 69 20 	lds	r22, 0x2069
    3ba4:	70 91 6a 20 	lds	r23, 0x206A
    3ba8:	80 91 6b 20 	lds	r24, 0x206B
    3bac:	0e 94 33 0c 	call	0x1866	; 0x1866 <gpio_read>
    3bb0:	91 e0       	ldi	r25, 0x01	; 1
    3bb2:	81 11       	cpse	r24, r1
    3bb4:	90 e0       	ldi	r25, 0x00	; 0
    3bb6:	90 93 3a 20 	sts	0x203A, r25
    3bba:	80 91 1e 20 	lds	r24, 0x201E
    3bbe:	81 30       	cpi	r24, 0x01	; 1
    3bc0:	21 f0       	breq	.+8      	; 0x3bca <pneGetStatus+0x208>
    3bc2:	80 91 19 20 	lds	r24, 0x2019
    3bc6:	81 30       	cpi	r24, 0x01	; 1
    3bc8:	39 f4       	brne	.+14     	; 0x3bd8 <pneGetStatus+0x216>
    3bca:	80 91 16 20 	lds	r24, 0x2016
    3bce:	81 11       	cpse	r24, r1
    3bd0:	03 c0       	rjmp	.+6      	; 0x3bd8 <pneGetStatus+0x216>
    3bd2:	85 e0       	ldi	r24, 0x05	; 5
    3bd4:	0e 94 6c 37 	call	0x6ed8	; 0x6ed8 <error_to_rf>
    3bd8:	10 92 7f 20 	sts	0x207F, r1
    3bdc:	10 92 7c 20 	sts	0x207C, r1
    3be0:	80 91 16 20 	lds	r24, 0x2016
    3be4:	81 11       	cpse	r24, r1
    3be6:	06 c0       	rjmp	.+12     	; 0x3bf4 <pneGetStatus+0x232>
    3be8:	80 91 35 20 	lds	r24, 0x2035
    3bec:	81 11       	cpse	r24, r1
    3bee:	02 c0       	rjmp	.+4      	; 0x3bf4 <pneGetStatus+0x232>
    3bf0:	10 92 a9 20 	sts	0x20A9, r1
    3bf4:	80 91 17 21 	lds	r24, 0x2117
    3bf8:	81 30       	cpi	r24, 0x01	; 1
    3bfa:	41 f4       	brne	.+16     	; 0x3c0c <pneGetStatus+0x24a>
    3bfc:	80 93 a5 20 	sts	0x20A5, r24
    3c00:	10 92 17 21 	sts	0x2117, r1
    3c04:	03 c0       	rjmp	.+6      	; 0x3c0c <pneGetStatus+0x24a>
    3c06:	8f 5f       	subi	r24, 0xFF	; 255
    3c08:	80 93 7c 20 	sts	0x207C, r24
    3c0c:	df 91       	pop	r29
    3c0e:	cf 91       	pop	r28
    3c10:	08 95       	ret

00003c12 <PNEWELSTaskHandler>:
    3c12:	d7 de       	rcall	.-594    	; 0x39c2 <pneGetStatus>
    3c14:	3f db       	rcall	.-2434   	; 0x3294 <pneOperationMode>
    3c16:	9f ce       	rjmp	.-706    	; 0x3956 <pneOutgoingData>
    3c18:	08 95       	ret

00003c1a <pneIncomingData>:
    3c1a:	8f 92       	push	r8
    3c1c:	9f 92       	push	r9
    3c1e:	af 92       	push	r10
    3c20:	bf 92       	push	r11
    3c22:	cf 92       	push	r12
    3c24:	df 92       	push	r13
    3c26:	ef 92       	push	r14
    3c28:	ff 92       	push	r15
    3c2a:	0f 93       	push	r16
    3c2c:	1f 93       	push	r17
    3c2e:	cf 93       	push	r28
    3c30:	df 93       	push	r29
    3c32:	cd b7       	in	r28, 0x3d	; 61
    3c34:	de b7       	in	r29, 0x3e	; 62
    3c36:	29 97       	sbiw	r28, 0x09	; 9
    3c38:	0f b6       	in	r0, 0x3f	; 63
    3c3a:	f8 94       	cli
    3c3c:	de bf       	out	0x3e, r29	; 62
    3c3e:	0f be       	out	0x3f, r0	; 63
    3c40:	cd bf       	out	0x3d, r28	; 61
    3c42:	8c 01       	movw	r16, r24
    3c44:	f6 2e       	mov	r15, r22
    3c46:	cd b6       	in	r12, 0x3d	; 61
    3c48:	de b6       	in	r13, 0x3e	; 62
    3c4a:	0e 94 72 04 	call	0x8e4	; 0x8e4 <pneVerify_received>
    3c4e:	80 93 5e 21 	sts	0x215E, r24
    3c52:	88 23       	and	r24, r24
    3c54:	09 f4       	brne	.+2      	; 0x3c58 <pneIncomingData+0x3e>
    3c56:	39 c4       	rjmp	.+2162   	; 0x44ca <pneIncomingData+0x8b0>
    3c58:	48 e0       	ldi	r20, 0x08	; 8
    3c5a:	50 e0       	ldi	r21, 0x00	; 0
    3c5c:	62 e5       	ldi	r22, 0x52	; 82
    3c5e:	72 e0       	ldi	r23, 0x02	; 2
    3c60:	c8 01       	movw	r24, r16
    3c62:	0e 94 5a 51 	call	0xa2b4	; 0xa2b4 <memcmp>
    3c66:	89 2b       	or	r24, r25
    3c68:	a1 f4       	brne	.+40     	; 0x3c92 <pneIncomingData+0x78>
    3c6a:	80 91 6c 20 	lds	r24, 0x206C
    3c6e:	81 11       	cpse	r24, r1
    3c70:	0a c0       	rjmp	.+20     	; 0x3c86 <pneIncomingData+0x6c>
    3c72:	80 91 1e 20 	lds	r24, 0x201E
    3c76:	81 30       	cpi	r24, 0x01	; 1
    3c78:	31 f4       	brne	.+12     	; 0x3c86 <pneIncomingData+0x6c>
    3c7a:	83 e0       	ldi	r24, 0x03	; 3
    3c7c:	0e 94 6c 37 	call	0x6ed8	; 0x6ed8 <error_to_rf>
    3c80:	ee 24       	eor	r14, r14
    3c82:	e3 94       	inc	r14
    3c84:	29 c4       	rjmp	.+2130   	; 0x44d8 <pneIncomingData+0x8be>
    3c86:	0e 94 fa 36 	call	0x6df4	; 0x6df4 <emergency_on_to_rf>
    3c8a:	78 de       	rcall	.-784    	; 0x397c <manual_btn_handler>
    3c8c:	ee 24       	eor	r14, r14
    3c8e:	e3 94       	inc	r14
    3c90:	23 c4       	rjmp	.+2118   	; 0x44d8 <pneIncomingData+0x8be>
    3c92:	48 e0       	ldi	r20, 0x08	; 8
    3c94:	50 e0       	ldi	r21, 0x00	; 0
    3c96:	6b e5       	ldi	r22, 0x5B	; 91
    3c98:	72 e0       	ldi	r23, 0x02	; 2
    3c9a:	c8 01       	movw	r24, r16
    3c9c:	0e 94 5a 51 	call	0xa2b4	; 0xa2b4 <memcmp>
    3ca0:	89 2b       	or	r24, r25
    3ca2:	a1 f4       	brne	.+40     	; 0x3ccc <pneIncomingData+0xb2>
    3ca4:	80 91 6c 20 	lds	r24, 0x206C
    3ca8:	81 30       	cpi	r24, 0x01	; 1
    3caa:	51 f4       	brne	.+20     	; 0x3cc0 <pneIncomingData+0xa6>
    3cac:	80 91 1e 20 	lds	r24, 0x201E
    3cb0:	81 11       	cpse	r24, r1
    3cb2:	06 c0       	rjmp	.+12     	; 0x3cc0 <pneIncomingData+0xa6>
    3cb4:	83 e0       	ldi	r24, 0x03	; 3
    3cb6:	0e 94 6c 37 	call	0x6ed8	; 0x6ed8 <error_to_rf>
    3cba:	ee 24       	eor	r14, r14
    3cbc:	e3 94       	inc	r14
    3cbe:	0c c4       	rjmp	.+2072   	; 0x44d8 <pneIncomingData+0x8be>
    3cc0:	0e 94 04 37 	call	0x6e08	; 0x6e08 <emergency_off_to_rf>
    3cc4:	5b de       	rcall	.-842    	; 0x397c <manual_btn_handler>
    3cc6:	ee 24       	eor	r14, r14
    3cc8:	e3 94       	inc	r14
    3cca:	06 c4       	rjmp	.+2060   	; 0x44d8 <pneIncomingData+0x8be>
    3ccc:	48 e0       	ldi	r20, 0x08	; 8
    3cce:	50 e0       	ldi	r21, 0x00	; 0
    3cd0:	64 e6       	ldi	r22, 0x64	; 100
    3cd2:	72 e0       	ldi	r23, 0x02	; 2
    3cd4:	c8 01       	movw	r24, r16
    3cd6:	0e 94 5a 51 	call	0xa2b4	; 0xa2b4 <memcmp>
    3cda:	89 2b       	or	r24, r25
    3cdc:	09 f0       	breq	.+2      	; 0x3ce0 <pneIncomingData+0xc6>
    3cde:	50 c0       	rjmp	.+160    	; 0x3d80 <pneIncomingData+0x166>
    3ce0:	2f e0       	ldi	r18, 0x0F	; 15
    3ce2:	2f 15       	cp	r18, r15
    3ce4:	30 f0       	brcs	.+12     	; 0x3cf2 <pneIncomingData+0xd8>
    3ce6:	84 e0       	ldi	r24, 0x04	; 4
    3ce8:	0e 94 6c 37 	call	0x6ed8	; 0x6ed8 <error_to_rf>
    3cec:	ee 24       	eor	r14, r14
    3cee:	e3 94       	inc	r14
    3cf0:	f3 c3       	rjmp	.+2022   	; 0x44d8 <pneIncomingData+0x8be>
    3cf2:	6e ef       	ldi	r22, 0xFE	; 254
    3cf4:	6f 0d       	add	r22, r15
    3cf6:	c8 01       	movw	r24, r16
    3cf8:	0e 94 30 3a 	call	0x7460	; 0x7460 <crc_verify>
    3cfc:	e8 2e       	mov	r14, r24
    3cfe:	88 23       	and	r24, r24
    3d00:	09 f4       	brne	.+2      	; 0x3d04 <pneIncomingData+0xea>
    3d02:	e5 c3       	rjmp	.+1994   	; 0x44ce <pneIncomingData+0x8b4>
    3d04:	f8 01       	movw	r30, r16
    3d06:	21 85       	ldd	r18, Z+9	; 0x09
    3d08:	30 e0       	ldi	r19, 0x00	; 0
    3d0a:	20 53       	subi	r18, 0x30	; 48
    3d0c:	31 09       	sbc	r19, r1
    3d0e:	88 ee       	ldi	r24, 0xE8	; 232
    3d10:	93 e0       	ldi	r25, 0x03	; 3
    3d12:	28 9f       	mul	r18, r24
    3d14:	a0 01       	movw	r20, r0
    3d16:	29 9f       	mul	r18, r25
    3d18:	50 0d       	add	r21, r0
    3d1a:	38 9f       	mul	r19, r24
    3d1c:	50 0d       	add	r21, r0
    3d1e:	11 24       	eor	r1, r1
    3d20:	22 85       	ldd	r18, Z+10	; 0x0a
    3d22:	30 e0       	ldi	r19, 0x00	; 0
    3d24:	20 53       	subi	r18, 0x30	; 48
    3d26:	31 09       	sbc	r19, r1
    3d28:	64 e6       	ldi	r22, 0x64	; 100
    3d2a:	62 9f       	mul	r22, r18
    3d2c:	c0 01       	movw	r24, r0
    3d2e:	63 9f       	mul	r22, r19
    3d30:	90 0d       	add	r25, r0
    3d32:	11 24       	eor	r1, r1
    3d34:	84 0f       	add	r24, r20
    3d36:	95 1f       	adc	r25, r21
    3d38:	24 85       	ldd	r18, Z+12	; 0x0c
    3d3a:	30 e0       	ldi	r19, 0x00	; 0
    3d3c:	20 53       	subi	r18, 0x30	; 48
    3d3e:	31 09       	sbc	r19, r1
    3d40:	ac 01       	movw	r20, r24
    3d42:	42 0f       	add	r20, r18
    3d44:	53 1f       	adc	r21, r19
    3d46:	23 85       	ldd	r18, Z+11	; 0x0b
    3d48:	30 e0       	ldi	r19, 0x00	; 0
    3d4a:	20 53       	subi	r18, 0x30	; 48
    3d4c:	31 09       	sbc	r19, r1
    3d4e:	c9 01       	movw	r24, r18
    3d50:	88 0f       	add	r24, r24
    3d52:	99 1f       	adc	r25, r25
    3d54:	22 0f       	add	r18, r18
    3d56:	33 1f       	adc	r19, r19
    3d58:	22 0f       	add	r18, r18
    3d5a:	33 1f       	adc	r19, r19
    3d5c:	22 0f       	add	r18, r18
    3d5e:	33 1f       	adc	r19, r19
    3d60:	28 0f       	add	r18, r24
    3d62:	39 1f       	adc	r19, r25
    3d64:	ca 01       	movw	r24, r20
    3d66:	82 0f       	add	r24, r18
    3d68:	93 1f       	adc	r25, r19
    3d6a:	8d 3f       	cpi	r24, 0xFD	; 253
    3d6c:	ff e0       	ldi	r31, 0x0F	; 15
    3d6e:	9f 07       	cpc	r25, r31
    3d70:	20 f0       	brcs	.+8      	; 0x3d7a <pneIncomingData+0x160>
    3d72:	84 e0       	ldi	r24, 0x04	; 4
    3d74:	0e 94 6c 37 	call	0x6ed8	; 0x6ed8 <error_to_rf>
    3d78:	af c3       	rjmp	.+1886   	; 0x44d8 <pneIncomingData+0x8be>
    3d7a:	0e 94 0d 37 	call	0x6e1a	; 0x6e1a <eeprom_to_rf>
    3d7e:	ac c3       	rjmp	.+1880   	; 0x44d8 <pneIncomingData+0x8be>
    3d80:	48 e0       	ldi	r20, 0x08	; 8
    3d82:	50 e0       	ldi	r21, 0x00	; 0
    3d84:	6d e6       	ldi	r22, 0x6D	; 109
    3d86:	72 e0       	ldi	r23, 0x02	; 2
    3d88:	c8 01       	movw	r24, r16
    3d8a:	0e 94 5a 51 	call	0xa2b4	; 0xa2b4 <memcmp>
    3d8e:	89 2b       	or	r24, r25
    3d90:	81 f4       	brne	.+32     	; 0x3db2 <pneIncomingData+0x198>
    3d92:	80 91 6c 20 	lds	r24, 0x206C
    3d96:	81 11       	cpse	r24, r1
    3d98:	06 c0       	rjmp	.+12     	; 0x3da6 <pneIncomingData+0x18c>
    3d9a:	83 e0       	ldi	r24, 0x03	; 3
    3d9c:	0e 94 6c 37 	call	0x6ed8	; 0x6ed8 <error_to_rf>
    3da0:	ee 24       	eor	r14, r14
    3da2:	e3 94       	inc	r14
    3da4:	99 c3       	rjmp	.+1842   	; 0x44d8 <pneIncomingData+0x8be>
    3da6:	81 e0       	ldi	r24, 0x01	; 1
    3da8:	80 93 1f 20 	sts	0x201F, r24
    3dac:	ee 24       	eor	r14, r14
    3dae:	e3 94       	inc	r14
    3db0:	93 c3       	rjmp	.+1830   	; 0x44d8 <pneIncomingData+0x8be>
    3db2:	48 e0       	ldi	r20, 0x08	; 8
    3db4:	50 e0       	ldi	r21, 0x00	; 0
    3db6:	66 e7       	ldi	r22, 0x76	; 118
    3db8:	72 e0       	ldi	r23, 0x02	; 2
    3dba:	c8 01       	movw	r24, r16
    3dbc:	0e 94 5a 51 	call	0xa2b4	; 0xa2b4 <memcmp>
    3dc0:	89 2b       	or	r24, r25
    3dc2:	79 f4       	brne	.+30     	; 0x3de2 <pneIncomingData+0x1c8>
    3dc4:	80 91 6c 20 	lds	r24, 0x206C
    3dc8:	81 11       	cpse	r24, r1
    3dca:	06 c0       	rjmp	.+12     	; 0x3dd8 <pneIncomingData+0x1be>
    3dcc:	83 e0       	ldi	r24, 0x03	; 3
    3dce:	0e 94 6c 37 	call	0x6ed8	; 0x6ed8 <error_to_rf>
    3dd2:	ee 24       	eor	r14, r14
    3dd4:	e3 94       	inc	r14
    3dd6:	80 c3       	rjmp	.+1792   	; 0x44d8 <pneIncomingData+0x8be>
    3dd8:	10 92 1f 20 	sts	0x201F, r1
    3ddc:	ee 24       	eor	r14, r14
    3dde:	e3 94       	inc	r14
    3de0:	7b c3       	rjmp	.+1782   	; 0x44d8 <pneIncomingData+0x8be>
    3de2:	48 e0       	ldi	r20, 0x08	; 8
    3de4:	50 e0       	ldi	r21, 0x00	; 0
    3de6:	6f e7       	ldi	r22, 0x7F	; 127
    3de8:	72 e0       	ldi	r23, 0x02	; 2
    3dea:	c8 01       	movw	r24, r16
    3dec:	0e 94 5a 51 	call	0xa2b4	; 0xa2b4 <memcmp>
    3df0:	89 2b       	or	r24, r25
    3df2:	81 f4       	brne	.+32     	; 0x3e14 <pneIncomingData+0x1fa>
    3df4:	80 91 6c 20 	lds	r24, 0x206C
    3df8:	81 11       	cpse	r24, r1
    3dfa:	06 c0       	rjmp	.+12     	; 0x3e08 <pneIncomingData+0x1ee>
    3dfc:	83 e0       	ldi	r24, 0x03	; 3
    3dfe:	0e 94 6c 37 	call	0x6ed8	; 0x6ed8 <error_to_rf>
    3e02:	ee 24       	eor	r14, r14
    3e04:	e3 94       	inc	r14
    3e06:	68 c3       	rjmp	.+1744   	; 0x44d8 <pneIncomingData+0x8be>
    3e08:	81 e0       	ldi	r24, 0x01	; 1
    3e0a:	80 93 20 20 	sts	0x2020, r24
    3e0e:	ee 24       	eor	r14, r14
    3e10:	e3 94       	inc	r14
    3e12:	62 c3       	rjmp	.+1732   	; 0x44d8 <pneIncomingData+0x8be>
    3e14:	48 e0       	ldi	r20, 0x08	; 8
    3e16:	50 e0       	ldi	r21, 0x00	; 0
    3e18:	68 e8       	ldi	r22, 0x88	; 136
    3e1a:	72 e0       	ldi	r23, 0x02	; 2
    3e1c:	c8 01       	movw	r24, r16
    3e1e:	0e 94 5a 51 	call	0xa2b4	; 0xa2b4 <memcmp>
    3e22:	89 2b       	or	r24, r25
    3e24:	79 f4       	brne	.+30     	; 0x3e44 <pneIncomingData+0x22a>
    3e26:	80 91 6c 20 	lds	r24, 0x206C
    3e2a:	81 11       	cpse	r24, r1
    3e2c:	06 c0       	rjmp	.+12     	; 0x3e3a <pneIncomingData+0x220>
    3e2e:	83 e0       	ldi	r24, 0x03	; 3
    3e30:	0e 94 6c 37 	call	0x6ed8	; 0x6ed8 <error_to_rf>
    3e34:	ee 24       	eor	r14, r14
    3e36:	e3 94       	inc	r14
    3e38:	4f c3       	rjmp	.+1694   	; 0x44d8 <pneIncomingData+0x8be>
    3e3a:	10 92 20 20 	sts	0x2020, r1
    3e3e:	ee 24       	eor	r14, r14
    3e40:	e3 94       	inc	r14
    3e42:	4a c3       	rjmp	.+1684   	; 0x44d8 <pneIncomingData+0x8be>
    3e44:	48 e0       	ldi	r20, 0x08	; 8
    3e46:	50 e0       	ldi	r21, 0x00	; 0
    3e48:	61 e9       	ldi	r22, 0x91	; 145
    3e4a:	72 e0       	ldi	r23, 0x02	; 2
    3e4c:	c8 01       	movw	r24, r16
    3e4e:	0e 94 5a 51 	call	0xa2b4	; 0xa2b4 <memcmp>
    3e52:	89 2b       	or	r24, r25
    3e54:	09 f0       	breq	.+2      	; 0x3e58 <pneIncomingData+0x23e>
    3e56:	92 c0       	rjmp	.+292    	; 0x3f7c <pneIncomingData+0x362>
    3e58:	23 e1       	ldi	r18, 0x13	; 19
    3e5a:	2f 15       	cp	r18, r15
    3e5c:	30 f0       	brcs	.+12     	; 0x3e6a <pneIncomingData+0x250>
    3e5e:	86 e0       	ldi	r24, 0x06	; 6
    3e60:	0e 94 6c 37 	call	0x6ed8	; 0x6ed8 <error_to_rf>
    3e64:	ee 24       	eor	r14, r14
    3e66:	e3 94       	inc	r14
    3e68:	37 c3       	rjmp	.+1646   	; 0x44d8 <pneIncomingData+0x8be>
    3e6a:	6e ef       	ldi	r22, 0xFE	; 254
    3e6c:	6f 0d       	add	r22, r15
    3e6e:	c8 01       	movw	r24, r16
    3e70:	0e 94 30 3a 	call	0x7460	; 0x7460 <crc_verify>
    3e74:	e8 2e       	mov	r14, r24
    3e76:	88 23       	and	r24, r24
    3e78:	09 f4       	brne	.+2      	; 0x3e7c <pneIncomingData+0x262>
    3e7a:	7a c0       	rjmp	.+244    	; 0x3f70 <pneIncomingData+0x356>
    3e7c:	f8 01       	movw	r30, r16
    3e7e:	a1 85       	ldd	r26, Z+9	; 0x09
    3e80:	b0 e0       	ldi	r27, 0x00	; 0
    3e82:	d0 97       	sbiw	r26, 0x30	; 48
    3e84:	20 e0       	ldi	r18, 0x00	; 0
    3e86:	3a ec       	ldi	r19, 0xCA	; 202
    3e88:	4a e9       	ldi	r20, 0x9A	; 154
    3e8a:	5b e3       	ldi	r21, 0x3B	; 59
    3e8c:	0e 94 e1 50 	call	0xa1c2	; 0xa1c2 <__mulshisi3>
    3e90:	4b 01       	movw	r8, r22
    3e92:	5c 01       	movw	r10, r24
    3e94:	a2 85       	ldd	r26, Z+10	; 0x0a
    3e96:	b0 e0       	ldi	r27, 0x00	; 0
    3e98:	d0 97       	sbiw	r26, 0x30	; 48
    3e9a:	20 e0       	ldi	r18, 0x00	; 0
    3e9c:	31 ee       	ldi	r19, 0xE1	; 225
    3e9e:	45 ef       	ldi	r20, 0xF5	; 245
    3ea0:	55 e0       	ldi	r21, 0x05	; 5
    3ea2:	0e 94 e1 50 	call	0xa1c2	; 0xa1c2 <__mulshisi3>
    3ea6:	86 0e       	add	r8, r22
    3ea8:	97 1e       	adc	r9, r23
    3eaa:	a8 1e       	adc	r10, r24
    3eac:	b9 1e       	adc	r11, r25
    3eae:	82 89       	ldd	r24, Z+18	; 0x12
    3eb0:	90 e0       	ldi	r25, 0x00	; 0
    3eb2:	c0 97       	sbiw	r24, 0x30	; 48
    3eb4:	09 2e       	mov	r0, r25
    3eb6:	00 0c       	add	r0, r0
    3eb8:	aa 0b       	sbc	r26, r26
    3eba:	bb 0b       	sbc	r27, r27
    3ebc:	88 0e       	add	r8, r24
    3ebe:	99 1e       	adc	r9, r25
    3ec0:	aa 1e       	adc	r10, r26
    3ec2:	bb 1e       	adc	r11, r27
    3ec4:	a3 85       	ldd	r26, Z+11	; 0x0b
    3ec6:	b0 e0       	ldi	r27, 0x00	; 0
    3ec8:	d0 97       	sbiw	r26, 0x30	; 48
    3eca:	20 e8       	ldi	r18, 0x80	; 128
    3ecc:	36 e9       	ldi	r19, 0x96	; 150
    3ece:	48 e9       	ldi	r20, 0x98	; 152
    3ed0:	50 e0       	ldi	r21, 0x00	; 0
    3ed2:	0e 94 e1 50 	call	0xa1c2	; 0xa1c2 <__mulshisi3>
    3ed6:	86 0e       	add	r8, r22
    3ed8:	97 1e       	adc	r9, r23
    3eda:	a8 1e       	adc	r10, r24
    3edc:	b9 1e       	adc	r11, r25
    3ede:	a4 85       	ldd	r26, Z+12	; 0x0c
    3ee0:	b0 e0       	ldi	r27, 0x00	; 0
    3ee2:	d0 97       	sbiw	r26, 0x30	; 48
    3ee4:	20 e4       	ldi	r18, 0x40	; 64
    3ee6:	32 e4       	ldi	r19, 0x42	; 66
    3ee8:	4f e0       	ldi	r20, 0x0F	; 15
    3eea:	50 e0       	ldi	r21, 0x00	; 0
    3eec:	0e 94 e1 50 	call	0xa1c2	; 0xa1c2 <__mulshisi3>
    3ef0:	86 0e       	add	r8, r22
    3ef2:	97 1e       	adc	r9, r23
    3ef4:	a8 1e       	adc	r10, r24
    3ef6:	b9 1e       	adc	r11, r25
    3ef8:	a5 85       	ldd	r26, Z+13	; 0x0d
    3efa:	b0 e0       	ldi	r27, 0x00	; 0
    3efc:	d0 97       	sbiw	r26, 0x30	; 48
    3efe:	20 ea       	ldi	r18, 0xA0	; 160
    3f00:	36 e8       	ldi	r19, 0x86	; 134
    3f02:	41 e0       	ldi	r20, 0x01	; 1
    3f04:	50 e0       	ldi	r21, 0x00	; 0
    3f06:	0e 94 e1 50 	call	0xa1c2	; 0xa1c2 <__mulshisi3>
    3f0a:	86 0e       	add	r8, r22
    3f0c:	97 1e       	adc	r9, r23
    3f0e:	a8 1e       	adc	r10, r24
    3f10:	b9 1e       	adc	r11, r25
    3f12:	a6 85       	ldd	r26, Z+14	; 0x0e
    3f14:	b0 e0       	ldi	r27, 0x00	; 0
    3f16:	d0 97       	sbiw	r26, 0x30	; 48
    3f18:	20 e1       	ldi	r18, 0x10	; 16
    3f1a:	37 e2       	ldi	r19, 0x27	; 39
    3f1c:	0e 94 db 50 	call	0xa1b6	; 0xa1b6 <__usmulhisi3>
    3f20:	86 0e       	add	r8, r22
    3f22:	97 1e       	adc	r9, r23
    3f24:	a8 1e       	adc	r10, r24
    3f26:	b9 1e       	adc	r11, r25
    3f28:	a7 85       	ldd	r26, Z+15	; 0x0f
    3f2a:	b0 e0       	ldi	r27, 0x00	; 0
    3f2c:	d0 97       	sbiw	r26, 0x30	; 48
    3f2e:	28 ee       	ldi	r18, 0xE8	; 232
    3f30:	33 e0       	ldi	r19, 0x03	; 3
    3f32:	0e 94 db 50 	call	0xa1b6	; 0xa1b6 <__usmulhisi3>
    3f36:	86 0e       	add	r8, r22
    3f38:	97 1e       	adc	r9, r23
    3f3a:	a8 1e       	adc	r10, r24
    3f3c:	b9 1e       	adc	r11, r25
    3f3e:	a0 89       	ldd	r26, Z+16	; 0x10
    3f40:	b0 e0       	ldi	r27, 0x00	; 0
    3f42:	d0 97       	sbiw	r26, 0x30	; 48
    3f44:	24 e6       	ldi	r18, 0x64	; 100
    3f46:	30 e0       	ldi	r19, 0x00	; 0
    3f48:	0e 94 db 50 	call	0xa1b6	; 0xa1b6 <__usmulhisi3>
    3f4c:	86 0e       	add	r8, r22
    3f4e:	97 1e       	adc	r9, r23
    3f50:	a8 1e       	adc	r10, r24
    3f52:	b9 1e       	adc	r11, r25
    3f54:	a1 89       	ldd	r26, Z+17	; 0x11
    3f56:	b0 e0       	ldi	r27, 0x00	; 0
    3f58:	d0 97       	sbiw	r26, 0x30	; 48
    3f5a:	2a e0       	ldi	r18, 0x0A	; 10
    3f5c:	30 e0       	ldi	r19, 0x00	; 0
    3f5e:	0e 94 db 50 	call	0xa1b6	; 0xa1b6 <__usmulhisi3>
    3f62:	68 0d       	add	r22, r8
    3f64:	79 1d       	adc	r23, r9
    3f66:	8a 1d       	adc	r24, r10
    3f68:	9b 1d       	adc	r25, r11
    3f6a:	0e 94 02 38 	call	0x7004	; 0x7004 <time_to_rf>
    3f6e:	b4 c2       	rjmp	.+1384   	; 0x44d8 <pneIncomingData+0x8be>
    3f70:	87 e0       	ldi	r24, 0x07	; 7
    3f72:	0e 94 6c 37 	call	0x6ed8	; 0x6ed8 <error_to_rf>
    3f76:	ee 24       	eor	r14, r14
    3f78:	e3 94       	inc	r14
    3f7a:	ae c2       	rjmp	.+1372   	; 0x44d8 <pneIncomingData+0x8be>
    3f7c:	48 e0       	ldi	r20, 0x08	; 8
    3f7e:	50 e0       	ldi	r21, 0x00	; 0
    3f80:	6a e9       	ldi	r22, 0x9A	; 154
    3f82:	72 e0       	ldi	r23, 0x02	; 2
    3f84:	c8 01       	movw	r24, r16
    3f86:	0e 94 5a 51 	call	0xa2b4	; 0xa2b4 <memcmp>
    3f8a:	89 2b       	or	r24, r25
    3f8c:	39 f4       	brne	.+14     	; 0x3f9c <pneIncomingData+0x382>
    3f8e:	8e e6       	ldi	r24, 0x6E	; 110
    3f90:	90 e2       	ldi	r25, 0x20	; 32
    3f92:	0e 94 79 16 	call	0x2cf2	; 0x2cf2 <SYS_TimerStop>
    3f96:	ee 24       	eor	r14, r14
    3f98:	e3 94       	inc	r14
    3f9a:	9e c2       	rjmp	.+1340   	; 0x44d8 <pneIncomingData+0x8be>
    3f9c:	48 e0       	ldi	r20, 0x08	; 8
    3f9e:	50 e0       	ldi	r21, 0x00	; 0
    3fa0:	63 ea       	ldi	r22, 0xA3	; 163
    3fa2:	72 e0       	ldi	r23, 0x02	; 2
    3fa4:	c8 01       	movw	r24, r16
    3fa6:	0e 94 5a 51 	call	0xa2b4	; 0xa2b4 <memcmp>
    3faa:	89 2b       	or	r24, r25
    3fac:	29 f4       	brne	.+10     	; 0x3fb8 <pneIncomingData+0x39e>
    3fae:	0e 94 0a 38 	call	0x7014	; 0x7014 <clr_rom_to_rf>
    3fb2:	ee 24       	eor	r14, r14
    3fb4:	e3 94       	inc	r14
    3fb6:	90 c2       	rjmp	.+1312   	; 0x44d8 <pneIncomingData+0x8be>
    3fb8:	48 e0       	ldi	r20, 0x08	; 8
    3fba:	50 e0       	ldi	r21, 0x00	; 0
    3fbc:	6c ea       	ldi	r22, 0xAC	; 172
    3fbe:	72 e0       	ldi	r23, 0x02	; 2
    3fc0:	c8 01       	movw	r24, r16
    3fc2:	0e 94 5a 51 	call	0xa2b4	; 0xa2b4 <memcmp>
    3fc6:	89 2b       	or	r24, r25
    3fc8:	29 f4       	brne	.+10     	; 0x3fd4 <pneIncomingData+0x3ba>
    3fca:	0e 94 0b 36 	call	0x6c16	; 0x6c16 <reboot_to_rf>
    3fce:	ee 24       	eor	r14, r14
    3fd0:	e3 94       	inc	r14
    3fd2:	82 c2       	rjmp	.+1284   	; 0x44d8 <pneIncomingData+0x8be>
    3fd4:	48 e0       	ldi	r20, 0x08	; 8
    3fd6:	50 e0       	ldi	r21, 0x00	; 0
    3fd8:	65 eb       	ldi	r22, 0xB5	; 181
    3fda:	72 e0       	ldi	r23, 0x02	; 2
    3fdc:	c8 01       	movw	r24, r16
    3fde:	0e 94 5a 51 	call	0xa2b4	; 0xa2b4 <memcmp>
    3fe2:	89 2b       	or	r24, r25
    3fe4:	29 f4       	brne	.+10     	; 0x3ff0 <pneIncomingData+0x3d6>
    3fe6:	0e 94 13 38 	call	0x7026	; 0x7026 <info_to_rf>
    3fea:	ee 24       	eor	r14, r14
    3fec:	e3 94       	inc	r14
    3fee:	74 c2       	rjmp	.+1256   	; 0x44d8 <pneIncomingData+0x8be>
    3ff0:	48 e0       	ldi	r20, 0x08	; 8
    3ff2:	50 e0       	ldi	r21, 0x00	; 0
    3ff4:	6e eb       	ldi	r22, 0xBE	; 190
    3ff6:	72 e0       	ldi	r23, 0x02	; 2
    3ff8:	c8 01       	movw	r24, r16
    3ffa:	0e 94 5a 51 	call	0xa2b4	; 0xa2b4 <memcmp>
    3ffe:	89 2b       	or	r24, r25
    4000:	91 f5       	brne	.+100    	; 0x4066 <pneIncomingData+0x44c>
    4002:	f3 e1       	ldi	r31, 0x13	; 19
    4004:	ff 15       	cp	r31, r15
    4006:	30 f0       	brcs	.+12     	; 0x4014 <pneIncomingData+0x3fa>
    4008:	84 e0       	ldi	r24, 0x04	; 4
    400a:	0e 94 6c 37 	call	0x6ed8	; 0x6ed8 <error_to_rf>
    400e:	ee 24       	eor	r14, r14
    4010:	e3 94       	inc	r14
    4012:	62 c2       	rjmp	.+1220   	; 0x44d8 <pneIncomingData+0x8be>
    4014:	6e ef       	ldi	r22, 0xFE	; 254
    4016:	6f 0d       	add	r22, r15
    4018:	c8 01       	movw	r24, r16
    401a:	0e 94 30 3a 	call	0x7460	; 0x7460 <crc_verify>
    401e:	e8 2e       	mov	r14, r24
    4020:	88 23       	and	r24, r24
    4022:	d9 f0       	breq	.+54     	; 0x405a <pneIncomingData+0x440>
    4024:	ce 01       	movw	r24, r28
    4026:	01 96       	adiw	r24, 0x01	; 1
    4028:	28 e0       	ldi	r18, 0x08	; 8
    402a:	fc 01       	movw	r30, r24
    402c:	11 92       	st	Z+, r1
    402e:	2a 95       	dec	r18
    4030:	e9 f7       	brne	.-6      	; 0x402c <pneIncomingData+0x412>
    4032:	f8 01       	movw	r30, r16
    4034:	21 85       	ldd	r18, Z+9	; 0x09
    4036:	29 83       	std	Y+1, r18	; 0x01
    4038:	22 85       	ldd	r18, Z+10	; 0x0a
    403a:	2a 83       	std	Y+2, r18	; 0x02
    403c:	23 85       	ldd	r18, Z+11	; 0x0b
    403e:	2b 83       	std	Y+3, r18	; 0x03
    4040:	24 85       	ldd	r18, Z+12	; 0x0c
    4042:	2c 83       	std	Y+4, r18	; 0x04
    4044:	25 85       	ldd	r18, Z+13	; 0x0d
    4046:	2d 83       	std	Y+5, r18	; 0x05
    4048:	26 85       	ldd	r18, Z+14	; 0x0e
    404a:	2e 83       	std	Y+6, r18	; 0x06
    404c:	27 85       	ldd	r18, Z+15	; 0x0f
    404e:	2f 83       	std	Y+7, r18	; 0x07
    4050:	20 89       	ldd	r18, Z+16	; 0x10
    4052:	28 87       	std	Y+8, r18	; 0x08
    4054:	0e 94 37 38 	call	0x706e	; 0x706e <change_id_to_rf>
    4058:	3f c2       	rjmp	.+1150   	; 0x44d8 <pneIncomingData+0x8be>
    405a:	84 e0       	ldi	r24, 0x04	; 4
    405c:	0e 94 6c 37 	call	0x6ed8	; 0x6ed8 <error_to_rf>
    4060:	ee 24       	eor	r14, r14
    4062:	e3 94       	inc	r14
    4064:	39 c2       	rjmp	.+1138   	; 0x44d8 <pneIncomingData+0x8be>
    4066:	48 e0       	ldi	r20, 0x08	; 8
    4068:	50 e0       	ldi	r21, 0x00	; 0
    406a:	67 ec       	ldi	r22, 0xC7	; 199
    406c:	72 e0       	ldi	r23, 0x02	; 2
    406e:	c8 01       	movw	r24, r16
    4070:	0e 94 5a 51 	call	0xa2b4	; 0xa2b4 <memcmp>
    4074:	89 2b       	or	r24, r25
    4076:	09 f5       	brne	.+66     	; 0x40ba <pneIncomingData+0x4a0>
    4078:	fd e0       	ldi	r31, 0x0D	; 13
    407a:	ff 15       	cp	r31, r15
    407c:	30 f0       	brcs	.+12     	; 0x408a <pneIncomingData+0x470>
    407e:	8b e0       	ldi	r24, 0x0B	; 11
    4080:	0e 94 6c 37 	call	0x6ed8	; 0x6ed8 <error_to_rf>
    4084:	ee 24       	eor	r14, r14
    4086:	e3 94       	inc	r14
    4088:	27 c2       	rjmp	.+1102   	; 0x44d8 <pneIncomingData+0x8be>
    408a:	6e ef       	ldi	r22, 0xFE	; 254
    408c:	6f 0d       	add	r22, r15
    408e:	c8 01       	movw	r24, r16
    4090:	0e 94 30 3a 	call	0x7460	; 0x7460 <crc_verify>
    4094:	e8 2e       	mov	r14, r24
    4096:	88 23       	and	r24, r24
    4098:	51 f0       	breq	.+20     	; 0x40ae <pneIncomingData+0x494>
    409a:	f8 01       	movw	r30, r16
    409c:	81 85       	ldd	r24, Z+9	; 0x09
    409e:	89 83       	std	Y+1, r24	; 0x01
    40a0:	82 85       	ldd	r24, Z+10	; 0x0a
    40a2:	8a 83       	std	Y+2, r24	; 0x02
    40a4:	ce 01       	movw	r24, r28
    40a6:	01 96       	adiw	r24, 0x01	; 1
    40a8:	0e 94 96 38 	call	0x712c	; 0x712c <battery_threshold_to_rf>
    40ac:	15 c2       	rjmp	.+1066   	; 0x44d8 <pneIncomingData+0x8be>
    40ae:	84 e0       	ldi	r24, 0x04	; 4
    40b0:	0e 94 6c 37 	call	0x6ed8	; 0x6ed8 <error_to_rf>
    40b4:	ee 24       	eor	r14, r14
    40b6:	e3 94       	inc	r14
    40b8:	0f c2       	rjmp	.+1054   	; 0x44d8 <pneIncomingData+0x8be>
    40ba:	48 e0       	ldi	r20, 0x08	; 8
    40bc:	50 e0       	ldi	r21, 0x00	; 0
    40be:	60 ed       	ldi	r22, 0xD0	; 208
    40c0:	72 e0       	ldi	r23, 0x02	; 2
    40c2:	c8 01       	movw	r24, r16
    40c4:	0e 94 5a 51 	call	0xa2b4	; 0xa2b4 <memcmp>
    40c8:	89 2b       	or	r24, r25
    40ca:	a1 f4       	brne	.+40     	; 0x40f4 <pneIncomingData+0x4da>
    40cc:	8b ee       	ldi	r24, 0xEB	; 235
    40ce:	90 e2       	ldi	r25, 0x20	; 32
    40d0:	0e 94 79 16 	call	0x2cf2	; 0x2cf2 <SYS_TimerStop>
    40d4:	84 e0       	ldi	r24, 0x04	; 4
    40d6:	80 93 6c 20 	sts	0x206C, r24
    40da:	10 92 67 20 	sts	0x2067, r1
    40de:	10 92 66 20 	sts	0x2066, r1
    40e2:	0e 94 8c 02 	call	0x518	; 0x518 <APP_IbLoadSettings_WPS>
    40e6:	8c ef       	ldi	r24, 0xFC	; 252
    40e8:	90 e2       	ldi	r25, 0x20	; 32
    40ea:	0e 94 d0 16 	call	0x2da0	; 0x2da0 <SYS_TimerStart>
    40ee:	ee 24       	eor	r14, r14
    40f0:	e3 94       	inc	r14
    40f2:	f2 c1       	rjmp	.+996    	; 0x44d8 <pneIncomingData+0x8be>
    40f4:	48 e0       	ldi	r20, 0x08	; 8
    40f6:	50 e0       	ldi	r21, 0x00	; 0
    40f8:	69 ed       	ldi	r22, 0xD9	; 217
    40fa:	72 e0       	ldi	r23, 0x02	; 2
    40fc:	c8 01       	movw	r24, r16
    40fe:	0e 94 5a 51 	call	0xa2b4	; 0xa2b4 <memcmp>
    4102:	89 2b       	or	r24, r25
    4104:	49 f4       	brne	.+18     	; 0x4118 <pneIncomingData+0x4fe>
    4106:	80 e2       	ldi	r24, 0x20	; 32
    4108:	0e 94 ac 38 	call	0x7158	; 0x7158 <last_1_log>
    410c:	80 e2       	ldi	r24, 0x20	; 32
    410e:	0e 94 f8 38 	call	0x71f0	; 0x71f0 <last_2_log>
    4112:	ee 24       	eor	r14, r14
    4114:	e3 94       	inc	r14
    4116:	e0 c1       	rjmp	.+960    	; 0x44d8 <pneIncomingData+0x8be>
    4118:	48 e0       	ldi	r20, 0x08	; 8
    411a:	50 e0       	ldi	r21, 0x00	; 0
    411c:	62 ee       	ldi	r22, 0xE2	; 226
    411e:	72 e0       	ldi	r23, 0x02	; 2
    4120:	c8 01       	movw	r24, r16
    4122:	0e 94 5a 51 	call	0xa2b4	; 0xa2b4 <memcmp>
    4126:	89 2b       	or	r24, r25
    4128:	29 f4       	brne	.+10     	; 0x4134 <pneIncomingData+0x51a>
    412a:	0e 94 b7 39 	call	0x736e	; 0x736e <dump_log_to_rf>
    412e:	ee 24       	eor	r14, r14
    4130:	e3 94       	inc	r14
    4132:	d2 c1       	rjmp	.+932    	; 0x44d8 <pneIncomingData+0x8be>
    4134:	48 e0       	ldi	r20, 0x08	; 8
    4136:	50 e0       	ldi	r21, 0x00	; 0
    4138:	6b ee       	ldi	r22, 0xEB	; 235
    413a:	72 e0       	ldi	r23, 0x02	; 2
    413c:	c8 01       	movw	r24, r16
    413e:	0e 94 5a 51 	call	0xa2b4	; 0xa2b4 <memcmp>
    4142:	89 2b       	or	r24, r25
    4144:	29 f4       	brne	.+10     	; 0x4150 <pneIncomingData+0x536>
    4146:	0e 94 e3 39 	call	0x73c6	; 0x73c6 <stress_test>
    414a:	ee 24       	eor	r14, r14
    414c:	e3 94       	inc	r14
    414e:	c4 c1       	rjmp	.+904    	; 0x44d8 <pneIncomingData+0x8be>
    4150:	48 e0       	ldi	r20, 0x08	; 8
    4152:	50 e0       	ldi	r21, 0x00	; 0
    4154:	64 ef       	ldi	r22, 0xF4	; 244
    4156:	72 e0       	ldi	r23, 0x02	; 2
    4158:	c8 01       	movw	r24, r16
    415a:	0e 94 5a 51 	call	0xa2b4	; 0xa2b4 <memcmp>
    415e:	89 2b       	or	r24, r25
    4160:	09 f0       	breq	.+2      	; 0x4164 <pneIncomingData+0x54a>
    4162:	45 c0       	rjmp	.+138    	; 0x41ee <pneIncomingData+0x5d4>
    4164:	fb e1       	ldi	r31, 0x1B	; 27
    4166:	ff 15       	cp	r31, r15
    4168:	30 f0       	brcs	.+12     	; 0x4176 <pneIncomingData+0x55c>
    416a:	88 e0       	ldi	r24, 0x08	; 8
    416c:	0e 94 6c 37 	call	0x6ed8	; 0x6ed8 <error_to_rf>
    4170:	ee 24       	eor	r14, r14
    4172:	e3 94       	inc	r14
    4174:	b1 c1       	rjmp	.+866    	; 0x44d8 <pneIncomingData+0x8be>
    4176:	6e ef       	ldi	r22, 0xFE	; 254
    4178:	6f 0d       	add	r22, r15
    417a:	c8 01       	movw	r24, r16
    417c:	0e 94 30 3a 	call	0x7460	; 0x7460 <crc_verify>
    4180:	e8 2e       	mov	r14, r24
    4182:	88 23       	and	r24, r24
    4184:	71 f1       	breq	.+92     	; 0x41e2 <pneIncomingData+0x5c8>
    4186:	d8 01       	movw	r26, r16
    4188:	19 96       	adiw	r26, 0x09	; 9
    418a:	e4 e9       	ldi	r30, 0x94	; 148
    418c:	ff e1       	ldi	r31, 0x1F	; 31
    418e:	cf 01       	movw	r24, r30
    4190:	80 5f       	subi	r24, 0xF0	; 240
    4192:	2d 91       	ld	r18, X+
    4194:	91 91       	ld	r25, Z+
    4196:	29 17       	cp	r18, r25
    4198:	29 f0       	breq	.+10     	; 0x41a4 <pneIncomingData+0x58a>
    419a:	89 e0       	ldi	r24, 0x09	; 9
    419c:	0e 94 6c 37 	call	0x6ed8	; 0x6ed8 <error_to_rf>
    41a0:	e1 2c       	mov	r14, r1
    41a2:	9a c1       	rjmp	.+820    	; 0x44d8 <pneIncomingData+0x8be>
    41a4:	8e 13       	cpse	r24, r30
    41a6:	f5 cf       	rjmp	.-22     	; 0x4192 <pneIncomingData+0x578>
    41a8:	ce 01       	movw	r24, r28
    41aa:	01 96       	adiw	r24, 0x01	; 1
    41ac:	29 e0       	ldi	r18, 0x09	; 9
    41ae:	fc 01       	movw	r30, r24
    41b0:	11 92       	st	Z+, r1
    41b2:	2a 95       	dec	r18
    41b4:	e9 f7       	brne	.-6      	; 0x41b0 <pneIncomingData+0x596>
    41b6:	f8 01       	movw	r30, r16
    41b8:	23 8d       	ldd	r18, Z+27	; 0x1b
    41ba:	29 83       	std	Y+1, r18	; 0x01
    41bc:	24 8d       	ldd	r18, Z+28	; 0x1c
    41be:	2a 83       	std	Y+2, r18	; 0x02
    41c0:	25 8d       	ldd	r18, Z+29	; 0x1d
    41c2:	2b 83       	std	Y+3, r18	; 0x03
    41c4:	26 8d       	ldd	r18, Z+30	; 0x1e
    41c6:	2c 83       	std	Y+4, r18	; 0x04
    41c8:	27 8d       	ldd	r18, Z+31	; 0x1f
    41ca:	2d 83       	std	Y+5, r18	; 0x05
    41cc:	20 a1       	ldd	r18, Z+32	; 0x20
    41ce:	2e 83       	std	Y+6, r18	; 0x06
    41d0:	0e 94 0c 36 	call	0x6c18	; 0x6c18 <WPS_pairing>
    41d4:	81 e0       	ldi	r24, 0x01	; 1
    41d6:	80 93 f8 20 	sts	0x20F8, r24
    41da:	88 ee       	ldi	r24, 0xE8	; 232
    41dc:	93 e0       	ldi	r25, 0x03	; 3
    41de:	f1 d2       	rcall	.+1506   	; 0x47c2 <pne_delayms>
    41e0:	7b c1       	rjmp	.+758    	; 0x44d8 <pneIncomingData+0x8be>
    41e2:	8a e0       	ldi	r24, 0x0A	; 10
    41e4:	0e 94 6c 37 	call	0x6ed8	; 0x6ed8 <error_to_rf>
    41e8:	ee 24       	eor	r14, r14
    41ea:	e3 94       	inc	r14
    41ec:	75 c1       	rjmp	.+746    	; 0x44d8 <pneIncomingData+0x8be>
    41ee:	48 e0       	ldi	r20, 0x08	; 8
    41f0:	50 e0       	ldi	r21, 0x00	; 0
    41f2:	6d ef       	ldi	r22, 0xFD	; 253
    41f4:	72 e0       	ldi	r23, 0x02	; 2
    41f6:	c8 01       	movw	r24, r16
    41f8:	0e 94 5a 51 	call	0xa2b4	; 0xa2b4 <memcmp>
    41fc:	89 2b       	or	r24, r25
    41fe:	f9 f4       	brne	.+62     	; 0x423e <pneIncomingData+0x624>
    4200:	f7 e0       	ldi	r31, 0x07	; 7
    4202:	ff 15       	cp	r31, r15
    4204:	30 f0       	brcs	.+12     	; 0x4212 <pneIncomingData+0x5f8>
    4206:	88 e0       	ldi	r24, 0x08	; 8
    4208:	0e 94 6c 37 	call	0x6ed8	; 0x6ed8 <error_to_rf>
    420c:	ee 24       	eor	r14, r14
    420e:	e3 94       	inc	r14
    4210:	63 c1       	rjmp	.+710    	; 0x44d8 <pneIncomingData+0x8be>
    4212:	d8 01       	movw	r26, r16
    4214:	19 96       	adiw	r26, 0x09	; 9
    4216:	e4 e9       	ldi	r30, 0x94	; 148
    4218:	ff e1       	ldi	r31, 0x1F	; 31
    421a:	cf 01       	movw	r24, r30
    421c:	80 5f       	subi	r24, 0xF0	; 240
    421e:	2d 91       	ld	r18, X+
    4220:	91 91       	ld	r25, Z+
    4222:	29 17       	cp	r18, r25
    4224:	29 f0       	breq	.+10     	; 0x4230 <pneIncomingData+0x616>
    4226:	89 e0       	ldi	r24, 0x09	; 9
    4228:	0e 94 6c 37 	call	0x6ed8	; 0x6ed8 <error_to_rf>
    422c:	e1 2c       	mov	r14, r1
    422e:	54 c1       	rjmp	.+680    	; 0x44d8 <pneIncomingData+0x8be>
    4230:	8e 13       	cpse	r24, r30
    4232:	f5 cf       	rjmp	.-22     	; 0x421e <pneIncomingData+0x604>
    4234:	0e 94 0b 36 	call	0x6c16	; 0x6c16 <reboot_to_rf>
    4238:	ee 24       	eor	r14, r14
    423a:	e3 94       	inc	r14
    423c:	4d c1       	rjmp	.+666    	; 0x44d8 <pneIncomingData+0x8be>
    423e:	48 e0       	ldi	r20, 0x08	; 8
    4240:	50 e0       	ldi	r21, 0x00	; 0
    4242:	66 e0       	ldi	r22, 0x06	; 6
    4244:	73 e0       	ldi	r23, 0x03	; 3
    4246:	c8 01       	movw	r24, r16
    4248:	0e 94 5a 51 	call	0xa2b4	; 0xa2b4 <memcmp>
    424c:	89 2b       	or	r24, r25
    424e:	09 f0       	breq	.+2      	; 0x4252 <pneIncomingData+0x638>
    4250:	56 c0       	rjmp	.+172    	; 0x42fe <pneIncomingData+0x6e4>
    4252:	2f e0       	ldi	r18, 0x0F	; 15
    4254:	2f 15       	cp	r18, r15
    4256:	30 f0       	brcs	.+12     	; 0x4264 <pneIncomingData+0x64a>
    4258:	84 e0       	ldi	r24, 0x04	; 4
    425a:	0e 94 6c 37 	call	0x6ed8	; 0x6ed8 <error_to_rf>
    425e:	ee 24       	eor	r14, r14
    4260:	e3 94       	inc	r14
    4262:	3a c1       	rjmp	.+628    	; 0x44d8 <pneIncomingData+0x8be>
    4264:	6e ef       	ldi	r22, 0xFE	; 254
    4266:	6f 0d       	add	r22, r15
    4268:	c8 01       	movw	r24, r16
    426a:	0e 94 30 3a 	call	0x7460	; 0x7460 <crc_verify>
    426e:	e8 2e       	mov	r14, r24
    4270:	88 23       	and	r24, r24
    4272:	09 f4       	brne	.+2      	; 0x4276 <pneIncomingData+0x65c>
    4274:	2f c1       	rjmp	.+606    	; 0x44d4 <pneIncomingData+0x8ba>
    4276:	f8 01       	movw	r30, r16
    4278:	81 85       	ldd	r24, Z+9	; 0x09
    427a:	90 e0       	ldi	r25, 0x00	; 0
    427c:	c0 97       	sbiw	r24, 0x30	; 48
    427e:	28 ee       	ldi	r18, 0xE8	; 232
    4280:	33 e0       	ldi	r19, 0x03	; 3
    4282:	82 9f       	mul	r24, r18
    4284:	a0 01       	movw	r20, r0
    4286:	83 9f       	mul	r24, r19
    4288:	50 0d       	add	r21, r0
    428a:	92 9f       	mul	r25, r18
    428c:	50 0d       	add	r21, r0
    428e:	11 24       	eor	r1, r1
    4290:	82 85       	ldd	r24, Z+10	; 0x0a
    4292:	90 e0       	ldi	r25, 0x00	; 0
    4294:	c0 97       	sbiw	r24, 0x30	; 48
    4296:	64 e6       	ldi	r22, 0x64	; 100
    4298:	68 9f       	mul	r22, r24
    429a:	90 01       	movw	r18, r0
    429c:	69 9f       	mul	r22, r25
    429e:	30 0d       	add	r19, r0
    42a0:	11 24       	eor	r1, r1
    42a2:	24 0f       	add	r18, r20
    42a4:	35 1f       	adc	r19, r21
    42a6:	84 85       	ldd	r24, Z+12	; 0x0c
    42a8:	90 e0       	ldi	r25, 0x00	; 0
    42aa:	c0 97       	sbiw	r24, 0x30	; 48
    42ac:	82 0f       	add	r24, r18
    42ae:	93 1f       	adc	r25, r19
    42b0:	43 85       	ldd	r20, Z+11	; 0x0b
    42b2:	50 e0       	ldi	r21, 0x00	; 0
    42b4:	40 53       	subi	r20, 0x30	; 48
    42b6:	51 09       	sbc	r21, r1
    42b8:	7a e0       	ldi	r23, 0x0A	; 10
    42ba:	74 9f       	mul	r23, r20
    42bc:	90 01       	movw	r18, r0
    42be:	75 9f       	mul	r23, r21
    42c0:	30 0d       	add	r19, r0
    42c2:	11 24       	eor	r1, r1
    42c4:	82 0f       	add	r24, r18
    42c6:	93 1f       	adc	r25, r19
    42c8:	25 85       	ldd	r18, Z+13	; 0x0d
    42ca:	20 53       	subi	r18, 0x30	; 48
    42cc:	66 85       	ldd	r22, Z+14	; 0x0e
    42ce:	27 9f       	mul	r18, r23
    42d0:	60 0d       	add	r22, r0
    42d2:	11 24       	eor	r1, r1
    42d4:	60 53       	subi	r22, 0x30	; 48
    42d6:	9c 01       	movw	r18, r24
    42d8:	0b c0       	rjmp	.+22     	; 0x42f0 <pneIncomingData+0x6d6>
    42da:	21 15       	cp	r18, r1
    42dc:	f0 e2       	ldi	r31, 0x20	; 32
    42de:	3f 07       	cpc	r19, r31
    42e0:	28 f0       	brcs	.+10     	; 0x42ec <pneIncomingData+0x6d2>
    42e2:	84 e0       	ldi	r24, 0x04	; 4
    42e4:	0e 94 6c 37 	call	0x6ed8	; 0x6ed8 <error_to_rf>
    42e8:	e1 2c       	mov	r14, r1
    42ea:	f6 c0       	rjmp	.+492    	; 0x44d8 <pneIncomingData+0x8be>
    42ec:	2f 5f       	subi	r18, 0xFF	; 255
    42ee:	3f 4f       	sbci	r19, 0xFF	; 255
    42f0:	42 2f       	mov	r20, r18
    42f2:	48 1b       	sub	r20, r24
    42f4:	46 17       	cp	r20, r22
    42f6:	88 f3       	brcs	.-30     	; 0x42da <pneIncomingData+0x6c0>
    42f8:	0e 94 38 37 	call	0x6e70	; 0x6e70 <eeprom_byte_to_rf>
    42fc:	ed c0       	rjmp	.+474    	; 0x44d8 <pneIncomingData+0x8be>
    42fe:	48 e0       	ldi	r20, 0x08	; 8
    4300:	50 e0       	ldi	r21, 0x00	; 0
    4302:	6f e0       	ldi	r22, 0x0F	; 15
    4304:	73 e0       	ldi	r23, 0x03	; 3
    4306:	c8 01       	movw	r24, r16
    4308:	0e 94 5a 51 	call	0xa2b4	; 0xa2b4 <memcmp>
    430c:	89 2b       	or	r24, r25
    430e:	09 f0       	breq	.+2      	; 0x4312 <pneIncomingData+0x6f8>
    4310:	68 c0       	rjmp	.+208    	; 0x43e2 <pneIncomingData+0x7c8>
    4312:	2f e0       	ldi	r18, 0x0F	; 15
    4314:	2f 15       	cp	r18, r15
    4316:	30 f0       	brcs	.+12     	; 0x4324 <pneIncomingData+0x70a>
    4318:	84 e0       	ldi	r24, 0x04	; 4
    431a:	0e 94 6c 37 	call	0x6ed8	; 0x6ed8 <error_to_rf>
    431e:	ee 24       	eor	r14, r14
    4320:	e3 94       	inc	r14
    4322:	da c0       	rjmp	.+436    	; 0x44d8 <pneIncomingData+0x8be>
    4324:	6e ef       	ldi	r22, 0xFE	; 254
    4326:	6f 0d       	add	r22, r15
    4328:	c8 01       	movw	r24, r16
    432a:	0e 94 30 3a 	call	0x7460	; 0x7460 <crc_verify>
    432e:	e8 2e       	mov	r14, r24
    4330:	88 23       	and	r24, r24
    4332:	09 f4       	brne	.+2      	; 0x4336 <pneIncomingData+0x71c>
    4334:	50 c0       	rjmp	.+160    	; 0x43d6 <pneIncomingData+0x7bc>
    4336:	ad b6       	in	r10, 0x3d	; 61
    4338:	be b6       	in	r11, 0x3e	; 62
    433a:	f8 01       	movw	r30, r16
    433c:	41 85       	ldd	r20, Z+9	; 0x09
    433e:	62 85       	ldd	r22, Z+10	; 0x0a
    4340:	70 e0       	ldi	r23, 0x00	; 0
    4342:	76 2f       	mov	r23, r22
    4344:	66 27       	eor	r22, r22
    4346:	83 85       	ldd	r24, Z+11	; 0x0b
    4348:	68 0f       	add	r22, r24
    434a:	71 1d       	adc	r23, r1
    434c:	49 30       	cpi	r20, 0x09	; 9
    434e:	e0 f5       	brcc	.+120    	; 0x43c8 <pneIncomingData+0x7ae>
    4350:	8f 2d       	mov	r24, r15
    4352:	90 e0       	ldi	r25, 0x00	; 0
    4354:	41 97       	sbiw	r24, 0x11	; 17
    4356:	24 2f       	mov	r18, r20
    4358:	30 e0       	ldi	r19, 0x00	; 0
    435a:	82 17       	cp	r24, r18
    435c:	93 07       	cpc	r25, r19
    435e:	a1 f5       	brne	.+104    	; 0x43c8 <pneIncomingData+0x7ae>
    4360:	8d b7       	in	r24, 0x3d	; 61
    4362:	9e b7       	in	r25, 0x3e	; 62
    4364:	84 1b       	sub	r24, r20
    4366:	91 09       	sbc	r25, r1
    4368:	0f b6       	in	r0, 0x3f	; 63
    436a:	f8 94       	cli
    436c:	9e bf       	out	0x3e, r25	; 62
    436e:	0f be       	out	0x3f, r0	; 63
    4370:	8d bf       	out	0x3d, r24	; 61
    4372:	01 96       	adiw	r24, 0x01	; 1
    4374:	dc 01       	movw	r26, r24
    4376:	fc 01       	movw	r30, r24
    4378:	01 c0       	rjmp	.+2      	; 0x437c <pneIncomingData+0x762>
    437a:	11 92       	st	Z+, r1
    437c:	2e 2f       	mov	r18, r30
    437e:	2a 1b       	sub	r18, r26
    4380:	24 17       	cp	r18, r20
    4382:	d8 f3       	brcs	.-10     	; 0x437a <pneIncomingData+0x760>
    4384:	04 5f       	subi	r16, 0xF4	; 244
    4386:	1f 4f       	sbci	r17, 0xFF	; 255
    4388:	f8 01       	movw	r30, r16
    438a:	02 c0       	rjmp	.+4      	; 0x4390 <pneIncomingData+0x776>
    438c:	21 91       	ld	r18, Z+
    438e:	2d 93       	st	X+, r18
    4390:	2e 2f       	mov	r18, r30
    4392:	20 1b       	sub	r18, r16
    4394:	24 17       	cp	r18, r20
    4396:	d0 f3       	brcs	.-12     	; 0x438c <pneIncomingData+0x772>
    4398:	9b 01       	movw	r18, r22
    439a:	0a c0       	rjmp	.+20     	; 0x43b0 <pneIncomingData+0x796>
    439c:	21 15       	cp	r18, r1
    439e:	e0 e2       	ldi	r30, 0x20	; 32
    43a0:	3e 07       	cpc	r19, r30
    43a2:	20 f0       	brcs	.+8      	; 0x43ac <pneIncomingData+0x792>
    43a4:	84 e0       	ldi	r24, 0x04	; 4
    43a6:	0e 94 6c 37 	call	0x6ed8	; 0x6ed8 <error_to_rf>
    43aa:	0e c0       	rjmp	.+28     	; 0x43c8 <pneIncomingData+0x7ae>
    43ac:	2f 5f       	subi	r18, 0xFF	; 255
    43ae:	3f 4f       	sbci	r19, 0xFF	; 255
    43b0:	52 2f       	mov	r21, r18
    43b2:	56 1b       	sub	r21, r22
    43b4:	54 17       	cp	r21, r20
    43b6:	90 f3       	brcs	.-28     	; 0x439c <pneIncomingData+0x782>
    43b8:	0e 94 6b 38 	call	0x70d6	; 0x70d6 <write_to_rf>
    43bc:	0f b6       	in	r0, 0x3f	; 63
    43be:	f8 94       	cli
    43c0:	be be       	out	0x3e, r11	; 62
    43c2:	0f be       	out	0x3f, r0	; 63
    43c4:	ad be       	out	0x3d, r10	; 61
    43c6:	88 c0       	rjmp	.+272    	; 0x44d8 <pneIncomingData+0x8be>
    43c8:	0f b6       	in	r0, 0x3f	; 63
    43ca:	f8 94       	cli
    43cc:	be be       	out	0x3e, r11	; 62
    43ce:	0f be       	out	0x3f, r0	; 63
    43d0:	ad be       	out	0x3d, r10	; 61
    43d2:	e1 2c       	mov	r14, r1
    43d4:	81 c0       	rjmp	.+258    	; 0x44d8 <pneIncomingData+0x8be>
    43d6:	84 e0       	ldi	r24, 0x04	; 4
    43d8:	0e 94 6c 37 	call	0x6ed8	; 0x6ed8 <error_to_rf>
    43dc:	ee 24       	eor	r14, r14
    43de:	e3 94       	inc	r14
    43e0:	7b c0       	rjmp	.+246    	; 0x44d8 <pneIncomingData+0x8be>
    43e2:	48 e0       	ldi	r20, 0x08	; 8
    43e4:	50 e0       	ldi	r21, 0x00	; 0
    43e6:	68 e1       	ldi	r22, 0x18	; 24
    43e8:	73 e0       	ldi	r23, 0x03	; 3
    43ea:	c8 01       	movw	r24, r16
    43ec:	0e 94 5a 51 	call	0xa2b4	; 0xa2b4 <memcmp>
    43f0:	89 2b       	or	r24, r25
    43f2:	b9 f4       	brne	.+46     	; 0x4422 <pneIncomingData+0x808>
    43f4:	0e 94 c8 02 	call	0x590	; 0x590 <APP_IbLoadSettings_BROADCAST>
    43f8:	84 e6       	ldi	r24, 0x64	; 100
    43fa:	90 e0       	ldi	r25, 0x00	; 0
    43fc:	e2 d1       	rcall	.+964    	; 0x47c2 <pne_delayms>
    43fe:	84 e9       	ldi	r24, 0x94	; 148
    4400:	9f e1       	ldi	r25, 0x1F	; 31
    4402:	0e 94 1a 3a 	call	0x7434	; 0x7434 <sos_to_RF>
    4406:	86 e0       	ldi	r24, 0x06	; 6
    4408:	80 93 6c 20 	sts	0x206C, r24
    440c:	60 91 40 20 	lds	r22, 0x2040
    4410:	70 91 41 20 	lds	r23, 0x2041
    4414:	80 91 42 20 	lds	r24, 0x2042
    4418:	0e 94 7c 0a 	call	0x14f8	; 0x14f8 <gpio_set>
    441c:	ee 24       	eor	r14, r14
    441e:	e3 94       	inc	r14
    4420:	5b c0       	rjmp	.+182    	; 0x44d8 <pneIncomingData+0x8be>
    4422:	48 e0       	ldi	r20, 0x08	; 8
    4424:	50 e0       	ldi	r21, 0x00	; 0
    4426:	61 e2       	ldi	r22, 0x21	; 33
    4428:	73 e0       	ldi	r23, 0x03	; 3
    442a:	c8 01       	movw	r24, r16
    442c:	0e 94 5a 51 	call	0xa2b4	; 0xa2b4 <memcmp>
    4430:	89 2b       	or	r24, r25
    4432:	09 f0       	breq	.+2      	; 0x4436 <pneIncomingData+0x81c>
    4434:	44 c0       	rjmp	.+136    	; 0x44be <pneIncomingData+0x8a4>
    4436:	86 e0       	ldi	r24, 0x06	; 6
    4438:	80 93 6c 20 	sts	0x206C, r24
    443c:	fb e1       	ldi	r31, 0x1B	; 27
    443e:	ff 15       	cp	r31, r15
    4440:	30 f0       	brcs	.+12     	; 0x444e <pneIncomingData+0x834>
    4442:	88 e0       	ldi	r24, 0x08	; 8
    4444:	0e 94 6c 37 	call	0x6ed8	; 0x6ed8 <error_to_rf>
    4448:	ee 24       	eor	r14, r14
    444a:	e3 94       	inc	r14
    444c:	45 c0       	rjmp	.+138    	; 0x44d8 <pneIncomingData+0x8be>
    444e:	6e ef       	ldi	r22, 0xFE	; 254
    4450:	6f 0d       	add	r22, r15
    4452:	c8 01       	movw	r24, r16
    4454:	0e 94 30 3a 	call	0x7460	; 0x7460 <crc_verify>
    4458:	88 23       	and	r24, r24
    445a:	59 f1       	breq	.+86     	; 0x44b2 <pneIncomingData+0x898>
    445c:	d8 01       	movw	r26, r16
    445e:	19 96       	adiw	r26, 0x09	; 9
    4460:	e4 e9       	ldi	r30, 0x94	; 148
    4462:	ff e1       	ldi	r31, 0x1F	; 31
    4464:	cf 01       	movw	r24, r30
    4466:	80 5f       	subi	r24, 0xF0	; 240
    4468:	2d 91       	ld	r18, X+
    446a:	91 91       	ld	r25, Z+
    446c:	29 17       	cp	r18, r25
    446e:	29 f0       	breq	.+10     	; 0x447a <pneIncomingData+0x860>
    4470:	89 e0       	ldi	r24, 0x09	; 9
    4472:	0e 94 6c 37 	call	0x6ed8	; 0x6ed8 <error_to_rf>
    4476:	e1 2c       	mov	r14, r1
    4478:	2f c0       	rjmp	.+94     	; 0x44d8 <pneIncomingData+0x8be>
    447a:	8e 13       	cpse	r24, r30
    447c:	f5 cf       	rjmp	.-22     	; 0x4468 <pneIncomingData+0x84e>
    447e:	ce 01       	movw	r24, r28
    4480:	01 96       	adiw	r24, 0x01	; 1
    4482:	29 e0       	ldi	r18, 0x09	; 9
    4484:	fc 01       	movw	r30, r24
    4486:	11 92       	st	Z+, r1
    4488:	2a 95       	dec	r18
    448a:	e9 f7       	brne	.-6      	; 0x4486 <pneIncomingData+0x86c>
    448c:	f8 01       	movw	r30, r16
    448e:	23 8d       	ldd	r18, Z+27	; 0x1b
    4490:	29 83       	std	Y+1, r18	; 0x01
    4492:	24 8d       	ldd	r18, Z+28	; 0x1c
    4494:	2a 83       	std	Y+2, r18	; 0x02
    4496:	25 8d       	ldd	r18, Z+29	; 0x1d
    4498:	2b 83       	std	Y+3, r18	; 0x03
    449a:	26 8d       	ldd	r18, Z+30	; 0x1e
    449c:	2c 83       	std	Y+4, r18	; 0x04
    449e:	27 8d       	ldd	r18, Z+31	; 0x1f
    44a0:	2d 83       	std	Y+5, r18	; 0x05
    44a2:	20 a1       	ldd	r18, Z+32	; 0x20
    44a4:	2e 83       	std	Y+6, r18	; 0x06
    44a6:	0e 94 0c 36 	call	0x6c18	; 0x6c18 <WPS_pairing>
    44aa:	88 ee       	ldi	r24, 0xE8	; 232
    44ac:	93 e0       	ldi	r25, 0x03	; 3
    44ae:	89 d1       	rcall	.+786    	; 0x47c2 <pne_delayms>
    44b0:	ff cf       	rjmp	.-2      	; 0x44b0 <pneIncomingData+0x896>
    44b2:	8a e0       	ldi	r24, 0x0A	; 10
    44b4:	0e 94 6c 37 	call	0x6ed8	; 0x6ed8 <error_to_rf>
    44b8:	ee 24       	eor	r14, r14
    44ba:	e3 94       	inc	r14
    44bc:	0d c0       	rjmp	.+26     	; 0x44d8 <pneIncomingData+0x8be>
    44be:	8b e0       	ldi	r24, 0x0B	; 11
    44c0:	0e 94 6c 37 	call	0x6ed8	; 0x6ed8 <error_to_rf>
    44c4:	ee 24       	eor	r14, r14
    44c6:	e3 94       	inc	r14
    44c8:	07 c0       	rjmp	.+14     	; 0x44d8 <pneIncomingData+0x8be>
    44ca:	e1 2c       	mov	r14, r1
    44cc:	05 c0       	rjmp	.+10     	; 0x44d8 <pneIncomingData+0x8be>
    44ce:	ee 24       	eor	r14, r14
    44d0:	e3 94       	inc	r14
    44d2:	02 c0       	rjmp	.+4      	; 0x44d8 <pneIncomingData+0x8be>
    44d4:	ee 24       	eor	r14, r14
    44d6:	e3 94       	inc	r14
    44d8:	8e 2d       	mov	r24, r14
    44da:	0f b6       	in	r0, 0x3f	; 63
    44dc:	f8 94       	cli
    44de:	de be       	out	0x3e, r13	; 62
    44e0:	0f be       	out	0x3f, r0	; 63
    44e2:	cd be       	out	0x3d, r12	; 61
    44e4:	29 96       	adiw	r28, 0x09	; 9
    44e6:	0f b6       	in	r0, 0x3f	; 63
    44e8:	f8 94       	cli
    44ea:	de bf       	out	0x3e, r29	; 62
    44ec:	0f be       	out	0x3f, r0	; 63
    44ee:	cd bf       	out	0x3d, r28	; 61
    44f0:	df 91       	pop	r29
    44f2:	cf 91       	pop	r28
    44f4:	1f 91       	pop	r17
    44f6:	0f 91       	pop	r16
    44f8:	ff 90       	pop	r15
    44fa:	ef 90       	pop	r14
    44fc:	df 90       	pop	r13
    44fe:	cf 90       	pop	r12
    4500:	bf 90       	pop	r11
    4502:	af 90       	pop	r10
    4504:	9f 90       	pop	r9
    4506:	8f 90       	pop	r8
    4508:	08 95       	ret

0000450a <getUID>:

/*************************************************************************//**
*****************************************************************************/

void getUID()
{
    450a:	0f 93       	push	r16
    450c:	cf 93       	push	r28
    450e:	df 93       	push	r29
    4510:	1f 92       	push	r1
    4512:	1f 92       	push	r1
    4514:	cd b7       	in	r28, 0x3d	; 61
    4516:	de b7       	in	r29, 0x3e	; 62
	uint8_t serial_addr[2] = {0x00, 0x08};
    4518:	19 82       	std	Y+1, r1	; 0x01
    451a:	88 e0       	ldi	r24, 0x08	; 8
    451c:	8a 83       	std	Y+2, r24	; 0x02
		
	pne_APP_TwiInit(0xBF);
    451e:	8f eb       	ldi	r24, 0xBF	; 191
    4520:	64 d1       	rcall	.+712    	; 0x47ea <pne_APP_TwiInit>
	pne_APP_TwiReceive(serial_addr, 2, 0xBF, UID, 16);
    4522:	00 e1       	ldi	r16, 0x10	; 16
    4524:	24 e9       	ldi	r18, 0x94	; 148
    4526:	3f e1       	ldi	r19, 0x1F	; 31
    4528:	4f eb       	ldi	r20, 0xBF	; 191
    452a:	62 e0       	ldi	r22, 0x02	; 2
    452c:	ce 01       	movw	r24, r28
    452e:	01 96       	adiw	r24, 0x01	; 1
    4530:	dd d1       	rcall	.+954    	; 0x48ec <pne_APP_TwiReceive>
    4532:	0f 90       	pop	r0
    4534:	0f 90       	pop	r0
    4536:	df 91       	pop	r29
    4538:	cf 91       	pop	r28
    453a:	0f 91       	pop	r16
    453c:	08 95       	ret

0000453e <PNEWELSAppInit>:
	gpio_in(INPUT_LED_DRV2);
	gpio_pullup(INPUT_LED_DRV2);
}

void PNEWELSAppInit(void)
{
    453e:	0f 93       	push	r16
    4540:	1f 93       	push	r17
    4542:	cf 93       	push	r28
	initialize_flag = 1;
    4544:	c1 e0       	ldi	r28, 0x01	; 1
    4546:	c0 93 7f 20 	sts	0x207F, r28
	installation_flag = 1;
    454a:	c0 93 a9 20 	sts	0x20A9, r28
	data_update_flag = 1;
    454e:	c0 93 3f 20 	sts	0x203F, r28
	status_report_flag = 1;
    4552:	c0 93 a5 20 	sts	0x20A5, r28
	interrupt_flag = 1;
    4556:	c0 93 17 21 	sts	0x2117, r28
	debouncing_delay = 0;
    455a:	10 92 7c 20 	sts	0x207C, r1
	LED_flag = 0;
    455e:	10 92 11 20 	sts	0x2011, r1
	wps_flag = 0;
    4562:	10 92 62 20 	sts	0x2062, r1
	do_once = 0;
    4566:	10 92 0c 21 	sts	0x210C, r1
	operation_seq = off_emergency_light;
    456a:	c0 93 6c 20 	sts	0x206C, r28
	current_state_emergency_light = 0;
    456e:	10 92 1d 21 	sts	0x211D, r1
	memory_address_incr = 0;
    4572:	10 92 1f 21 	sts	0x211F, r1
    4576:	10 92 1e 21 	sts	0x211E, r1
	error_count_status = 0;
    457a:	10 92 80 20 	sts	0x2080, r1
	error_count_wps = 0;
    457e:	10 92 68 20 	sts	0x2068, r1
	wps_send_flag = 1;
    4582:	c0 93 3e 20 	sts	0x203E, r28
	battery_low_once = 0;
    4586:	10 92 e9 20 	sts	0x20E9, r1
	WPS_STATUS = WPS_init;
    458a:	10 92 f8 20 	sts	0x20F8, r1
	rf_flag = 0;
    458e:	10 92 97 20 	sts	0x2097, r1
	countdown = 0;
    4592:	10 92 7e 20 	sts	0x207E, r1
    4596:	10 92 7d 20 	sts	0x207D, r1
 *
 * \param prescaler   ADC clock prescaler
 */
static inline void adc_init(enum adc_prescaler prescaler)
{
	ADCSRA = (uint8_t)prescaler | (1 << ADEN);
    459a:	87 e8       	ldi	r24, 0x87	; 135
    459c:	80 93 7a 00 	sts	0x007A, r24
	//do_once_stop_wps_timer = 0;
	
	adc_init(ADC_PRESCALER_DIV128);
	timer2_init();
    45a0:	0e 94 f0 3a 	call	0x75e0	; 0x75e0 <timer2_init>
	memoryCounter_init();
    45a4:	9c d2       	rcall	.+1336   	; 0x4ade <memoryCounter_init>
		.baudrate = USART_SERIAL_EXAMPLE_BAUDRATE,
		.charlength = USART_SERIAL_CHAR_LENGTH,
		.paritytype = USART_SERIAL_PARITY,
		.stopbits = USART_SERIAL_STOP_BIT
	};
	usart_init_rs232(USART_SERIAL_EXAMPLE, &USART_SERIAL_OPTIONS);
    45a6:	64 e0       	ldi	r22, 0x04	; 4
    45a8:	72 e0       	ldi	r23, 0x02	; 2
    45aa:	88 ec       	ldi	r24, 0xC8	; 200
    45ac:	90 e0       	ldi	r25, 0x00	; 0
    45ae:	0e 94 77 07 	call	0xeee	; 0xeee <usart_init_rs232>
	
	/*Software timer declaration*/
	appLEDTimer.interval = STANDBY_TIMER;
    45b2:	ea ea       	ldi	r30, 0xAA	; 170
    45b4:	f0 e2       	ldi	r31, 0x20	; 32
    45b6:	84 ef       	ldi	r24, 0xF4	; 244
    45b8:	91 e0       	ldi	r25, 0x01	; 1
    45ba:	a0 e0       	ldi	r26, 0x00	; 0
    45bc:	b0 e0       	ldi	r27, 0x00	; 0
    45be:	86 83       	std	Z+6, r24	; 0x06
    45c0:	97 83       	std	Z+7, r25	; 0x07
    45c2:	a0 87       	std	Z+8, r26	; 0x08
    45c4:	b1 87       	std	Z+9, r27	; 0x09
	appLEDTimer.mode = SYS_TIMER_INTERVAL_MODE;
    45c6:	12 86       	std	Z+10, r1	; 0x0a
	appLEDTimer.handler = appLEDTimerHandler;
    45c8:	8c e8       	ldi	r24, 0x8C	; 140
    45ca:	97 e1       	ldi	r25, 0x17	; 23
    45cc:	94 87       	std	Z+12, r25	; 0x0c
    45ce:	83 87       	std	Z+11, r24	; 0x0b
	SYS_TimerStart(&appLEDTimer);
    45d0:	cf 01       	movw	r24, r30
    45d2:	0e 94 d0 16 	call	0x2da0	; 0x2da0 <SYS_TimerStart>
	
	appLEDIntervalTimer.interval = STANDBY_INTERVAL_TIMER;
    45d6:	e4 e8       	ldi	r30, 0x84	; 132
    45d8:	f0 e2       	ldi	r31, 0x20	; 32
    45da:	88 ee       	ldi	r24, 0xE8	; 232
    45dc:	93 e0       	ldi	r25, 0x03	; 3
    45de:	a0 e0       	ldi	r26, 0x00	; 0
    45e0:	b0 e0       	ldi	r27, 0x00	; 0
    45e2:	86 83       	std	Z+6, r24	; 0x06
    45e4:	97 83       	std	Z+7, r25	; 0x07
    45e6:	a0 87       	std	Z+8, r26	; 0x08
    45e8:	b1 87       	std	Z+9, r27	; 0x09
	appLEDIntervalTimer.mode = SYS_TIMER_INTERVAL_MODE;
    45ea:	12 86       	std	Z+10, r1	; 0x0a
	appLEDIntervalTimer.handler = appLEDIntervalTimerHandler;
    45ec:	84 e5       	ldi	r24, 0x54	; 84
    45ee:	97 e1       	ldi	r25, 0x17	; 23
    45f0:	94 87       	std	Z+12, r25	; 0x0c
    45f2:	83 87       	std	Z+11, r24	; 0x0b
	
	error_timer_status.interval = rand()%400+100;
    45f4:	0e 94 4c 51 	call	0xa298	; 0xa298 <rand>
    45f8:	ee e6       	ldi	r30, 0x6E	; 110
    45fa:	f0 e2       	ldi	r31, 0x20	; 32
    45fc:	00 e9       	ldi	r16, 0x90	; 144
    45fe:	11 e0       	ldi	r17, 0x01	; 1
    4600:	b8 01       	movw	r22, r16
    4602:	0e 94 8f 50 	call	0xa11e	; 0xa11e <__divmodhi4>
    4606:	8c 59       	subi	r24, 0x9C	; 156
    4608:	9f 4f       	sbci	r25, 0xFF	; 255
    460a:	09 2e       	mov	r0, r25
    460c:	00 0c       	add	r0, r0
    460e:	aa 0b       	sbc	r26, r26
    4610:	bb 0b       	sbc	r27, r27
    4612:	86 83       	std	Z+6, r24	; 0x06
    4614:	97 83       	std	Z+7, r25	; 0x07
    4616:	a0 87       	std	Z+8, r26	; 0x08
    4618:	b1 87       	std	Z+9, r27	; 0x09
	error_timer_status.mode = SYS_TIMER_INTERVAL_MODE;
    461a:	12 86       	std	Z+10, r1	; 0x0a
	error_timer_status.handler = errorTimerStatusHandler;
    461c:	86 e4       	ldi	r24, 0x46	; 70
    461e:	97 e1       	ldi	r25, 0x17	; 23
    4620:	94 87       	std	Z+12, r25	; 0x0c
    4622:	83 87       	std	Z+11, r24	; 0x0b
	
	error_timer_wps.interval = rand()%400+100;
    4624:	0e 94 4c 51 	call	0xa298	; 0xa298 <rand>
    4628:	e3 e4       	ldi	r30, 0x43	; 67
    462a:	f0 e2       	ldi	r31, 0x20	; 32
    462c:	b8 01       	movw	r22, r16
    462e:	0e 94 8f 50 	call	0xa11e	; 0xa11e <__divmodhi4>
    4632:	8c 59       	subi	r24, 0x9C	; 156
    4634:	9f 4f       	sbci	r25, 0xFF	; 255
    4636:	09 2e       	mov	r0, r25
    4638:	00 0c       	add	r0, r0
    463a:	aa 0b       	sbc	r26, r26
    463c:	bb 0b       	sbc	r27, r27
    463e:	86 83       	std	Z+6, r24	; 0x06
    4640:	97 83       	std	Z+7, r25	; 0x07
    4642:	a0 87       	std	Z+8, r26	; 0x08
    4644:	b1 87       	std	Z+9, r27	; 0x09
	error_timer_wps.mode = SYS_TIMER_INTERVAL_MODE;
    4646:	12 86       	std	Z+10, r1	; 0x0a
	error_timer_wps.handler = errorTimerWpsHandler;
    4648:	84 e8       	ldi	r24, 0x84	; 132
    464a:	97 e1       	ldi	r25, 0x17	; 23
    464c:	94 87       	std	Z+12, r25	; 0x0c
    464e:	83 87       	std	Z+11, r24	; 0x0b
	/*SYS_TimerStart(&error_timer_wps);*/
	
	appWPSRequestTimer.interval = WPS_REQUEST_TIMER;
    4650:	ec ef       	ldi	r30, 0xFC	; 252
    4652:	f0 e2       	ldi	r31, 0x20	; 32
    4654:	88 e8       	ldi	r24, 0x88	; 136
    4656:	93 e1       	ldi	r25, 0x13	; 19
    4658:	a0 e0       	ldi	r26, 0x00	; 0
    465a:	b0 e0       	ldi	r27, 0x00	; 0
    465c:	86 83       	std	Z+6, r24	; 0x06
    465e:	97 83       	std	Z+7, r25	; 0x07
    4660:	a0 87       	std	Z+8, r26	; 0x08
    4662:	b1 87       	std	Z+9, r27	; 0x09
	appWPSRequestTimer.mode = SYS_TIMER_PERIODIC_MODE;
    4664:	c2 87       	std	Z+10, r28	; 0x0a
	appWPSRequestTimer.handler = appWPSRequestTimerHandler;
    4666:	2f e7       	ldi	r18, 0x7F	; 127
    4668:	37 e1       	ldi	r19, 0x17	; 23
    466a:	34 87       	std	Z+12, r19	; 0x0c
    466c:	23 87       	std	Z+11, r18	; 0x0b
	/*SYS_TimerStart(&appWPSRequestTimer);*/
	
	appWPSActivationTimer.interval = WPS_REQUEST_TIMER;
    466e:	eb ee       	ldi	r30, 0xEB	; 235
    4670:	f0 e2       	ldi	r31, 0x20	; 32
    4672:	86 83       	std	Z+6, r24	; 0x06
    4674:	97 83       	std	Z+7, r25	; 0x07
    4676:	a0 87       	std	Z+8, r26	; 0x08
    4678:	b1 87       	std	Z+9, r27	; 0x09
	appWPSActivationTimer.mode = SYS_TIMER_INTERVAL_MODE;
    467a:	12 86       	std	Z+10, r1	; 0x0a
	appWPSActivationTimer.handler = appWPSActivationTimerHandler;
    467c:	88 e5       	ldi	r24, 0x58	; 88
    467e:	97 e1       	ldi	r25, 0x17	; 23
    4680:	94 87       	std	Z+12, r25	; 0x0c
    4682:	83 87       	std	Z+11, r24	; 0x0b
	
	pneBatteryAverage_init(); //get average battery reading
    4684:	0e 94 24 3b 	call	0x7648	; 0x7648 <pneBatteryAverage_init>
	getUID(); //retrieve UID
    4688:	40 df       	rcall	.-384    	; 0x450a <getUID>
	
	/*Factory Status*/
	if(gpio_read(FACTORY_BTN) ? 0 : 1)
    468a:	60 91 a6 20 	lds	r22, 0x20A6
    468e:	70 91 a7 20 	lds	r23, 0x20A7
    4692:	80 91 a8 20 	lds	r24, 0x20A8
    4696:	0e 94 33 0c 	call	0x1866	; 0x1866 <gpio_read>
    469a:	81 11       	cpse	r24, r1
    469c:	08 c0       	rjmp	.+16     	; 0x46ae <PNEWELSAppInit+0x170>
	{
		PNEWELS_Buffer.IsFactory = STATUS_FACTORY_OK;
    469e:	e6 e1       	ldi	r30, 0x16	; 22
    46a0:	f0 e2       	ldi	r31, 0x20	; 32
    46a2:	17 82       	std	Z+7, r1	; 0x07
		PNEWELS_Buffer.mode_Next = MODE_FACTORY;
    46a4:	86 e0       	ldi	r24, 0x06	; 6
    46a6:	83 8b       	std	Z+19, r24	; 0x13
		factory_mode();
    46a8:	0e 94 70 34 	call	0x68e0	; 0x68e0 <factory_mode>
    46ac:	03 c0       	rjmp	.+6      	; 0x46b4 <PNEWELSAppInit+0x176>
	}
	else
	{
		PNEWELS_Buffer.IsFactory = STATUS_FACTORY_NOK;
    46ae:	81 e0       	ldi	r24, 0x01	; 1
    46b0:	80 93 1d 20 	sts	0x201D, r24
	}
}
    46b4:	cf 91       	pop	r28
    46b6:	1f 91       	pop	r17
    46b8:	0f 91       	pop	r16
    46ba:	08 95       	ret

000046bc <systemFlag_check>:
	//PNEWELSE2promWrite(0xAE, 'E', 01, 41, 0xFF); //reset flag
}

void systemFlag_check()
{
	if(device_flag & (1<<AC_FLAG))
    46bc:	80 91 12 21 	lds	r24, 0x2112
    46c0:	81 ff       	sbrs	r24, 1
    46c2:	0e c0       	rjmp	.+28     	; 0x46e0 <systemFlag_check+0x24>
	{
		operation_seq = wps_state;
    46c4:	84 e0       	ldi	r24, 0x04	; 4
    46c6:	80 93 6c 20 	sts	0x206C, r24
		reboot_countdown = 0;
    46ca:	10 92 67 20 	sts	0x2067, r1
    46ce:	10 92 66 20 	sts	0x2066, r1
		APP_IbLoadSettings_WPS(); //load temporary setting
    46d2:	0e 94 8c 02 	call	0x518	; 0x518 <APP_IbLoadSettings_WPS>
		SYS_TimerStart(&appWPSRequestTimer); //start requesting data
    46d6:	8c ef       	ldi	r24, 0xFC	; 252
    46d8:	90 e2       	ldi	r25, 0x20	; 32
    46da:	0c 94 d0 16 	jmp	0x2da0	; 0x2da0 <SYS_TimerStart>
    46de:	08 95       	ret
	}
	else operation_seq = off_emergency_light;
    46e0:	81 e0       	ldi	r24, 0x01	; 1
    46e2:	80 93 6c 20 	sts	0x206C, r24
    46e6:	08 95       	ret

000046e8 <write_factory_default>:
	//device_flag = (device_flag & ~(1<<AC_FLAG)); //write the flag
	//writeE2prom(FLAG,device_flag);
}

void write_factory_default(uint16_t address, uint8_t factory_default)
{
    46e8:	0f 93       	push	r16
	uint8_t memory_address_low = (address & 0xFF);
	uint8_t memory_address_high = ((address >> 8) & 0xFF);
	
	PNEWELSE2promWrite(0xAE, 'E', memory_address_low, memory_address_high, factory_default); //set device address default value (LSB)
    46ea:	06 2f       	mov	r16, r22
    46ec:	29 2f       	mov	r18, r25
    46ee:	48 2f       	mov	r20, r24
    46f0:	65 e4       	ldi	r22, 0x45	; 69
    46f2:	8e ea       	ldi	r24, 0xAE	; 174
    46f4:	53 d1       	rcall	.+678    	; 0x499c <PNEWELSE2promWrite>
	pne_delayms(10);
    46f6:	8a e0       	ldi	r24, 0x0A	; 10
    46f8:	90 e0       	ldi	r25, 0x00	; 0
    46fa:	63 d0       	rcall	.+198    	; 0x47c2 <pne_delayms>
	
    46fc:	0f 91       	pop	r16
    46fe:	08 95       	ret

00004700 <factory_initialization>:
#include "memoryConfig.h"
#include "appIb.h"

void factory_initialization()
{
	device_flag = readE2prom(FLAG); //read flag form EEPROM
    4700:	82 e0       	ldi	r24, 0x02	; 2
    4702:	90 e1       	ldi	r25, 0x10	; 16
    4704:	0e 94 43 32 	call	0x6486	; 0x6486 <readE2prom>
    4708:	80 93 12 21 	sts	0x2112, r24
	batt_low = readE2prom(BATTERY_LOW);
    470c:	84 e0       	ldi	r24, 0x04	; 4
    470e:	90 e1       	ldi	r25, 0x10	; 16
    4710:	0e 94 43 32 	call	0x6486	; 0x6486 <readE2prom>
    4714:	80 93 0d 21 	sts	0x210D, r24
	batt_max = readE2prom(BATTERY_MAX);
    4718:	83 e0       	ldi	r24, 0x03	; 3
    471a:	90 e1       	ldi	r25, 0x10	; 16
    471c:	0e 94 43 32 	call	0x6486	; 0x6486 <readE2prom>
    4720:	80 93 10 20 	sts	0x2010, r24
	if(device_flag & (1<<FACTORY_FLAG))  //check whether this is the first time boot, or hard reset was commenced.
    4724:	80 91 12 21 	lds	r24, 0x2112
    4728:	80 ff       	sbrs	r24, 0
    472a:	2e c0       	rjmp	.+92     	; 0x4788 <factory_initialization+0x88>
	{
		write_factory_default(DEVICE_ADDRESS_L,ADDRESS_DEFAULT_L);
    472c:	61 e0       	ldi	r22, 0x01	; 1
    472e:	8c ef       	ldi	r24, 0xFC	; 252
    4730:	9f e0       	ldi	r25, 0x0F	; 15
    4732:	da df       	rcall	.-76     	; 0x46e8 <write_factory_default>
		write_factory_default(DEVICE_ADDRESS_H,ADDRESS_DEFAULT_H); //set device address default value (MSB)
    4734:	60 e0       	ldi	r22, 0x00	; 0
    4736:	8d ef       	ldi	r24, 0xFD	; 253
    4738:	9f e0       	ldi	r25, 0x0F	; 15
    473a:	d6 df       	rcall	.-84     	; 0x46e8 <write_factory_default>
		
		write_factory_default(DEVICE_CHANNEL_L,CHANNEL_DEFAULT_L); //set device channel default value (LSB)
    473c:	60 e1       	ldi	r22, 0x10	; 16
    473e:	8e ef       	ldi	r24, 0xFE	; 254
    4740:	9f e0       	ldi	r25, 0x0F	; 15
    4742:	d2 df       	rcall	.-92     	; 0x46e8 <write_factory_default>
		write_factory_default(DEVICE_CHANNEL_H,CHANNEL_DEFAULT_H); //set device channel default value (MSB)
    4744:	60 e0       	ldi	r22, 0x00	; 0
    4746:	8f ef       	ldi	r24, 0xFF	; 255
    4748:	9f e0       	ldi	r25, 0x0F	; 15
    474a:	ce df       	rcall	.-100    	; 0x46e8 <write_factory_default>
		
		write_factory_default(DEVICE_PAN_L,PAN_DEFAULT_L); //set device PAN default value (LSB)
    474c:	64 e3       	ldi	r22, 0x34	; 52
    474e:	80 e0       	ldi	r24, 0x00	; 0
    4750:	90 e1       	ldi	r25, 0x10	; 16
    4752:	ca df       	rcall	.-108    	; 0x46e8 <write_factory_default>
		write_factory_default(DEVICE_PAN_H,PAN_DEFAULT_H); //set device PAN default value (MSB)
    4754:	62 e1       	ldi	r22, 0x12	; 18
    4756:	81 e0       	ldi	r24, 0x01	; 1
    4758:	90 e1       	ldi	r25, 0x10	; 16
    475a:	c6 df       	rcall	.-116    	; 0x46e8 <write_factory_default>
		
		write_factory_default(BATTERY_MAX,BATTERY_MAX_THRESH);
    475c:	6f e8       	ldi	r22, 0x8F	; 143
    475e:	83 e0       	ldi	r24, 0x03	; 3
    4760:	90 e1       	ldi	r25, 0x10	; 16
    4762:	c2 df       	rcall	.-124    	; 0x46e8 <write_factory_default>
		write_factory_default(BATTERY_LOW,BATTERY_LOW_THRESH);
    4764:	66 e6       	ldi	r22, 0x66	; 102
    4766:	84 e0       	ldi	r24, 0x04	; 4
    4768:	90 e1       	ldi	r25, 0x10	; 16
    476a:	be df       	rcall	.-132    	; 0x46e8 <write_factory_default>
		
		clre2prom(); //wipe all log file
    476c:	9c d1       	rcall	.+824    	; 0x4aa6 <clre2prom>
//		write_factory_default(GROUP_ID, GROUP_DEFAULT); //set Group ID default Value
//		write_factory_default(ZONE_ID, ZONE_DEFAULT); //set Zone ID default Value
//		write_factory_default(NODE_ID, NODE_DEFAULT); //set Node ID default value
		
		device_flag = (device_flag & ~(1<<FACTORY_FLAG));
    476e:	80 91 12 21 	lds	r24, 0x2112
    4772:	8e 7f       	andi	r24, 0xFE	; 254
    4774:	80 93 12 21 	sts	0x2112, r24
		
		write_factory_default(FLAG, device_flag); //set Factory flag
    4778:	60 91 12 21 	lds	r22, 0x2112
    477c:	82 e0       	ldi	r24, 0x02	; 2
    477e:	90 e1       	ldi	r25, 0x10	; 16
    4780:	b3 df       	rcall	.-154    	; 0x46e8 <write_factory_default>
		pne_delayms(10);
    4782:	8a e0       	ldi	r24, 0x0A	; 10
    4784:	90 e0       	ldi	r25, 0x00	; 0
    4786:	1d c0       	rjmp	.+58     	; 0x47c2 <pne_delayms>
    4788:	08 95       	ret

0000478a <rf_init>:
#include <string.h>
#include "pne_appDelay.h"
#include "pne_rf_processor.h"

uint16_t rf_init(uint16_t address, uint16_t app_type)
{
    478a:	1f 93       	push	r17
    478c:	cf 93       	push	r28
    478e:	df 93       	push	r29
    4790:	d8 2f       	mov	r29, r24
    4792:	19 2f       	mov	r17, r25
	uint8_t cache[2] = {0};
	uint8_t memory_address_low = (address & 0xFF);
	uint8_t memory_address_high = ((address >> 8) & 0xFF);
		
	cache[0] = PNEWELSE2promRead(0xAF,'E',memory_address_low+1,memory_address_high);
    4794:	41 e0       	ldi	r20, 0x01	; 1
    4796:	48 0f       	add	r20, r24
    4798:	29 2f       	mov	r18, r25
    479a:	65 e4       	ldi	r22, 0x45	; 69
    479c:	8f ea       	ldi	r24, 0xAF	; 175
    479e:	29 d1       	rcall	.+594    	; 0x49f2 <PNEWELSE2promRead>
    47a0:	c8 2f       	mov	r28, r24
	cache[1] = PNEWELSE2promRead(0xAF,'E',memory_address_low,memory_address_high);
    47a2:	21 2f       	mov	r18, r17
    47a4:	4d 2f       	mov	r20, r29
    47a6:	65 e4       	ldi	r22, 0x45	; 69
    47a8:	8f ea       	ldi	r24, 0xAF	; 175
    47aa:	23 d1       	rcall	.+582    	; 0x49f2 <PNEWELSE2promRead>
	app_type = cache[0];
    47ac:	2c 2f       	mov	r18, r28
    47ae:	30 e0       	ldi	r19, 0x00	; 0
	app_type = app_type << 8;
    47b0:	32 2f       	mov	r19, r18
    47b2:	22 27       	eor	r18, r18
	app_type |= cache[1];
	return app_type;
    47b4:	a9 01       	movw	r20, r18
    47b6:	48 2b       	or	r20, r24
    47b8:	ca 01       	movw	r24, r20
    47ba:	df 91       	pop	r29
    47bc:	cf 91       	pop	r28
    47be:	1f 91       	pop	r17
    47c0:	08 95       	ret

000047c2 <pne_delayms>:

#include "pne_appDelay.h"

void pne_delayms(uint16_t milisecond)
{
	uint16_t microsecond = milisecond * 1000;
    47c2:	28 ee       	ldi	r18, 0xE8	; 232
    47c4:	33 e0       	ldi	r19, 0x03	; 3
    47c6:	ac 01       	movw	r20, r24
    47c8:	42 9f       	mul	r20, r18
    47ca:	c0 01       	movw	r24, r0
    47cc:	43 9f       	mul	r20, r19
    47ce:	90 0d       	add	r25, r0
    47d0:	52 9f       	mul	r21, r18
    47d2:	90 0d       	add	r25, r0
    47d4:	11 24       	eor	r1, r1
	
	for (int i=0; i<microsecond; i++)
    47d6:	00 97       	sbiw	r24, 0x00	; 0
    47d8:	39 f0       	breq	.+14     	; 0x47e8 <pne_delayms+0x26>
    47da:	20 e0       	ldi	r18, 0x00	; 0
    47dc:	30 e0       	ldi	r19, 0x00	; 0
    47de:	2f 5f       	subi	r18, 0xFF	; 255
    47e0:	3f 4f       	sbci	r19, 0xFF	; 255
    47e2:	28 17       	cp	r18, r24
    47e4:	39 07       	cpc	r19, r25
    47e6:	d9 f7       	brne	.-10     	; 0x47de <pne_delayms+0x1c>
    47e8:	08 95       	ret

000047ea <pne_APP_TwiInit>:
#include "memoryConfig.h"


//Functions
void pne_APP_TwiInit(uint8_t slave_bus_address)
{	
    47ea:	0f 93       	push	r16
    47ec:	1f 93       	push	r17
    47ee:	cf 93       	push	r28
    47f0:	df 93       	push	r29
    47f2:	00 d0       	rcall	.+0      	; 0x47f4 <pne_APP_TwiInit+0xa>
    47f4:	00 d0       	rcall	.+0      	; 0x47f6 <pne_APP_TwiInit+0xc>
    47f6:	cd b7       	in	r28, 0x3d	; 61
    47f8:	de b7       	in	r29, 0x3e	; 62
	//TWI Declaration
	twi_master_options_t opt =
    47fa:	be 01       	movw	r22, r28
    47fc:	6f 5f       	subi	r22, 0xFF	; 255
    47fe:	7f 4f       	sbci	r23, 0xFF	; 255
    4800:	96 e0       	ldi	r25, 0x06	; 6
    4802:	fb 01       	movw	r30, r22
    4804:	11 92       	st	Z+, r1
    4806:	9a 95       	dec	r25
    4808:	e9 f7       	brne	.-6      	; 0x4804 <pne_APP_TwiInit+0x1a>
    480a:	08 e4       	ldi	r16, 0x48	; 72
    480c:	18 ee       	ldi	r17, 0xE8	; 232
    480e:	21 e0       	ldi	r18, 0x01	; 1
    4810:	30 e0       	ldi	r19, 0x00	; 0
    4812:	09 83       	std	Y+1, r16	; 0x01
    4814:	1a 83       	std	Y+2, r17	; 0x02
    4816:	2b 83       	std	Y+3, r18	; 0x03
    4818:	3c 83       	std	Y+4, r19	; 0x04
    481a:	8e 83       	std	Y+6, r24	; 0x06
	{
		.speed = TWI_SPEED_HZ,
		.chip  = slave_bus_address,
	};
	opt .baud_reg = TWI_CLOCK_RATE(F_CPU, opt.speed);
    481c:	88 e1       	ldi	r24, 0x18	; 24
    481e:	8d 83       	std	Y+5, r24	; 0x05
	twi_master_init(TWI_EXAMPLE,&opt);
    4820:	88 eb       	ldi	r24, 0xB8	; 184
    4822:	90 e0       	ldi	r25, 0x00	; 0
    4824:	0e 94 fc 04 	call	0x9f8	; 0x9f8 <twi_master_init>
}
    4828:	26 96       	adiw	r28, 0x06	; 6
    482a:	0f b6       	in	r0, 0x3f	; 63
    482c:	f8 94       	cli
    482e:	de bf       	out	0x3e, r29	; 62
    4830:	0f be       	out	0x3f, r0	; 63
    4832:	cd bf       	out	0x3d, r28	; 61
    4834:	df 91       	pop	r29
    4836:	cf 91       	pop	r28
    4838:	1f 91       	pop	r17
    483a:	0f 91       	pop	r16
    483c:	08 95       	ret

0000483e <pne_APP_TwiSend>:

AppPNEWELS_TWIStatus_t pne_APP_TwiSend(uint8_t *slave_mem_addr, uint8_t slave_mem_addr_length, uint8_t slave_bus_address, uint8_t *test_pattern, uint8_t test_pattern_length)
{
    483e:	ef 92       	push	r14
    4840:	ff 92       	push	r15
    4842:	0f 93       	push	r16
    4844:	1f 93       	push	r17
    4846:	cf 93       	push	r28
    4848:	df 93       	push	r29
    484a:	cd b7       	in	r28, 0x3d	; 61
    484c:	de b7       	in	r29, 0x3e	; 62
    484e:	2a 97       	sbiw	r28, 0x0a	; 10
    4850:	0f b6       	in	r0, 0x3f	; 63
    4852:	f8 94       	cli
    4854:	de bf       	out	0x3e, r29	; 62
    4856:	0f be       	out	0x3f, r0	; 63
    4858:	cd bf       	out	0x3d, r28	; 61
    485a:	f9 01       	movw	r30, r18
	uint8_t count = 0;
	AppPNEWELS_TWIStatus_t status = APP_PNEWELS_TWI_WRITE_SUCCESS;
	
	twi_package_t temperature_packet =
    485c:	9e 01       	movw	r18, r28
    485e:	2f 5f       	subi	r18, 0xFF	; 255
    4860:	3f 4f       	sbci	r19, 0xFF	; 255
    4862:	79 01       	movw	r14, r18
    4864:	2a e0       	ldi	r18, 0x0A	; 10
    4866:	d7 01       	movw	r26, r14
    4868:	1d 92       	st	X+, r1
    486a:	2a 95       	dec	r18
    486c:	e9 f7       	brne	.-6      	; 0x4868 <pne_APP_TwiSend+0x2a>
    486e:	49 83       	std	Y+1, r20	; 0x01
	{
		.addr[0]      = slave_mem_addr[0],               /* TWI slave memory address data */
    4870:	dc 01       	movw	r26, r24
    4872:	3c 91       	ld	r19, X
AppPNEWELS_TWIStatus_t pne_APP_TwiSend(uint8_t *slave_mem_addr, uint8_t slave_mem_addr_length, uint8_t slave_bus_address, uint8_t *test_pattern, uint8_t test_pattern_length)
{
	uint8_t count = 0;
	AppPNEWELS_TWIStatus_t status = APP_PNEWELS_TWI_WRITE_SUCCESS;
	
	twi_package_t temperature_packet =
    4874:	3a 83       	std	Y+2, r19	; 0x02
    4876:	46 2f       	mov	r20, r22
    4878:	50 e0       	ldi	r21, 0x00	; 0
    487a:	5e 83       	std	Y+6, r21	; 0x06
    487c:	4d 83       	std	Y+5, r20	; 0x05
    487e:	f8 87       	std	Y+8, r31	; 0x08
    4880:	ef 83       	std	Y+7, r30	; 0x07
    4882:	10 e0       	ldi	r17, 0x00	; 0
    4884:	1a 87       	std	Y+10, r17	; 0x0a
    4886:	09 87       	std	Y+9, r16	; 0x09
		.chip         = slave_bus_address,               /* TWI slave bus address */
		.buffer       = (void *)test_pattern,            /* transfer data source buffer */
		.length       = test_pattern_length              /* transfer data size (bytes) */
	};
	
	if (slave_mem_addr_length == 1)
    4888:	61 30       	cpi	r22, 0x01	; 1
    488a:	c9 f0       	breq	.+50     	; 0x48be <pne_APP_TwiSend+0x80>
	{
		temperature_packet.addr[0] = slave_mem_addr[0];
	}
	else if (slave_mem_addr_length == 2)
    488c:	62 30       	cpi	r22, 0x02	; 2
    488e:	29 f4       	brne	.+10     	; 0x489a <pne_APP_TwiSend+0x5c>
	{
		temperature_packet.addr[0] = slave_mem_addr[1];
    4890:	11 96       	adiw	r26, 0x01	; 1
    4892:	8c 91       	ld	r24, X
    4894:	8a 83       	std	Y+2, r24	; 0x02
		temperature_packet.addr[1] = slave_mem_addr[0];
    4896:	3b 83       	std	Y+3, r19	; 0x03
    4898:	12 c0       	rjmp	.+36     	; 0x48be <pne_APP_TwiSend+0x80>
	}
	else if (slave_mem_addr_length == 3)
    489a:	63 30       	cpi	r22, 0x03	; 3
    489c:	81 f4       	brne	.+32     	; 0x48be <pne_APP_TwiSend+0x80>
	{
		temperature_packet.addr[0] = slave_mem_addr[0];
		temperature_packet.addr[1] = slave_mem_addr[1];
    489e:	fc 01       	movw	r30, r24
    48a0:	21 81       	ldd	r18, Z+1	; 0x01
    48a2:	2b 83       	std	Y+3, r18	; 0x03
		temperature_packet.addr[2] = slave_mem_addr[2];
    48a4:	82 81       	ldd	r24, Z+2	; 0x02
    48a6:	8c 83       	std	Y+4, r24	; 0x04
    48a8:	0a c0       	rjmp	.+20     	; 0x48be <pne_APP_TwiSend+0x80>
	}
	
	while(twi_master_write(TWI_EXAMPLE,&temperature_packet) != TWI_SUCCESS)
	{
		pne_delayms(1);
    48aa:	81 e0       	ldi	r24, 0x01	; 1
    48ac:	90 e0       	ldi	r25, 0x00	; 0
    48ae:	89 df       	rcall	.-238    	; 0x47c2 <pne_delayms>
    48b0:	11 50       	subi	r17, 0x01	; 1
		count++;
		if (count == 10)
    48b2:	31 f4       	brne	.+12     	; 0x48c0 <pne_APP_TwiSend+0x82>
		{
			count = 0;
			status = APP_PNEWELS_TWI_WRITE_FAIL;
			fatal_error_to_rf(twi_fatal_error);
    48b4:	81 e0       	ldi	r24, 0x01	; 1
    48b6:	0e 94 6f 3a 	call	0x74de	; 0x74de <fatal_error_to_rf>
		pne_delayms(1);
		count++;
		if (count == 10)
		{
			count = 0;
			status = APP_PNEWELS_TWI_WRITE_FAIL;
    48ba:	81 e0       	ldi	r24, 0x01	; 1
			fatal_error_to_rf(twi_fatal_error);
			break;
    48bc:	0a c0       	rjmp	.+20     	; 0x48d2 <pne_APP_TwiSend+0x94>
	opt .baud_reg = TWI_CLOCK_RATE(F_CPU, opt.speed);
	twi_master_init(TWI_EXAMPLE,&opt);
}

AppPNEWELS_TWIStatus_t pne_APP_TwiSend(uint8_t *slave_mem_addr, uint8_t slave_mem_addr_length, uint8_t slave_bus_address, uint8_t *test_pattern, uint8_t test_pattern_length)
{
    48be:	1a e0       	ldi	r17, 0x0A	; 10
		temperature_packet.addr[0] = slave_mem_addr[0];
		temperature_packet.addr[1] = slave_mem_addr[1];
		temperature_packet.addr[2] = slave_mem_addr[2];
	}
	
	while(twi_master_write(TWI_EXAMPLE,&temperature_packet) != TWI_SUCCESS)
    48c0:	be 01       	movw	r22, r28
    48c2:	6f 5f       	subi	r22, 0xFF	; 255
    48c4:	7f 4f       	sbci	r23, 0xFF	; 255
    48c6:	88 eb       	ldi	r24, 0xB8	; 184
    48c8:	90 e0       	ldi	r25, 0x00	; 0
    48ca:	0e 94 9b 04 	call	0x936	; 0x936 <twi_master_write>
    48ce:	81 11       	cpse	r24, r1
    48d0:	ec cf       	rjmp	.-40     	; 0x48aa <pne_APP_TwiSend+0x6c>
			break;
		}
	}
	
	return status;
}
    48d2:	2a 96       	adiw	r28, 0x0a	; 10
    48d4:	0f b6       	in	r0, 0x3f	; 63
    48d6:	f8 94       	cli
    48d8:	de bf       	out	0x3e, r29	; 62
    48da:	0f be       	out	0x3f, r0	; 63
    48dc:	cd bf       	out	0x3d, r28	; 61
    48de:	df 91       	pop	r29
    48e0:	cf 91       	pop	r28
    48e2:	1f 91       	pop	r17
    48e4:	0f 91       	pop	r16
    48e6:	ff 90       	pop	r15
    48e8:	ef 90       	pop	r14
    48ea:	08 95       	ret

000048ec <pne_APP_TwiReceive>:

AppPNEWELS_TWIStatus_t pne_APP_TwiReceive(uint8_t *slave_mem_addr, uint8_t slave_mem_addr_length, uint8_t slave_bus_address, uint8_t *data_received, uint8_t data_received_length)
{
    48ec:	ef 92       	push	r14
    48ee:	ff 92       	push	r15
    48f0:	0f 93       	push	r16
    48f2:	1f 93       	push	r17
    48f4:	cf 93       	push	r28
    48f6:	df 93       	push	r29
    48f8:	cd b7       	in	r28, 0x3d	; 61
    48fa:	de b7       	in	r29, 0x3e	; 62
    48fc:	2a 97       	sbiw	r28, 0x0a	; 10
    48fe:	0f b6       	in	r0, 0x3f	; 63
    4900:	f8 94       	cli
    4902:	de bf       	out	0x3e, r29	; 62
    4904:	0f be       	out	0x3f, r0	; 63
    4906:	cd bf       	out	0x3d, r28	; 61
    4908:	f9 01       	movw	r30, r18
	uint8_t count = 0;
	AppPNEWELS_TWIStatus_t status = APP_PNEWELS_TWI_READ_SUCCESS;
	
	twi_package_t packet_received =
    490a:	9e 01       	movw	r18, r28
    490c:	2f 5f       	subi	r18, 0xFF	; 255
    490e:	3f 4f       	sbci	r19, 0xFF	; 255
    4910:	79 01       	movw	r14, r18
    4912:	2a e0       	ldi	r18, 0x0A	; 10
    4914:	d7 01       	movw	r26, r14
    4916:	1d 92       	st	X+, r1
    4918:	2a 95       	dec	r18
    491a:	e9 f7       	brne	.-6      	; 0x4916 <pne_APP_TwiReceive+0x2a>
    491c:	49 83       	std	Y+1, r20	; 0x01
	{
		.addr[0]      = slave_mem_addr[0],               /* TWI slave memory address data */
    491e:	dc 01       	movw	r26, r24
    4920:	3c 91       	ld	r19, X
AppPNEWELS_TWIStatus_t pne_APP_TwiReceive(uint8_t *slave_mem_addr, uint8_t slave_mem_addr_length, uint8_t slave_bus_address, uint8_t *data_received, uint8_t data_received_length)
{
	uint8_t count = 0;
	AppPNEWELS_TWIStatus_t status = APP_PNEWELS_TWI_READ_SUCCESS;
	
	twi_package_t packet_received =
    4922:	3a 83       	std	Y+2, r19	; 0x02
    4924:	46 2f       	mov	r20, r22
    4926:	50 e0       	ldi	r21, 0x00	; 0
    4928:	5e 83       	std	Y+6, r21	; 0x06
    492a:	4d 83       	std	Y+5, r20	; 0x05
    492c:	f8 87       	std	Y+8, r31	; 0x08
    492e:	ef 83       	std	Y+7, r30	; 0x07
    4930:	10 e0       	ldi	r17, 0x00	; 0
    4932:	1a 87       	std	Y+10, r17	; 0x0a
    4934:	09 87       	std	Y+9, r16	; 0x09
		.chip         = slave_bus_address,               /* TWI slave bus address */
		.buffer       = data_received,                   /* transfer data source buffer */
		.length       = data_received_length             /* transfer data size (bytes) */
	};
	
	if (slave_mem_addr_length == 1)
    4936:	61 30       	cpi	r22, 0x01	; 1
    4938:	c9 f0       	breq	.+50     	; 0x496c <pne_APP_TwiReceive+0x80>
	{
		packet_received.addr[0] = slave_mem_addr[0];
	}
	else if (slave_mem_addr_length == 2)
    493a:	62 30       	cpi	r22, 0x02	; 2
    493c:	29 f4       	brne	.+10     	; 0x4948 <pne_APP_TwiReceive+0x5c>
	{
		packet_received.addr[0] = slave_mem_addr[1];
    493e:	11 96       	adiw	r26, 0x01	; 1
    4940:	8c 91       	ld	r24, X
    4942:	8a 83       	std	Y+2, r24	; 0x02
		packet_received.addr[1] = slave_mem_addr[0];
    4944:	3b 83       	std	Y+3, r19	; 0x03
    4946:	12 c0       	rjmp	.+36     	; 0x496c <pne_APP_TwiReceive+0x80>
	}
	else if (slave_mem_addr_length == 3)
    4948:	63 30       	cpi	r22, 0x03	; 3
    494a:	81 f4       	brne	.+32     	; 0x496c <pne_APP_TwiReceive+0x80>
	{
		packet_received.addr[0] = slave_mem_addr[0];
		packet_received.addr[1] = slave_mem_addr[1];
    494c:	fc 01       	movw	r30, r24
    494e:	21 81       	ldd	r18, Z+1	; 0x01
    4950:	2b 83       	std	Y+3, r18	; 0x03
		packet_received.addr[2] = slave_mem_addr[2];
    4952:	82 81       	ldd	r24, Z+2	; 0x02
    4954:	8c 83       	std	Y+4, r24	; 0x04
    4956:	0a c0       	rjmp	.+20     	; 0x496c <pne_APP_TwiReceive+0x80>
		
	}
	
	while(twi_master_read(TWI_EXAMPLE,&packet_received) != TWI_SUCCESS)
	{
		pne_delayms(1);
    4958:	81 e0       	ldi	r24, 0x01	; 1
    495a:	90 e0       	ldi	r25, 0x00	; 0
    495c:	32 df       	rcall	.-412    	; 0x47c2 <pne_delayms>
    495e:	11 50       	subi	r17, 0x01	; 1
		count++;
		if (count == 10)
    4960:	31 f4       	brne	.+12     	; 0x496e <pne_APP_TwiReceive+0x82>
		{
			count = 0;
			status = APP_PNEWELS_TWI_READ_FAIL;
			fatal_error_to_rf(twi_fatal_error);
    4962:	81 e0       	ldi	r24, 0x01	; 1
    4964:	0e 94 6f 3a 	call	0x74de	; 0x74de <fatal_error_to_rf>
		pne_delayms(1);
		count++;
		if (count == 10)
		{
			count = 0;
			status = APP_PNEWELS_TWI_READ_FAIL;
    4968:	83 e0       	ldi	r24, 0x03	; 3
			fatal_error_to_rf(twi_fatal_error);
			break;
    496a:	0b c0       	rjmp	.+22     	; 0x4982 <pne_APP_TwiReceive+0x96>
	
	return status;
}

AppPNEWELS_TWIStatus_t pne_APP_TwiReceive(uint8_t *slave_mem_addr, uint8_t slave_mem_addr_length, uint8_t slave_bus_address, uint8_t *data_received, uint8_t data_received_length)
{
    496c:	1a e0       	ldi	r17, 0x0A	; 10
	else
	{
		
	}
	
	while(twi_master_read(TWI_EXAMPLE,&packet_received) != TWI_SUCCESS)
    496e:	be 01       	movw	r22, r28
    4970:	6f 5f       	subi	r22, 0xFF	; 255
    4972:	7f 4f       	sbci	r23, 0xFF	; 255
    4974:	88 eb       	ldi	r24, 0xB8	; 184
    4976:	90 e0       	ldi	r25, 0x00	; 0
    4978:	0e 94 c7 04 	call	0x98e	; 0x98e <twi_master_read>
    497c:	81 11       	cpse	r24, r1
    497e:	ec cf       	rjmp	.-40     	; 0x4958 <pne_APP_TwiReceive+0x6c>
}

AppPNEWELS_TWIStatus_t pne_APP_TwiReceive(uint8_t *slave_mem_addr, uint8_t slave_mem_addr_length, uint8_t slave_bus_address, uint8_t *data_received, uint8_t data_received_length)
{
	uint8_t count = 0;
	AppPNEWELS_TWIStatus_t status = APP_PNEWELS_TWI_READ_SUCCESS;
    4980:	82 e0       	ldi	r24, 0x02	; 2
			break;
		}
	}
	
	return status;
}
    4982:	2a 96       	adiw	r28, 0x0a	; 10
    4984:	0f b6       	in	r0, 0x3f	; 63
    4986:	f8 94       	cli
    4988:	de bf       	out	0x3e, r29	; 62
    498a:	0f be       	out	0x3f, r0	; 63
    498c:	cd bf       	out	0x3d, r28	; 61
    498e:	df 91       	pop	r29
    4990:	cf 91       	pop	r28
    4992:	1f 91       	pop	r17
    4994:	0f 91       	pop	r16
    4996:	ff 90       	pop	r15
    4998:	ef 90       	pop	r14
    499a:	08 95       	ret

0000499c <PNEWELSE2promWrite>:
	

}

void PNEWELSE2promWrite(uint8_t address, char in_ex_type, uint8_t memory_loc_1, uint8_t memory_loc_2, uint8_t memory_data)
{
    499c:	ff 92       	push	r15
    499e:	0f 93       	push	r16
    49a0:	1f 93       	push	r17
    49a2:	cf 93       	push	r28
    49a4:	df 93       	push	r29
    49a6:	00 d0       	rcall	.+0      	; 0x49a8 <PNEWELSE2promWrite+0xc>
    49a8:	cd b7       	in	r28, 0x3d	; 61
    49aa:	de b7       	in	r29, 0x3e	; 62
    49ac:	18 2f       	mov	r17, r24
	uint8_t e2prom_address_length = 0;
	if (in_ex_type == 'E')
    49ae:	65 34       	cpi	r22, 0x45	; 69
    49b0:	19 f0       	breq	.+6      	; 0x49b8 <PNEWELSE2promWrite+0x1c>
	{
		e2prom_address_length = 2;
	}
	else
	{
		e2prom_address_length = 1;
    49b2:	ff 24       	eor	r15, r15
    49b4:	f3 94       	inc	r15
    49b6:	03 c0       	rjmp	.+6      	; 0x49be <PNEWELSE2promWrite+0x22>
void PNEWELSE2promWrite(uint8_t address, char in_ex_type, uint8_t memory_loc_1, uint8_t memory_loc_2, uint8_t memory_data)
{
	uint8_t e2prom_address_length = 0;
	if (in_ex_type == 'E')
	{
		e2prom_address_length = 2;
    49b8:	68 94       	set
    49ba:	ff 24       	eor	r15, r15
    49bc:	f1 f8       	bld	r15, 1
	else
	{
		e2prom_address_length = 1;
	}
	uint8_t e2prom_write_address = address;
	uint8_t e2prom_address[2] =
    49be:	49 83       	std	Y+1, r20	; 0x01
    49c0:	2a 83       	std	Y+2, r18	; 0x02
	{
		memory_loc_1,
		memory_loc_2,
	};
	uint8_t write_data[1] =
    49c2:	0b 83       	std	Y+3, r16	; 0x03
	{
		memory_data,
	};
	
	pne_APP_TwiInit(e2prom_write_address);
    49c4:	81 2f       	mov	r24, r17
    49c6:	11 df       	rcall	.-478    	; 0x47ea <pne_APP_TwiInit>
	
	pne_APP_TwiSend(e2prom_address, e2prom_address_length, e2prom_write_address, write_data, 1);
    49c8:	01 e0       	ldi	r16, 0x01	; 1
    49ca:	9e 01       	movw	r18, r28
    49cc:	2d 5f       	subi	r18, 0xFD	; 253
    49ce:	3f 4f       	sbci	r19, 0xFF	; 255
    49d0:	41 2f       	mov	r20, r17
    49d2:	6f 2d       	mov	r22, r15
    49d4:	ce 01       	movw	r24, r28
    49d6:	01 96       	adiw	r24, 0x01	; 1
    49d8:	32 df       	rcall	.-412    	; 0x483e <pne_APP_TwiSend>
	pne_delayms(5);
    49da:	85 e0       	ldi	r24, 0x05	; 5
    49dc:	90 e0       	ldi	r25, 0x00	; 0
    49de:	f1 de       	rcall	.-542    	; 0x47c2 <pne_delayms>
}
    49e0:	0f 90       	pop	r0
    49e2:	0f 90       	pop	r0
    49e4:	0f 90       	pop	r0
    49e6:	df 91       	pop	r29
    49e8:	cf 91       	pop	r28
    49ea:	1f 91       	pop	r17
    49ec:	0f 91       	pop	r16
    49ee:	ff 90       	pop	r15
    49f0:	08 95       	ret

000049f2 <PNEWELSE2promRead>:

uint8_t PNEWELSE2promRead(uint8_t address, char in_ex_type, uint8_t memory_loc_1, uint8_t memory_loc_2)
{
    49f2:	ff 92       	push	r15
    49f4:	0f 93       	push	r16
    49f6:	1f 93       	push	r17
    49f8:	cf 93       	push	r28
    49fa:	df 93       	push	r29
    49fc:	00 d0       	rcall	.+0      	; 0x49fe <PNEWELSE2promRead+0xc>
    49fe:	1f 92       	push	r1
    4a00:	cd b7       	in	r28, 0x3d	; 61
    4a02:	de b7       	in	r29, 0x3e	; 62
    4a04:	18 2f       	mov	r17, r24
	uint8_t e2prom_address_length = 0;
	if (in_ex_type == 'E')
    4a06:	65 34       	cpi	r22, 0x45	; 69
    4a08:	19 f0       	breq	.+6      	; 0x4a10 <PNEWELSE2promRead+0x1e>
	{
		e2prom_address_length = 2;
	}
	else
	{
		e2prom_address_length = 1;
    4a0a:	ff 24       	eor	r15, r15
    4a0c:	f3 94       	inc	r15
    4a0e:	03 c0       	rjmp	.+6      	; 0x4a16 <PNEWELSE2promRead+0x24>
uint8_t PNEWELSE2promRead(uint8_t address, char in_ex_type, uint8_t memory_loc_1, uint8_t memory_loc_2)
{
	uint8_t e2prom_address_length = 0;
	if (in_ex_type == 'E')
	{
		e2prom_address_length = 2;
    4a10:	68 94       	set
    4a12:	ff 24       	eor	r15, r15
    4a14:	f1 f8       	bld	r15, 1
	else
	{
		e2prom_address_length = 1;
	}
	uint8_t e2prom_read_address = address;
	uint8_t e2prom_address[2] =
    4a16:	49 83       	std	Y+1, r20	; 0x01
    4a18:	2a 83       	std	Y+2, r18	; 0x02
	{
		memory_loc_1,
		memory_loc_2,
	};
	uint8_t read_data[2] = {0,0};
    4a1a:	1b 82       	std	Y+3, r1	; 0x03
    4a1c:	1c 82       	std	Y+4, r1	; 0x04
	
	pne_APP_TwiInit(e2prom_read_address);
    4a1e:	81 2f       	mov	r24, r17
    4a20:	e4 de       	rcall	.-568    	; 0x47ea <pne_APP_TwiInit>
	
	pne_APP_TwiReceive(e2prom_address, e2prom_address_length, e2prom_read_address, read_data, 1);
    4a22:	01 e0       	ldi	r16, 0x01	; 1
    4a24:	9e 01       	movw	r18, r28
    4a26:	2d 5f       	subi	r18, 0xFD	; 253
    4a28:	3f 4f       	sbci	r19, 0xFF	; 255
    4a2a:	41 2f       	mov	r20, r17
    4a2c:	6f 2d       	mov	r22, r15
    4a2e:	ce 01       	movw	r24, r28
    4a30:	01 96       	adiw	r24, 0x01	; 1
    4a32:	5c df       	rcall	.-328    	; 0x48ec <pne_APP_TwiReceive>
	
	return read_data[0];
}
    4a34:	8b 81       	ldd	r24, Y+3	; 0x03
    4a36:	0f 90       	pop	r0
    4a38:	0f 90       	pop	r0
    4a3a:	0f 90       	pop	r0
    4a3c:	0f 90       	pop	r0
    4a3e:	df 91       	pop	r29
    4a40:	cf 91       	pop	r28
    4a42:	1f 91       	pop	r17
    4a44:	0f 91       	pop	r16
    4a46:	ff 90       	pop	r15
    4a48:	08 95       	ret

00004a4a <PNEWELSTemperatureRead>:

uint8_t PNEWELSTemperatureRead(void)
{
    4a4a:	0f 93       	push	r16
    4a4c:	cf 93       	push	r28
    4a4e:	df 93       	push	r29
    4a50:	00 d0       	rcall	.+0      	; 0x4a52 <PNEWELSTemperatureRead+0x8>
    4a52:	1f 92       	push	r1
    4a54:	cd b7       	in	r28, 0x3d	; 61
    4a56:	de b7       	in	r29, 0x3e	; 62
	uint8_t temperature_write_address = 0x90;
	uint8_t temperature_read_address = 0x91;
	uint8_t temperature_register[2] =
    4a58:	19 82       	std	Y+1, r1	; 0x01
    4a5a:	1a 82       	std	Y+2, r1	; 0x02
	{
		0x00,
		0x00,
	};
	uint8_t data_received[2] = {0, 0};
    4a5c:	1b 82       	std	Y+3, r1	; 0x03
    4a5e:	1c 82       	std	Y+4, r1	; 0x04
	uint8_t data = 0;
	
	pne_APP_TwiInit(temperature_write_address);
    4a60:	80 e9       	ldi	r24, 0x90	; 144
    4a62:	c3 de       	rcall	.-634    	; 0x47ea <pne_APP_TwiInit>
	
	if (pne_APP_TwiSend(temperature_register, 1, temperature_write_address, 0, 0) == APP_PNEWELS_TWI_WRITE_SUCCESS)
    4a64:	00 e0       	ldi	r16, 0x00	; 0
    4a66:	20 e0       	ldi	r18, 0x00	; 0
    4a68:	30 e0       	ldi	r19, 0x00	; 0
    4a6a:	40 e9       	ldi	r20, 0x90	; 144
    4a6c:	61 e0       	ldi	r22, 0x01	; 1
    4a6e:	ce 01       	movw	r24, r28
    4a70:	01 96       	adiw	r24, 0x01	; 1
    4a72:	e5 de       	rcall	.-566    	; 0x483e <pne_APP_TwiSend>
    4a74:	81 11       	cpse	r24, r1
    4a76:	09 c0       	rjmp	.+18     	; 0x4a8a <PNEWELSTemperatureRead+0x40>
	{
		pne_APP_TwiReceive(temperature_register, 1, temperature_read_address, data_received, 2);
    4a78:	02 e0       	ldi	r16, 0x02	; 2
    4a7a:	9e 01       	movw	r18, r28
    4a7c:	2d 5f       	subi	r18, 0xFD	; 253
    4a7e:	3f 4f       	sbci	r19, 0xFF	; 255
    4a80:	41 e9       	ldi	r20, 0x91	; 145
    4a82:	61 e0       	ldi	r22, 0x01	; 1
    4a84:	ce 01       	movw	r24, r28
    4a86:	01 96       	adiw	r24, 0x01	; 1
    4a88:	31 df       	rcall	.-414    	; 0x48ec <pne_APP_TwiReceive>
	}
	
	data = (data_received[0]<<1) / 2;
    4a8a:	8b 81       	ldd	r24, Y+3	; 0x03
    4a8c:	90 e0       	ldi	r25, 0x00	; 0
    4a8e:	88 0f       	add	r24, r24
    4a90:	99 1f       	adc	r25, r25
    4a92:	95 95       	asr	r25
    4a94:	87 95       	ror	r24

	return data;
}
    4a96:	0f 90       	pop	r0
    4a98:	0f 90       	pop	r0
    4a9a:	0f 90       	pop	r0
    4a9c:	0f 90       	pop	r0
    4a9e:	df 91       	pop	r29
    4aa0:	cf 91       	pop	r28
    4aa2:	0f 91       	pop	r16
    4aa4:	08 95       	ret

00004aa6 <clre2prom>:

void clre2prom()
{
    4aa6:	0f 93       	push	r16
    4aa8:	cf 93       	push	r28
    4aaa:	df 93       	push	r29
	uint8_t memory_address_high = 0;
	uint8_t memory_address_low = 0;
	
	for (uint16_t tmpi=0; tmpi<4092; tmpi++)
    4aac:	c0 e0       	ldi	r28, 0x00	; 0
    4aae:	d0 e0       	ldi	r29, 0x00	; 0
	{
		memory_address_low = (tmpi & 0xFF);
		memory_address_high = ((tmpi >> 8) & 0xFF);
		PNEWELSE2promWrite(0xAE, 'E', memory_address_low, memory_address_high, 0xFF);
    4ab0:	0f ef       	ldi	r16, 0xFF	; 255
    4ab2:	2d 2f       	mov	r18, r29
    4ab4:	4c 2f       	mov	r20, r28
    4ab6:	65 e4       	ldi	r22, 0x45	; 69
    4ab8:	8e ea       	ldi	r24, 0xAE	; 174
    4aba:	70 df       	rcall	.-288    	; 0x499c <PNEWELSE2promWrite>
		pne_delayms(10);
    4abc:	8a e0       	ldi	r24, 0x0A	; 10
    4abe:	90 e0       	ldi	r25, 0x00	; 0
    4ac0:	80 de       	rcall	.-768    	; 0x47c2 <pne_delayms>
		wdt_reset();
    4ac2:	a8 95       	wdr
void clre2prom()
{
	uint8_t memory_address_high = 0;
	uint8_t memory_address_low = 0;
	
	for (uint16_t tmpi=0; tmpi<4092; tmpi++)
    4ac4:	21 96       	adiw	r28, 0x01	; 1
    4ac6:	cc 3f       	cpi	r28, 0xFC	; 252
    4ac8:	8f e0       	ldi	r24, 0x0F	; 15
    4aca:	d8 07       	cpc	r29, r24
    4acc:	89 f7       	brne	.-30     	; 0x4ab0 <clre2prom+0xa>
		PNEWELSE2promWrite(0xAE, 'E', memory_address_low, memory_address_high, 0xFF);
		pne_delayms(10);
		wdt_reset();
	}
	
	memory_address_incr = 0;
    4ace:	10 92 1f 21 	sts	0x211F, r1
    4ad2:	10 92 1e 21 	sts	0x211E, r1
}
    4ad6:	df 91       	pop	r29
    4ad8:	cf 91       	pop	r28
    4ada:	0f 91       	pop	r16
    4adc:	08 95       	ret

00004ade <memoryCounter_init>:

void memoryCounter_init()
{
    4ade:	cf 93       	push	r28
    4ae0:	df 93       	push	r29
	uint8_t cache = 0;
	for (uint16_t counter = 0; counter<4092; counter = counter + 11)
    4ae2:	c0 e0       	ldi	r28, 0x00	; 0
    4ae4:	d0 e0       	ldi	r29, 0x00	; 0
	{
		cache = readE2prom(counter);
    4ae6:	ce 01       	movw	r24, r28
    4ae8:	0e 94 43 32 	call	0x6486	; 0x6486 <readE2prom>
		if(cache == 0xFF)
    4aec:	8f 3f       	cpi	r24, 0xFF	; 255
    4aee:	29 f4       	brne	.+10     	; 0x4afa <memoryCounter_init+0x1c>
		{
			memory_address_incr = counter;
    4af0:	d0 93 1f 21 	sts	0x211F, r29
    4af4:	c0 93 1e 21 	sts	0x211E, r28
			break;
    4af8:	05 c0       	rjmp	.+10     	; 0x4b04 <memoryCounter_init+0x26>
}

void memoryCounter_init()
{
	uint8_t cache = 0;
	for (uint16_t counter = 0; counter<4092; counter = counter + 11)
    4afa:	2b 96       	adiw	r28, 0x0b	; 11
    4afc:	cc 3f       	cpi	r28, 0xFC	; 252
    4afe:	8f e0       	ldi	r24, 0x0F	; 15
    4b00:	d8 07       	cpc	r29, r24
    4b02:	89 f7       	brne	.-30     	; 0x4ae6 <memoryCounter_init+0x8>
		{
			memory_address_incr = counter;
			break;
		}
	}
}
    4b04:	df 91       	pop	r29
    4b06:	cf 91       	pop	r28
    4b08:	08 95       	ret

00004b0a <memoryCounter_save>:

void memoryCounter_save(uint16_t log_counter)
{
	writeE2prom(log_counter, 0xFF);
    4b0a:	6f ef       	ldi	r22, 0xFF	; 255
    4b0c:	0c 94 cd 33 	jmp	0x679a	; 0x679a <writeE2prom>
    4b10:	08 95       	ret

00004b12 <store>:
	
	return status;
}

void store(store_seq_t seq)
{
    4b12:	2f 92       	push	r2
    4b14:	3f 92       	push	r3
    4b16:	4f 92       	push	r4
    4b18:	5f 92       	push	r5
    4b1a:	6f 92       	push	r6
    4b1c:	7f 92       	push	r7
    4b1e:	8f 92       	push	r8
    4b20:	9f 92       	push	r9
    4b22:	af 92       	push	r10
    4b24:	bf 92       	push	r11
    4b26:	cf 92       	push	r12
    4b28:	df 92       	push	r13
    4b2a:	ef 92       	push	r14
    4b2c:	ff 92       	push	r15
    4b2e:	0f 93       	push	r16
    4b30:	1f 93       	push	r17
    4b32:	cf 93       	push	r28
    4b34:	df 93       	push	r29
    4b36:	cd b7       	in	r28, 0x3d	; 61
    4b38:	de b7       	in	r29, 0x3e	; 62
    4b3a:	6e 97       	sbiw	r28, 0x1e	; 30
    4b3c:	0f b6       	in	r0, 0x3f	; 63
    4b3e:	f8 94       	cli
    4b40:	de bf       	out	0x3e, r29	; 62
    4b42:	0f be       	out	0x3f, r0	; 63
    4b44:	cd bf       	out	0x3d, r28	; 61
	uint8_t time_4_byte = 0;
	uint8_t status_byte1 = 0;
	uint8_t status_byte2 = 0;
	uint8_t status_byte3 = 0;

	if (seq == charge_start)
    4b46:	81 11       	cpse	r24, r1
    4b48:	3f c0       	rjmp	.+126    	; 0x4bc8 <store+0xb6>
	{
		if (memory_address_incr >= 4092)
    4b4a:	80 91 1e 21 	lds	r24, 0x211E
    4b4e:	90 91 1f 21 	lds	r25, 0x211F
    4b52:	8c 3f       	cpi	r24, 0xFC	; 252
    4b54:	9f 40       	sbci	r25, 0x0F	; 15
    4b56:	20 f0       	brcs	.+8      	; 0x4b60 <store+0x4e>
		{
			memory_address_incr = 0;
    4b58:	10 92 1f 21 	sts	0x211F, r1
    4b5c:	10 92 1e 21 	sts	0x211E, r1
		}
		memory_address_high = ((memory_address_incr & 0xFF00) >> 8);
    4b60:	40 91 1e 21 	lds	r20, 0x211E
    4b64:	20 91 1f 21 	lds	r18, 0x211F
		memory_address_low = (memory_address_incr & 0x00FF);
		PNEWELSE2promWrite(0xAE, 'E', memory_address_low, memory_address_high, 0x43);
    4b68:	03 e4       	ldi	r16, 0x43	; 67
    4b6a:	65 e4       	ldi	r22, 0x45	; 69
    4b6c:	8e ea       	ldi	r24, 0xAE	; 174
    4b6e:	16 df       	rcall	.-468    	; 0x499c <PNEWELSE2promWrite>
		memory_address_incr++;
    4b70:	80 91 1e 21 	lds	r24, 0x211E
    4b74:	90 91 1f 21 	lds	r25, 0x211F
    4b78:	01 96       	adiw	r24, 0x01	; 1
    4b7a:	90 93 1f 21 	sts	0x211F, r25
    4b7e:	80 93 1e 21 	sts	0x211E, r24
		pne_delayms(10);
    4b82:	8a e0       	ldi	r24, 0x0A	; 10
    4b84:	90 e0       	ldi	r25, 0x00	; 0
    4b86:	1d de       	rcall	.-966    	; 0x47c2 <pne_delayms>
		if (memory_address_incr >= 4092)
    4b88:	80 91 1e 21 	lds	r24, 0x211E
    4b8c:	90 91 1f 21 	lds	r25, 0x211F
    4b90:	8c 3f       	cpi	r24, 0xFC	; 252
    4b92:	9f 40       	sbci	r25, 0x0F	; 15
    4b94:	20 f0       	brcs	.+8      	; 0x4b9e <store+0x8c>
		{
			memory_address_incr = 0;
    4b96:	10 92 1f 21 	sts	0x211F, r1
    4b9a:	10 92 1e 21 	sts	0x211E, r1
		}
		memory_address_high = ((memory_address_incr & 0xFF00) >> 8);
    4b9e:	40 91 1e 21 	lds	r20, 0x211E
    4ba2:	20 91 1f 21 	lds	r18, 0x211F
		memory_address_low = (memory_address_incr & 0x00FF);
		PNEWELSE2promWrite(0xAE, 'E', memory_address_low, memory_address_high, 0x53);
    4ba6:	03 e5       	ldi	r16, 0x53	; 83
    4ba8:	65 e4       	ldi	r22, 0x45	; 69
    4baa:	8e ea       	ldi	r24, 0xAE	; 174
    4bac:	f7 de       	rcall	.-530    	; 0x499c <PNEWELSE2promWrite>
		memory_address_incr++;
    4bae:	80 91 1e 21 	lds	r24, 0x211E
    4bb2:	90 91 1f 21 	lds	r25, 0x211F
    4bb6:	01 96       	adiw	r24, 0x01	; 1
    4bb8:	90 93 1f 21 	sts	0x211F, r25
    4bbc:	80 93 1e 21 	sts	0x211E, r24
		pne_delayms(10);
    4bc0:	8a e0       	ldi	r24, 0x0A	; 10
    4bc2:	90 e0       	ldi	r25, 0x00	; 0
    4bc4:	fe dd       	rcall	.-1028   	; 0x47c2 <pne_delayms>
    4bc6:	0c c2       	rjmp	.+1048   	; 0x4fe0 <store+0x4ce>
	}
	else if (seq == charge_end)
    4bc8:	81 30       	cpi	r24, 0x01	; 1
    4bca:	09 f0       	breq	.+2      	; 0x4bce <store+0xbc>
    4bcc:	3f c0       	rjmp	.+126    	; 0x4c4c <store+0x13a>
	{
		if (memory_address_incr >= 4092)
    4bce:	80 91 1e 21 	lds	r24, 0x211E
    4bd2:	90 91 1f 21 	lds	r25, 0x211F
    4bd6:	8c 3f       	cpi	r24, 0xFC	; 252
    4bd8:	9f 40       	sbci	r25, 0x0F	; 15
    4bda:	20 f0       	brcs	.+8      	; 0x4be4 <store+0xd2>
		{
			memory_address_incr = 0;
    4bdc:	10 92 1f 21 	sts	0x211F, r1
    4be0:	10 92 1e 21 	sts	0x211E, r1
		}
		memory_address_high = ((memory_address_incr & 0xFF00) >> 8);
    4be4:	40 91 1e 21 	lds	r20, 0x211E
    4be8:	20 91 1f 21 	lds	r18, 0x211F
		memory_address_low = (memory_address_incr & 0x00FF);
		PNEWELSE2promWrite(0xAE, 'E', memory_address_low, memory_address_high, 0x43);
    4bec:	03 e4       	ldi	r16, 0x43	; 67
    4bee:	65 e4       	ldi	r22, 0x45	; 69
    4bf0:	8e ea       	ldi	r24, 0xAE	; 174
    4bf2:	d4 de       	rcall	.-600    	; 0x499c <PNEWELSE2promWrite>
		memory_address_incr++;
    4bf4:	80 91 1e 21 	lds	r24, 0x211E
    4bf8:	90 91 1f 21 	lds	r25, 0x211F
    4bfc:	01 96       	adiw	r24, 0x01	; 1
    4bfe:	90 93 1f 21 	sts	0x211F, r25
    4c02:	80 93 1e 21 	sts	0x211E, r24
		pne_delayms(10);
    4c06:	8a e0       	ldi	r24, 0x0A	; 10
    4c08:	90 e0       	ldi	r25, 0x00	; 0
    4c0a:	db dd       	rcall	.-1098   	; 0x47c2 <pne_delayms>
		if (memory_address_incr >= 4092)
    4c0c:	80 91 1e 21 	lds	r24, 0x211E
    4c10:	90 91 1f 21 	lds	r25, 0x211F
    4c14:	8c 3f       	cpi	r24, 0xFC	; 252
    4c16:	9f 40       	sbci	r25, 0x0F	; 15
    4c18:	20 f0       	brcs	.+8      	; 0x4c22 <store+0x110>
		{
			memory_address_incr = 0;
    4c1a:	10 92 1f 21 	sts	0x211F, r1
    4c1e:	10 92 1e 21 	sts	0x211E, r1
		}
		memory_address_high = ((memory_address_incr & 0xFF00) >> 8);
    4c22:	40 91 1e 21 	lds	r20, 0x211E
    4c26:	20 91 1f 21 	lds	r18, 0x211F
		memory_address_low = (memory_address_incr & 0x00FF);
		PNEWELSE2promWrite(0xAE, 'E', memory_address_low, memory_address_high, 0x45);
    4c2a:	05 e4       	ldi	r16, 0x45	; 69
    4c2c:	65 e4       	ldi	r22, 0x45	; 69
    4c2e:	8e ea       	ldi	r24, 0xAE	; 174
    4c30:	b5 de       	rcall	.-662    	; 0x499c <PNEWELSE2promWrite>
		memory_address_incr++;
    4c32:	80 91 1e 21 	lds	r24, 0x211E
    4c36:	90 91 1f 21 	lds	r25, 0x211F
    4c3a:	01 96       	adiw	r24, 0x01	; 1
    4c3c:	90 93 1f 21 	sts	0x211F, r25
    4c40:	80 93 1e 21 	sts	0x211E, r24
		pne_delayms(10);
    4c44:	8a e0       	ldi	r24, 0x0A	; 10
    4c46:	90 e0       	ldi	r25, 0x00	; 0
    4c48:	bc dd       	rcall	.-1160   	; 0x47c2 <pne_delayms>
    4c4a:	ca c1       	rjmp	.+916    	; 0x4fe0 <store+0x4ce>
	}
	else if (seq == discharge_start)
    4c4c:	82 30       	cpi	r24, 0x02	; 2
    4c4e:	09 f0       	breq	.+2      	; 0x4c52 <store+0x140>
    4c50:	3f c0       	rjmp	.+126    	; 0x4cd0 <store+0x1be>
	{
		if (memory_address_incr >= 4092)
    4c52:	80 91 1e 21 	lds	r24, 0x211E
    4c56:	90 91 1f 21 	lds	r25, 0x211F
    4c5a:	8c 3f       	cpi	r24, 0xFC	; 252
    4c5c:	9f 40       	sbci	r25, 0x0F	; 15
    4c5e:	20 f0       	brcs	.+8      	; 0x4c68 <store+0x156>
		{
			memory_address_incr = 0;
    4c60:	10 92 1f 21 	sts	0x211F, r1
    4c64:	10 92 1e 21 	sts	0x211E, r1
		}
		memory_address_high = ((memory_address_incr & 0xFF00) >> 8);
    4c68:	40 91 1e 21 	lds	r20, 0x211E
    4c6c:	20 91 1f 21 	lds	r18, 0x211F
		memory_address_low = (memory_address_incr & 0x00FF);
		PNEWELSE2promWrite(0xAE, 'E', memory_address_low, memory_address_high, 0x44);
    4c70:	04 e4       	ldi	r16, 0x44	; 68
    4c72:	65 e4       	ldi	r22, 0x45	; 69
    4c74:	8e ea       	ldi	r24, 0xAE	; 174
    4c76:	92 de       	rcall	.-732    	; 0x499c <PNEWELSE2promWrite>
		memory_address_incr++;
    4c78:	80 91 1e 21 	lds	r24, 0x211E
    4c7c:	90 91 1f 21 	lds	r25, 0x211F
    4c80:	01 96       	adiw	r24, 0x01	; 1
    4c82:	90 93 1f 21 	sts	0x211F, r25
    4c86:	80 93 1e 21 	sts	0x211E, r24
		pne_delayms(10);
    4c8a:	8a e0       	ldi	r24, 0x0A	; 10
    4c8c:	90 e0       	ldi	r25, 0x00	; 0
    4c8e:	99 dd       	rcall	.-1230   	; 0x47c2 <pne_delayms>
		if (memory_address_incr >= 4092)
    4c90:	80 91 1e 21 	lds	r24, 0x211E
    4c94:	90 91 1f 21 	lds	r25, 0x211F
    4c98:	8c 3f       	cpi	r24, 0xFC	; 252
    4c9a:	9f 40       	sbci	r25, 0x0F	; 15
    4c9c:	20 f0       	brcs	.+8      	; 0x4ca6 <store+0x194>
		{
			memory_address_incr = 0;
    4c9e:	10 92 1f 21 	sts	0x211F, r1
    4ca2:	10 92 1e 21 	sts	0x211E, r1
		}
		memory_address_high = ((memory_address_incr & 0xFF00) >> 8);
    4ca6:	40 91 1e 21 	lds	r20, 0x211E
    4caa:	20 91 1f 21 	lds	r18, 0x211F
		memory_address_low = (memory_address_incr & 0x00FF);
		PNEWELSE2promWrite(0xAE, 'E', memory_address_low, memory_address_high, 0x53);
    4cae:	03 e5       	ldi	r16, 0x53	; 83
    4cb0:	65 e4       	ldi	r22, 0x45	; 69
    4cb2:	8e ea       	ldi	r24, 0xAE	; 174
    4cb4:	73 de       	rcall	.-794    	; 0x499c <PNEWELSE2promWrite>
		memory_address_incr++;
    4cb6:	80 91 1e 21 	lds	r24, 0x211E
    4cba:	90 91 1f 21 	lds	r25, 0x211F
    4cbe:	01 96       	adiw	r24, 0x01	; 1
    4cc0:	90 93 1f 21 	sts	0x211F, r25
    4cc4:	80 93 1e 21 	sts	0x211E, r24
		pne_delayms(10);
    4cc8:	8a e0       	ldi	r24, 0x0A	; 10
    4cca:	90 e0       	ldi	r25, 0x00	; 0
    4ccc:	7a dd       	rcall	.-1292   	; 0x47c2 <pne_delayms>
    4cce:	88 c1       	rjmp	.+784    	; 0x4fe0 <store+0x4ce>
	}
	else if (seq == discharge_end)
    4cd0:	83 30       	cpi	r24, 0x03	; 3
    4cd2:	09 f0       	breq	.+2      	; 0x4cd6 <store+0x1c4>
    4cd4:	3f c0       	rjmp	.+126    	; 0x4d54 <store+0x242>
	{
		if (memory_address_incr >= 4092)
    4cd6:	80 91 1e 21 	lds	r24, 0x211E
    4cda:	90 91 1f 21 	lds	r25, 0x211F
    4cde:	8c 3f       	cpi	r24, 0xFC	; 252
    4ce0:	9f 40       	sbci	r25, 0x0F	; 15
    4ce2:	20 f0       	brcs	.+8      	; 0x4cec <store+0x1da>
		{
			memory_address_incr = 0;
    4ce4:	10 92 1f 21 	sts	0x211F, r1
    4ce8:	10 92 1e 21 	sts	0x211E, r1
		}
		memory_address_high = ((memory_address_incr & 0xFF00) >> 8);
    4cec:	40 91 1e 21 	lds	r20, 0x211E
    4cf0:	20 91 1f 21 	lds	r18, 0x211F
		memory_address_low = (memory_address_incr & 0x00FF);
		PNEWELSE2promWrite(0xAE, 'E', memory_address_low, memory_address_high, 0x44);
    4cf4:	04 e4       	ldi	r16, 0x44	; 68
    4cf6:	65 e4       	ldi	r22, 0x45	; 69
    4cf8:	8e ea       	ldi	r24, 0xAE	; 174
    4cfa:	50 de       	rcall	.-864    	; 0x499c <PNEWELSE2promWrite>
		memory_address_incr++;
    4cfc:	80 91 1e 21 	lds	r24, 0x211E
    4d00:	90 91 1f 21 	lds	r25, 0x211F
    4d04:	01 96       	adiw	r24, 0x01	; 1
    4d06:	90 93 1f 21 	sts	0x211F, r25
    4d0a:	80 93 1e 21 	sts	0x211E, r24
		pne_delayms(10);
    4d0e:	8a e0       	ldi	r24, 0x0A	; 10
    4d10:	90 e0       	ldi	r25, 0x00	; 0
    4d12:	57 dd       	rcall	.-1362   	; 0x47c2 <pne_delayms>
		if (memory_address_incr >= 4092)
    4d14:	80 91 1e 21 	lds	r24, 0x211E
    4d18:	90 91 1f 21 	lds	r25, 0x211F
    4d1c:	8c 3f       	cpi	r24, 0xFC	; 252
    4d1e:	9f 40       	sbci	r25, 0x0F	; 15
    4d20:	20 f0       	brcs	.+8      	; 0x4d2a <store+0x218>
		{
			memory_address_incr = 0;
    4d22:	10 92 1f 21 	sts	0x211F, r1
    4d26:	10 92 1e 21 	sts	0x211E, r1
		}
		memory_address_high = ((memory_address_incr & 0xFF00) >> 8);
    4d2a:	40 91 1e 21 	lds	r20, 0x211E
    4d2e:	20 91 1f 21 	lds	r18, 0x211F
		memory_address_low = (memory_address_incr & 0x00FF);
		PNEWELSE2promWrite(0xAE, 'E', memory_address_low, memory_address_high, 0x45);
    4d32:	05 e4       	ldi	r16, 0x45	; 69
    4d34:	65 e4       	ldi	r22, 0x45	; 69
    4d36:	8e ea       	ldi	r24, 0xAE	; 174
    4d38:	31 de       	rcall	.-926    	; 0x499c <PNEWELSE2promWrite>
		memory_address_incr++;
    4d3a:	80 91 1e 21 	lds	r24, 0x211E
    4d3e:	90 91 1f 21 	lds	r25, 0x211F
    4d42:	01 96       	adiw	r24, 0x01	; 1
    4d44:	90 93 1f 21 	sts	0x211F, r25
    4d48:	80 93 1e 21 	sts	0x211E, r24
		pne_delayms(10);
    4d4c:	8a e0       	ldi	r24, 0x0A	; 10
    4d4e:	90 e0       	ldi	r25, 0x00	; 0
    4d50:	38 dd       	rcall	.-1424   	; 0x47c2 <pne_delayms>
    4d52:	46 c1       	rjmp	.+652    	; 0x4fe0 <store+0x4ce>
	}
	else if (seq == emergency_start)
    4d54:	84 30       	cpi	r24, 0x04	; 4
    4d56:	09 f0       	breq	.+2      	; 0x4d5a <store+0x248>
    4d58:	3f c0       	rjmp	.+126    	; 0x4dd8 <store+0x2c6>
	{
		if (memory_address_incr >= 4092)
    4d5a:	80 91 1e 21 	lds	r24, 0x211E
    4d5e:	90 91 1f 21 	lds	r25, 0x211F
    4d62:	8c 3f       	cpi	r24, 0xFC	; 252
    4d64:	9f 40       	sbci	r25, 0x0F	; 15
    4d66:	20 f0       	brcs	.+8      	; 0x4d70 <store+0x25e>
		{
			memory_address_incr = 0;
    4d68:	10 92 1f 21 	sts	0x211F, r1
    4d6c:	10 92 1e 21 	sts	0x211E, r1
		}
		memory_address_high = ((memory_address_incr & 0xFF00) >> 8);
    4d70:	40 91 1e 21 	lds	r20, 0x211E
    4d74:	20 91 1f 21 	lds	r18, 0x211F
		memory_address_low = (memory_address_incr & 0x00FF);
		PNEWELSE2promWrite(0xAE, 'E', memory_address_low, memory_address_high, 0x45);
    4d78:	05 e4       	ldi	r16, 0x45	; 69
    4d7a:	65 e4       	ldi	r22, 0x45	; 69
    4d7c:	8e ea       	ldi	r24, 0xAE	; 174
    4d7e:	0e de       	rcall	.-996    	; 0x499c <PNEWELSE2promWrite>
		memory_address_incr++;
    4d80:	80 91 1e 21 	lds	r24, 0x211E
    4d84:	90 91 1f 21 	lds	r25, 0x211F
    4d88:	01 96       	adiw	r24, 0x01	; 1
    4d8a:	90 93 1f 21 	sts	0x211F, r25
    4d8e:	80 93 1e 21 	sts	0x211E, r24
		pne_delayms(10);
    4d92:	8a e0       	ldi	r24, 0x0A	; 10
    4d94:	90 e0       	ldi	r25, 0x00	; 0
    4d96:	15 dd       	rcall	.-1494   	; 0x47c2 <pne_delayms>
		if (memory_address_incr >= 4092)
    4d98:	80 91 1e 21 	lds	r24, 0x211E
    4d9c:	90 91 1f 21 	lds	r25, 0x211F
    4da0:	8c 3f       	cpi	r24, 0xFC	; 252
    4da2:	9f 40       	sbci	r25, 0x0F	; 15
    4da4:	20 f0       	brcs	.+8      	; 0x4dae <store+0x29c>
		{
			memory_address_incr = 0;
    4da6:	10 92 1f 21 	sts	0x211F, r1
    4daa:	10 92 1e 21 	sts	0x211E, r1
		}
		memory_address_high = ((memory_address_incr & 0xFF00) >> 8);
    4dae:	40 91 1e 21 	lds	r20, 0x211E
    4db2:	20 91 1f 21 	lds	r18, 0x211F
		memory_address_low = (memory_address_incr & 0x00FF);
		PNEWELSE2promWrite(0xAE, 'E', memory_address_low, memory_address_high, 0x53);
    4db6:	03 e5       	ldi	r16, 0x53	; 83
    4db8:	65 e4       	ldi	r22, 0x45	; 69
    4dba:	8e ea       	ldi	r24, 0xAE	; 174
    4dbc:	ef dd       	rcall	.-1058   	; 0x499c <PNEWELSE2promWrite>
		memory_address_incr++;
    4dbe:	80 91 1e 21 	lds	r24, 0x211E
    4dc2:	90 91 1f 21 	lds	r25, 0x211F
    4dc6:	01 96       	adiw	r24, 0x01	; 1
    4dc8:	90 93 1f 21 	sts	0x211F, r25
    4dcc:	80 93 1e 21 	sts	0x211E, r24
		pne_delayms(10);
    4dd0:	8a e0       	ldi	r24, 0x0A	; 10
    4dd2:	90 e0       	ldi	r25, 0x00	; 0
    4dd4:	f6 dc       	rcall	.-1556   	; 0x47c2 <pne_delayms>
    4dd6:	04 c1       	rjmp	.+520    	; 0x4fe0 <store+0x4ce>
	}
	else if (seq == emergency_end)
    4dd8:	85 30       	cpi	r24, 0x05	; 5
    4dda:	09 f0       	breq	.+2      	; 0x4dde <store+0x2cc>
    4ddc:	3f c0       	rjmp	.+126    	; 0x4e5c <store+0x34a>
	{
		if (memory_address_incr >= 4092)
    4dde:	80 91 1e 21 	lds	r24, 0x211E
    4de2:	90 91 1f 21 	lds	r25, 0x211F
    4de6:	8c 3f       	cpi	r24, 0xFC	; 252
    4de8:	9f 40       	sbci	r25, 0x0F	; 15
    4dea:	20 f0       	brcs	.+8      	; 0x4df4 <store+0x2e2>
		{
			memory_address_incr = 0;
    4dec:	10 92 1f 21 	sts	0x211F, r1
    4df0:	10 92 1e 21 	sts	0x211E, r1
		}
		memory_address_high = ((memory_address_incr & 0xFF00) >> 8);
    4df4:	40 91 1e 21 	lds	r20, 0x211E
    4df8:	20 91 1f 21 	lds	r18, 0x211F
		memory_address_low = (memory_address_incr & 0x00FF);
		PNEWELSE2promWrite(0xAE, 'E', memory_address_low, memory_address_high, 0x45);
    4dfc:	05 e4       	ldi	r16, 0x45	; 69
    4dfe:	65 e4       	ldi	r22, 0x45	; 69
    4e00:	8e ea       	ldi	r24, 0xAE	; 174
    4e02:	cc dd       	rcall	.-1128   	; 0x499c <PNEWELSE2promWrite>
		memory_address_incr++;
    4e04:	80 91 1e 21 	lds	r24, 0x211E
    4e08:	90 91 1f 21 	lds	r25, 0x211F
    4e0c:	01 96       	adiw	r24, 0x01	; 1
    4e0e:	90 93 1f 21 	sts	0x211F, r25
    4e12:	80 93 1e 21 	sts	0x211E, r24
		pne_delayms(10);
    4e16:	8a e0       	ldi	r24, 0x0A	; 10
    4e18:	90 e0       	ldi	r25, 0x00	; 0
    4e1a:	d3 dc       	rcall	.-1626   	; 0x47c2 <pne_delayms>
		if (memory_address_incr >= 4092)
    4e1c:	80 91 1e 21 	lds	r24, 0x211E
    4e20:	90 91 1f 21 	lds	r25, 0x211F
    4e24:	8c 3f       	cpi	r24, 0xFC	; 252
    4e26:	9f 40       	sbci	r25, 0x0F	; 15
    4e28:	20 f0       	brcs	.+8      	; 0x4e32 <store+0x320>
		{
			memory_address_incr = 0;
    4e2a:	10 92 1f 21 	sts	0x211F, r1
    4e2e:	10 92 1e 21 	sts	0x211E, r1
		}
		memory_address_high = ((memory_address_incr & 0xFF00) >> 8);
    4e32:	40 91 1e 21 	lds	r20, 0x211E
    4e36:	20 91 1f 21 	lds	r18, 0x211F
		memory_address_low = (memory_address_incr & 0x00FF);
		PNEWELSE2promWrite(0xAE, 'E', memory_address_low, memory_address_high, 0x45);
    4e3a:	05 e4       	ldi	r16, 0x45	; 69
    4e3c:	65 e4       	ldi	r22, 0x45	; 69
    4e3e:	8e ea       	ldi	r24, 0xAE	; 174
    4e40:	ad dd       	rcall	.-1190   	; 0x499c <PNEWELSE2promWrite>
		memory_address_incr++;
    4e42:	80 91 1e 21 	lds	r24, 0x211E
    4e46:	90 91 1f 21 	lds	r25, 0x211F
    4e4a:	01 96       	adiw	r24, 0x01	; 1
    4e4c:	90 93 1f 21 	sts	0x211F, r25
    4e50:	80 93 1e 21 	sts	0x211E, r24
		pne_delayms(10);
    4e54:	8a e0       	ldi	r24, 0x0A	; 10
    4e56:	90 e0       	ldi	r25, 0x00	; 0
    4e58:	b4 dc       	rcall	.-1688   	; 0x47c2 <pne_delayms>
    4e5a:	c2 c0       	rjmp	.+388    	; 0x4fe0 <store+0x4ce>
	}
	else if (seq == battery_charged)
    4e5c:	86 30       	cpi	r24, 0x06	; 6
    4e5e:	09 f0       	breq	.+2      	; 0x4e62 <store+0x350>
    4e60:	3f c0       	rjmp	.+126    	; 0x4ee0 <store+0x3ce>
	{
		if (memory_address_incr >= 4092)
    4e62:	80 91 1e 21 	lds	r24, 0x211E
    4e66:	90 91 1f 21 	lds	r25, 0x211F
    4e6a:	8c 3f       	cpi	r24, 0xFC	; 252
    4e6c:	9f 40       	sbci	r25, 0x0F	; 15
    4e6e:	20 f0       	brcs	.+8      	; 0x4e78 <store+0x366>
		{
			memory_address_incr = 0;
    4e70:	10 92 1f 21 	sts	0x211F, r1
    4e74:	10 92 1e 21 	sts	0x211E, r1
		}
		memory_address_high = ((memory_address_incr & 0xFF00) >> 8);
    4e78:	40 91 1e 21 	lds	r20, 0x211E
    4e7c:	20 91 1f 21 	lds	r18, 0x211F
		memory_address_low = (memory_address_incr & 0x00FF);
		PNEWELSE2promWrite(0xAE, 'E', memory_address_low, memory_address_high, 0x42);
    4e80:	02 e4       	ldi	r16, 0x42	; 66
    4e82:	65 e4       	ldi	r22, 0x45	; 69
    4e84:	8e ea       	ldi	r24, 0xAE	; 174
    4e86:	8a dd       	rcall	.-1260   	; 0x499c <PNEWELSE2promWrite>
		memory_address_incr++;
    4e88:	80 91 1e 21 	lds	r24, 0x211E
    4e8c:	90 91 1f 21 	lds	r25, 0x211F
    4e90:	01 96       	adiw	r24, 0x01	; 1
    4e92:	90 93 1f 21 	sts	0x211F, r25
    4e96:	80 93 1e 21 	sts	0x211E, r24
		pne_delayms(10);
    4e9a:	8a e0       	ldi	r24, 0x0A	; 10
    4e9c:	90 e0       	ldi	r25, 0x00	; 0
    4e9e:	91 dc       	rcall	.-1758   	; 0x47c2 <pne_delayms>
		if (memory_address_incr >= 4092)
    4ea0:	80 91 1e 21 	lds	r24, 0x211E
    4ea4:	90 91 1f 21 	lds	r25, 0x211F
    4ea8:	8c 3f       	cpi	r24, 0xFC	; 252
    4eaa:	9f 40       	sbci	r25, 0x0F	; 15
    4eac:	20 f0       	brcs	.+8      	; 0x4eb6 <store+0x3a4>
		{
			memory_address_incr = 0;
    4eae:	10 92 1f 21 	sts	0x211F, r1
    4eb2:	10 92 1e 21 	sts	0x211E, r1
		}
		memory_address_high = ((memory_address_incr & 0xFF00) >> 8);
    4eb6:	40 91 1e 21 	lds	r20, 0x211E
    4eba:	20 91 1f 21 	lds	r18, 0x211F
		memory_address_low = (memory_address_incr & 0x00FF);
		PNEWELSE2promWrite(0xAE, 'E', memory_address_low, memory_address_high, 0x43);
    4ebe:	03 e4       	ldi	r16, 0x43	; 67
    4ec0:	65 e4       	ldi	r22, 0x45	; 69
    4ec2:	8e ea       	ldi	r24, 0xAE	; 174
    4ec4:	6b dd       	rcall	.-1322   	; 0x499c <PNEWELSE2promWrite>
		memory_address_incr++;
    4ec6:	80 91 1e 21 	lds	r24, 0x211E
    4eca:	90 91 1f 21 	lds	r25, 0x211F
    4ece:	01 96       	adiw	r24, 0x01	; 1
    4ed0:	90 93 1f 21 	sts	0x211F, r25
    4ed4:	80 93 1e 21 	sts	0x211E, r24
		pne_delayms(10);
    4ed8:	8a e0       	ldi	r24, 0x0A	; 10
    4eda:	90 e0       	ldi	r25, 0x00	; 0
    4edc:	72 dc       	rcall	.-1820   	; 0x47c2 <pne_delayms>
    4ede:	80 c0       	rjmp	.+256    	; 0x4fe0 <store+0x4ce>
	}
	else if (seq == battery_discharged)
    4ee0:	87 30       	cpi	r24, 0x07	; 7
    4ee2:	09 f0       	breq	.+2      	; 0x4ee6 <store+0x3d4>
    4ee4:	3f c0       	rjmp	.+126    	; 0x4f64 <store+0x452>
	{
		if (memory_address_incr >= 4092)
    4ee6:	80 91 1e 21 	lds	r24, 0x211E
    4eea:	90 91 1f 21 	lds	r25, 0x211F
    4eee:	8c 3f       	cpi	r24, 0xFC	; 252
    4ef0:	9f 40       	sbci	r25, 0x0F	; 15
    4ef2:	20 f0       	brcs	.+8      	; 0x4efc <store+0x3ea>
		{
			memory_address_incr = 0;
    4ef4:	10 92 1f 21 	sts	0x211F, r1
    4ef8:	10 92 1e 21 	sts	0x211E, r1
		}
		memory_address_high = ((memory_address_incr & 0xFF00) >> 8);
    4efc:	40 91 1e 21 	lds	r20, 0x211E
    4f00:	20 91 1f 21 	lds	r18, 0x211F
		memory_address_low = (memory_address_incr & 0x00FF);
		PNEWELSE2promWrite(0xAE, 'E', memory_address_low, memory_address_high, 0x42);
    4f04:	02 e4       	ldi	r16, 0x42	; 66
    4f06:	65 e4       	ldi	r22, 0x45	; 69
    4f08:	8e ea       	ldi	r24, 0xAE	; 174
    4f0a:	48 dd       	rcall	.-1392   	; 0x499c <PNEWELSE2promWrite>
		memory_address_incr++;
    4f0c:	80 91 1e 21 	lds	r24, 0x211E
    4f10:	90 91 1f 21 	lds	r25, 0x211F
    4f14:	01 96       	adiw	r24, 0x01	; 1
    4f16:	90 93 1f 21 	sts	0x211F, r25
    4f1a:	80 93 1e 21 	sts	0x211E, r24
		pne_delayms(10);
    4f1e:	8a e0       	ldi	r24, 0x0A	; 10
    4f20:	90 e0       	ldi	r25, 0x00	; 0
    4f22:	4f dc       	rcall	.-1890   	; 0x47c2 <pne_delayms>
		if (memory_address_incr >= 4092)
    4f24:	80 91 1e 21 	lds	r24, 0x211E
    4f28:	90 91 1f 21 	lds	r25, 0x211F
    4f2c:	8c 3f       	cpi	r24, 0xFC	; 252
    4f2e:	9f 40       	sbci	r25, 0x0F	; 15
    4f30:	20 f0       	brcs	.+8      	; 0x4f3a <store+0x428>
		{
			memory_address_incr = 0;
    4f32:	10 92 1f 21 	sts	0x211F, r1
    4f36:	10 92 1e 21 	sts	0x211E, r1
		}
		memory_address_high = ((memory_address_incr & 0xFF00) >> 8);
    4f3a:	40 91 1e 21 	lds	r20, 0x211E
    4f3e:	20 91 1f 21 	lds	r18, 0x211F
		memory_address_low = (memory_address_incr & 0x00FF);
		PNEWELSE2promWrite(0xAE, 'E', memory_address_low, memory_address_high, 0x44);
    4f42:	04 e4       	ldi	r16, 0x44	; 68
    4f44:	65 e4       	ldi	r22, 0x45	; 69
    4f46:	8e ea       	ldi	r24, 0xAE	; 174
    4f48:	29 dd       	rcall	.-1454   	; 0x499c <PNEWELSE2promWrite>
		memory_address_incr++;
    4f4a:	80 91 1e 21 	lds	r24, 0x211E
    4f4e:	90 91 1f 21 	lds	r25, 0x211F
    4f52:	01 96       	adiw	r24, 0x01	; 1
    4f54:	90 93 1f 21 	sts	0x211F, r25
    4f58:	80 93 1e 21 	sts	0x211E, r24
		pne_delayms(10);
    4f5c:	8a e0       	ldi	r24, 0x0A	; 10
    4f5e:	90 e0       	ldi	r25, 0x00	; 0
    4f60:	30 dc       	rcall	.-1952   	; 0x47c2 <pne_delayms>
    4f62:	3e c0       	rjmp	.+124    	; 0x4fe0 <store+0x4ce>
	}
	else
	{
		if (memory_address_incr >= 4092)
    4f64:	80 91 1e 21 	lds	r24, 0x211E
    4f68:	90 91 1f 21 	lds	r25, 0x211F
    4f6c:	8c 3f       	cpi	r24, 0xFC	; 252
    4f6e:	9f 40       	sbci	r25, 0x0F	; 15
    4f70:	20 f0       	brcs	.+8      	; 0x4f7a <store+0x468>
		{
			memory_address_incr = 0;
    4f72:	10 92 1f 21 	sts	0x211F, r1
    4f76:	10 92 1e 21 	sts	0x211E, r1
		}
		memory_address_high = ((memory_address_incr & 0xFF00) >> 8);
    4f7a:	40 91 1e 21 	lds	r20, 0x211E
    4f7e:	20 91 1f 21 	lds	r18, 0x211F
		memory_address_low = (memory_address_incr & 0x00FF);
		PNEWELSE2promWrite(0xAE, 'E', memory_address_low, memory_address_high, 0x4E);
    4f82:	0e e4       	ldi	r16, 0x4E	; 78
    4f84:	65 e4       	ldi	r22, 0x45	; 69
    4f86:	8e ea       	ldi	r24, 0xAE	; 174
    4f88:	09 dd       	rcall	.-1518   	; 0x499c <PNEWELSE2promWrite>
		memory_address_incr++;
    4f8a:	80 91 1e 21 	lds	r24, 0x211E
    4f8e:	90 91 1f 21 	lds	r25, 0x211F
    4f92:	01 96       	adiw	r24, 0x01	; 1
    4f94:	90 93 1f 21 	sts	0x211F, r25
    4f98:	80 93 1e 21 	sts	0x211E, r24
		pne_delayms(10);
    4f9c:	8a e0       	ldi	r24, 0x0A	; 10
    4f9e:	90 e0       	ldi	r25, 0x00	; 0
    4fa0:	10 dc       	rcall	.-2016   	; 0x47c2 <pne_delayms>
		if (memory_address_incr >= 4092)
    4fa2:	80 91 1e 21 	lds	r24, 0x211E
    4fa6:	90 91 1f 21 	lds	r25, 0x211F
    4faa:	8c 3f       	cpi	r24, 0xFC	; 252
    4fac:	9f 40       	sbci	r25, 0x0F	; 15
    4fae:	20 f0       	brcs	.+8      	; 0x4fb8 <store+0x4a6>
		{
			memory_address_incr = 0;
    4fb0:	10 92 1f 21 	sts	0x211F, r1
    4fb4:	10 92 1e 21 	sts	0x211E, r1
		}
		memory_address_high = ((memory_address_incr & 0xFF00) >> 8);
    4fb8:	40 91 1e 21 	lds	r20, 0x211E
    4fbc:	20 91 1f 21 	lds	r18, 0x211F
		memory_address_low = (memory_address_incr & 0x00FF);
		PNEWELSE2promWrite(0xAE, 'E', memory_address_low, memory_address_high, 0x4E);
    4fc0:	0e e4       	ldi	r16, 0x4E	; 78
    4fc2:	65 e4       	ldi	r22, 0x45	; 69
    4fc4:	8e ea       	ldi	r24, 0xAE	; 174
    4fc6:	ea dc       	rcall	.-1580   	; 0x499c <PNEWELSE2promWrite>
		memory_address_incr++;
    4fc8:	80 91 1e 21 	lds	r24, 0x211E
    4fcc:	90 91 1f 21 	lds	r25, 0x211F
    4fd0:	01 96       	adiw	r24, 0x01	; 1
    4fd2:	90 93 1f 21 	sts	0x211F, r25
    4fd6:	80 93 1e 21 	sts	0x211E, r24
		pne_delayms(10);
    4fda:	8a e0       	ldi	r24, 0x0A	; 10
    4fdc:	90 e0       	ldi	r25, 0x00	; 0
    4fde:	f1 db       	rcall	.-2078   	; 0x47c2 <pne_delayms>
	}
	
	current_state_emergency_light = PNEWELS_Buffer.IsOutputEmergencyLED;
    4fe0:	80 91 21 20 	lds	r24, 0x2021
    4fe4:	80 93 1d 21 	sts	0x211D, r24
	current_time = get_timestamp();
    4fe8:	0e 94 1b 3b 	call	0x7636	; 0x7636 <get_timestamp>
    4fec:	6b 01       	movw	r12, r22
    4fee:	7c 01       	movw	r14, r24
	time_4_byte = ((current_time & 0xFF000000) >> 24);
    4ff0:	4f 2d       	mov	r20, r15
    4ff2:	55 27       	eor	r21, r21
    4ff4:	66 27       	eor	r22, r22
    4ff6:	77 27       	eor	r23, r23
	time_3_byte = ((current_time & 0x00FF0000) >> 16);
    4ff8:	4e 2c       	mov	r4, r14
	time_2_byte = ((current_time & 0x0000FF00) >> 8);
    4ffa:	8d 2c       	mov	r8, r13
	time_1_byte = (current_time & 0x000000FF);
	status_byte1 = ((PNEWELS_Buffer.BUTTON_WPS & 0x01) | ((PNEWELS_Buffer.BUTTON_MANUAL & 0x01) << 1) | ((PNEWELS_Buffer.IsFactory & 0x01) << 2) | ((PNEWELS_Buffer.STATUS_VCHARGE & 0x01) << 3) | ((PNEWELS_Buffer.TEMP_ALARM & 0x01) << 4) | ((PNEWELS_Buffer.IsBatt & 0x01) << 5) | ((PNEWELS_Buffer.soft_manual & 0x01) << 6) | ((PNEWELS_Buffer.STATUS_AC & 0x01) << 7));
    4ffc:	a0 91 35 20 	lds	r26, 0x2035
    5000:	e0 e8       	ldi	r30, 0x80	; 128
    5002:	ae 9f       	mul	r26, r30
    5004:	d0 01       	movw	r26, r0
    5006:	11 24       	eor	r1, r1
    5008:	80 91 1a 20 	lds	r24, 0x201A
    500c:	81 70       	andi	r24, 0x01	; 1
    500e:	a8 2b       	or	r26, r24
    5010:	80 91 19 20 	lds	r24, 0x2019
    5014:	81 70       	andi	r24, 0x01	; 1
    5016:	89 83       	std	Y+1, r24	; 0x01
    5018:	1a 82       	std	Y+2, r1	; 0x02
    501a:	89 81       	ldd	r24, Y+1	; 0x01
    501c:	9a 81       	ldd	r25, Y+2	; 0x02
    501e:	88 0f       	add	r24, r24
    5020:	99 1f       	adc	r25, r25
    5022:	9a 2f       	mov	r25, r26
    5024:	98 2b       	or	r25, r24
    5026:	80 91 1d 20 	lds	r24, 0x201D
    502a:	80 fb       	bst	r24, 0
    502c:	22 24       	eor	r2, r2
    502e:	20 f8       	bld	r2, 0
    5030:	31 2c       	mov	r3, r1
    5032:	22 0c       	add	r2, r2
    5034:	33 1c       	adc	r3, r3
    5036:	22 0c       	add	r2, r2
    5038:	33 1c       	adc	r3, r3
    503a:	29 2a       	or	r2, r25
    503c:	a6 e1       	ldi	r26, 0x16	; 22
    503e:	b0 e2       	ldi	r27, 0x20	; 32
    5040:	8c 91       	ld	r24, X
    5042:	81 70       	andi	r24, 0x01	; 1
    5044:	8b 83       	std	Y+3, r24	; 0x03
    5046:	1c 82       	std	Y+4, r1	; 0x04
    5048:	eb 81       	ldd	r30, Y+3	; 0x03
    504a:	fc 81       	ldd	r31, Y+4	; 0x04
    504c:	ee 0f       	add	r30, r30
    504e:	ff 1f       	adc	r31, r31
    5050:	ee 0f       	add	r30, r30
    5052:	ff 1f       	adc	r31, r31
    5054:	ee 0f       	add	r30, r30
    5056:	ff 1f       	adc	r31, r31
    5058:	82 2d       	mov	r24, r2
    505a:	8e 2b       	or	r24, r30
    505c:	90 91 1b 20 	lds	r25, 0x201B
    5060:	91 70       	andi	r25, 0x01	; 1
    5062:	9d 83       	std	Y+5, r25	; 0x05
    5064:	1e 82       	std	Y+6, r1	; 0x06
    5066:	2d 81       	ldd	r18, Y+5	; 0x05
    5068:	3e 81       	ldd	r19, Y+6	; 0x06
    506a:	22 95       	swap	r18
    506c:	32 95       	swap	r19
    506e:	30 7f       	andi	r19, 0xF0	; 240
    5070:	32 27       	eor	r19, r18
    5072:	20 7f       	andi	r18, 0xF0	; 240
    5074:	32 27       	eor	r19, r18
    5076:	28 2e       	mov	r2, r24
    5078:	22 2a       	or	r2, r18
    507a:	80 91 26 20 	lds	r24, 0x2026
    507e:	81 70       	andi	r24, 0x01	; 1
    5080:	8f 83       	std	Y+7, r24	; 0x07
    5082:	18 86       	std	Y+8, r1	; 0x08
    5084:	8f 81       	ldd	r24, Y+7	; 0x07
    5086:	98 85       	ldd	r25, Y+8	; 0x08
    5088:	88 0f       	add	r24, r24
    508a:	99 1f       	adc	r25, r25
    508c:	82 95       	swap	r24
    508e:	92 95       	swap	r25
    5090:	90 7f       	andi	r25, 0xF0	; 240
    5092:	98 27       	eor	r25, r24
    5094:	80 7f       	andi	r24, 0xF0	; 240
    5096:	98 27       	eor	r25, r24
    5098:	82 29       	or	r24, r2
    509a:	90 91 1e 20 	lds	r25, 0x201E
    509e:	91 70       	andi	r25, 0x01	; 1
    50a0:	99 87       	std	Y+9, r25	; 0x09
    50a2:	1a 86       	std	Y+10, r1	; 0x0a
    50a4:	29 84       	ldd	r2, Y+9	; 0x09
    50a6:	3a 84       	ldd	r3, Y+10	; 0x0a
    50a8:	00 24       	eor	r0, r0
    50aa:	36 94       	lsr	r3
    50ac:	27 94       	ror	r2
    50ae:	07 94       	ror	r0
    50b0:	36 94       	lsr	r3
    50b2:	27 94       	ror	r2
    50b4:	07 94       	ror	r0
    50b6:	32 2c       	mov	r3, r2
    50b8:	20 2c       	mov	r2, r0
    50ba:	28 2a       	or	r2, r24
	status_byte2 = ((PNEWELS_Buffer.mode & 0x07) | ((PNEWELS_Buffer.IsOutputEmergencyLED & 0x01) << 3) | ((PNEWELS_Buffer.IsOutputDisableCharging & 0x01) << 4) | ((PNEWELS_Buffer.oled0 & 0x01) << 5) | ((PNEWELS_Buffer.oled1 & 0x01) << 6) | ((PNEWELS_Buffer.oled2 & 0x01) << 7));
    50bc:	a0 91 3d 20 	lds	r26, 0x203D
    50c0:	e0 e8       	ldi	r30, 0x80	; 128
    50c2:	ae 9f       	mul	r26, r30
    50c4:	d0 01       	movw	r26, r0
    50c6:	11 24       	eor	r1, r1
    50c8:	80 91 28 20 	lds	r24, 0x2028
    50cc:	87 70       	andi	r24, 0x07	; 7
    50ce:	8a 2b       	or	r24, r26
    50d0:	90 91 21 20 	lds	r25, 0x2021
    50d4:	91 70       	andi	r25, 0x01	; 1
    50d6:	9b 87       	std	Y+11, r25	; 0x0b
    50d8:	1c 86       	std	Y+12, r1	; 0x0c
    50da:	eb 85       	ldd	r30, Y+11	; 0x0b
    50dc:	fc 85       	ldd	r31, Y+12	; 0x0c
    50de:	ee 0f       	add	r30, r30
    50e0:	ff 1f       	adc	r31, r31
    50e2:	ee 0f       	add	r30, r30
    50e4:	ff 1f       	adc	r31, r31
    50e6:	ee 0f       	add	r30, r30
    50e8:	ff 1f       	adc	r31, r31
    50ea:	8e 2b       	or	r24, r30
    50ec:	90 91 24 20 	lds	r25, 0x2024
    50f0:	91 70       	andi	r25, 0x01	; 1
    50f2:	9d 87       	std	Y+13, r25	; 0x0d
    50f4:	1e 86       	std	Y+14, r1	; 0x0e
    50f6:	2d 85       	ldd	r18, Y+13	; 0x0d
    50f8:	3e 85       	ldd	r19, Y+14	; 0x0e
    50fa:	22 95       	swap	r18
    50fc:	32 95       	swap	r19
    50fe:	30 7f       	andi	r19, 0xF0	; 240
    5100:	32 27       	eor	r19, r18
    5102:	20 7f       	andi	r18, 0xF0	; 240
    5104:	32 27       	eor	r19, r18
    5106:	28 2b       	or	r18, r24
    5108:	80 91 3b 20 	lds	r24, 0x203B
    510c:	81 70       	andi	r24, 0x01	; 1
    510e:	8f 87       	std	Y+15, r24	; 0x0f
    5110:	18 8a       	std	Y+16, r1	; 0x10
    5112:	8f 85       	ldd	r24, Y+15	; 0x0f
    5114:	98 89       	ldd	r25, Y+16	; 0x10
    5116:	88 0f       	add	r24, r24
    5118:	99 1f       	adc	r25, r25
    511a:	82 95       	swap	r24
    511c:	92 95       	swap	r25
    511e:	90 7f       	andi	r25, 0xF0	; 240
    5120:	98 27       	eor	r25, r24
    5122:	80 7f       	andi	r24, 0xF0	; 240
    5124:	98 27       	eor	r25, r24
    5126:	82 2b       	or	r24, r18
    5128:	90 91 3c 20 	lds	r25, 0x203C
    512c:	91 70       	andi	r25, 0x01	; 1
    512e:	99 8b       	std	Y+17, r25	; 0x11
    5130:	1a 8a       	std	Y+18, r1	; 0x12
    5132:	29 89       	ldd	r18, Y+17	; 0x11
    5134:	3a 89       	ldd	r19, Y+18	; 0x12
    5136:	00 24       	eor	r0, r0
    5138:	36 95       	lsr	r19
    513a:	27 95       	ror	r18
    513c:	07 94       	ror	r0
    513e:	36 95       	lsr	r19
    5140:	27 95       	ror	r18
    5142:	07 94       	ror	r0
    5144:	32 2f       	mov	r19, r18
    5146:	20 2d       	mov	r18, r0
    5148:	18 2f       	mov	r17, r24
    514a:	12 2b       	or	r17, r18
	status_byte3 = ((PNEWELS_Buffer.led_ch1 & 0x01) | ((PNEWELS_Buffer.led_ch2 & 0x01) << 1) | ((PNEWELS_Buffer.led_drv0 & 0x01) << 2) | ((PNEWELS_Buffer.led_drv1 & 0x01) << 3) | ((PNEWELS_Buffer.led_drv2 & 0x01) << 4) | ((PNEWELS_Buffer.soft_charge & 0x01) << 5) | ((PNEWELS_Buffer.soft_discharge & 0x01) << 6));
    514c:	80 91 37 20 	lds	r24, 0x2037
    5150:	81 70       	andi	r24, 0x01	; 1
    5152:	8b 8b       	std	Y+19, r24	; 0x13
    5154:	1c 8a       	std	Y+20, r1	; 0x14
    5156:	eb 89       	ldd	r30, Y+19	; 0x13
    5158:	fc 89       	ldd	r31, Y+20	; 0x14
    515a:	ee 0f       	add	r30, r30
    515c:	ff 1f       	adc	r31, r31
    515e:	80 91 38 20 	lds	r24, 0x2038
    5162:	81 70       	andi	r24, 0x01	; 1
    5164:	8d 8b       	std	Y+21, r24	; 0x15
    5166:	1e 8a       	std	Y+22, r1	; 0x16
    5168:	8d 89       	ldd	r24, Y+21	; 0x15
    516a:	9e 89       	ldd	r25, Y+22	; 0x16
    516c:	88 0f       	add	r24, r24
    516e:	99 1f       	adc	r25, r25
    5170:	88 0f       	add	r24, r24
    5172:	99 1f       	adc	r25, r25
    5174:	8e 2b       	or	r24, r30
    5176:	e0 91 36 20 	lds	r30, 0x2036
    517a:	e1 70       	andi	r30, 0x01	; 1
    517c:	8e 2b       	or	r24, r30
    517e:	90 91 39 20 	lds	r25, 0x2039
    5182:	91 70       	andi	r25, 0x01	; 1
    5184:	9f 8b       	std	Y+23, r25	; 0x17
    5186:	18 8e       	std	Y+24, r1	; 0x18
    5188:	ef 89       	ldd	r30, Y+23	; 0x17
    518a:	f8 8d       	ldd	r31, Y+24	; 0x18
    518c:	ee 0f       	add	r30, r30
    518e:	ff 1f       	adc	r31, r31
    5190:	ee 0f       	add	r30, r30
    5192:	ff 1f       	adc	r31, r31
    5194:	ee 0f       	add	r30, r30
    5196:	ff 1f       	adc	r31, r31
    5198:	8e 2b       	or	r24, r30
    519a:	90 91 3a 20 	lds	r25, 0x203A
    519e:	91 70       	andi	r25, 0x01	; 1
    51a0:	99 8f       	std	Y+25, r25	; 0x19
    51a2:	1a 8e       	std	Y+26, r1	; 0x1a
    51a4:	29 8d       	ldd	r18, Y+25	; 0x19
    51a6:	3a 8d       	ldd	r19, Y+26	; 0x1a
    51a8:	22 95       	swap	r18
    51aa:	32 95       	swap	r19
    51ac:	30 7f       	andi	r19, 0xF0	; 240
    51ae:	32 27       	eor	r19, r18
    51b0:	20 7f       	andi	r18, 0xF0	; 240
    51b2:	32 27       	eor	r19, r18
    51b4:	28 2b       	or	r18, r24
    51b6:	80 91 1f 20 	lds	r24, 0x201F
    51ba:	81 70       	andi	r24, 0x01	; 1
    51bc:	8b 8f       	std	Y+27, r24	; 0x1b
    51be:	1c 8e       	std	Y+28, r1	; 0x1c
    51c0:	8b 8d       	ldd	r24, Y+27	; 0x1b
    51c2:	9c 8d       	ldd	r25, Y+28	; 0x1c
    51c4:	88 0f       	add	r24, r24
    51c6:	99 1f       	adc	r25, r25
    51c8:	82 95       	swap	r24
    51ca:	92 95       	swap	r25
    51cc:	90 7f       	andi	r25, 0xF0	; 240
    51ce:	98 27       	eor	r25, r24
    51d0:	80 7f       	andi	r24, 0xF0	; 240
    51d2:	98 27       	eor	r25, r24
    51d4:	82 2b       	or	r24, r18
    51d6:	90 91 20 20 	lds	r25, 0x2020
    51da:	91 70       	andi	r25, 0x01	; 1
    51dc:	9d 8f       	std	Y+29, r25	; 0x1d
    51de:	1e 8e       	std	Y+30, r1	; 0x1e
    51e0:	2d 8d       	ldd	r18, Y+29	; 0x1d
    51e2:	3e 8d       	ldd	r19, Y+30	; 0x1e
    51e4:	00 24       	eor	r0, r0
    51e6:	36 95       	lsr	r19
    51e8:	27 95       	ror	r18
    51ea:	07 94       	ror	r0
    51ec:	36 95       	lsr	r19
    51ee:	27 95       	ror	r18
    51f0:	07 94       	ror	r0
    51f2:	32 2f       	mov	r19, r18
    51f4:	20 2d       	mov	r18, r0
    51f6:	38 2e       	mov	r3, r24
    51f8:	32 2a       	or	r3, r18
		
	if (memory_address_incr >= 4092)
    51fa:	80 91 1e 21 	lds	r24, 0x211E
    51fe:	90 91 1f 21 	lds	r25, 0x211F
    5202:	8c 3f       	cpi	r24, 0xFC	; 252
    5204:	9f 40       	sbci	r25, 0x0F	; 15
    5206:	20 f0       	brcs	.+8      	; 0x5210 <store+0x6fe>
	{
		memory_address_incr = 0;
    5208:	10 92 1f 21 	sts	0x211F, r1
    520c:	10 92 1e 21 	sts	0x211E, r1
	}
	memory_address_high = ((memory_address_incr & 0xFF00) >> 8);
    5210:	80 91 1e 21 	lds	r24, 0x211E
    5214:	20 91 1f 21 	lds	r18, 0x211F
	memory_address_low = (memory_address_incr & 0x00FF);
	PNEWELSE2promWrite(0xAE, 'E', memory_address_low, memory_address_high, time_4_byte);
    5218:	04 2f       	mov	r16, r20
    521a:	48 2f       	mov	r20, r24
    521c:	65 e4       	ldi	r22, 0x45	; 69
    521e:	8e ea       	ldi	r24, 0xAE	; 174
    5220:	bd db       	rcall	.-2182   	; 0x499c <PNEWELSE2promWrite>
	memory_address_incr++;
    5222:	80 91 1e 21 	lds	r24, 0x211E
    5226:	90 91 1f 21 	lds	r25, 0x211F
    522a:	01 96       	adiw	r24, 0x01	; 1
    522c:	90 93 1f 21 	sts	0x211F, r25
    5230:	80 93 1e 21 	sts	0x211E, r24
	pne_delayms(10);
    5234:	8a e0       	ldi	r24, 0x0A	; 10
    5236:	90 e0       	ldi	r25, 0x00	; 0
    5238:	c4 da       	rcall	.-2680   	; 0x47c2 <pne_delayms>
		
	if (memory_address_incr >= 4092)
    523a:	80 91 1e 21 	lds	r24, 0x211E
    523e:	90 91 1f 21 	lds	r25, 0x211F
    5242:	8c 3f       	cpi	r24, 0xFC	; 252
    5244:	9f 40       	sbci	r25, 0x0F	; 15
    5246:	20 f0       	brcs	.+8      	; 0x5250 <store+0x73e>
	{
		memory_address_incr = 0;
    5248:	10 92 1f 21 	sts	0x211F, r1
    524c:	10 92 1e 21 	sts	0x211E, r1
	}
	memory_address_high = ((memory_address_incr & 0xFF00) >> 8);
    5250:	40 91 1e 21 	lds	r20, 0x211E
    5254:	20 91 1f 21 	lds	r18, 0x211F
	memory_address_low = (memory_address_incr & 0x00FF);
	PNEWELSE2promWrite(0xAE, 'E', memory_address_low, memory_address_high, time_3_byte);
    5258:	04 2d       	mov	r16, r4
    525a:	65 e4       	ldi	r22, 0x45	; 69
    525c:	8e ea       	ldi	r24, 0xAE	; 174
    525e:	9e db       	rcall	.-2244   	; 0x499c <PNEWELSE2promWrite>
	memory_address_incr++;
    5260:	80 91 1e 21 	lds	r24, 0x211E
    5264:	90 91 1f 21 	lds	r25, 0x211F
    5268:	01 96       	adiw	r24, 0x01	; 1
    526a:	90 93 1f 21 	sts	0x211F, r25
    526e:	80 93 1e 21 	sts	0x211E, r24
	pne_delayms(10);
    5272:	8a e0       	ldi	r24, 0x0A	; 10
    5274:	90 e0       	ldi	r25, 0x00	; 0
    5276:	a5 da       	rcall	.-2742   	; 0x47c2 <pne_delayms>
		
	if (memory_address_incr >= 4092)
    5278:	80 91 1e 21 	lds	r24, 0x211E
    527c:	90 91 1f 21 	lds	r25, 0x211F
    5280:	8c 3f       	cpi	r24, 0xFC	; 252
    5282:	9f 40       	sbci	r25, 0x0F	; 15
    5284:	20 f0       	brcs	.+8      	; 0x528e <store+0x77c>
	{
		memory_address_incr = 0;
    5286:	10 92 1f 21 	sts	0x211F, r1
    528a:	10 92 1e 21 	sts	0x211E, r1
	}
	memory_address_high = ((memory_address_incr & 0xFF00) >> 8);
    528e:	40 91 1e 21 	lds	r20, 0x211E
    5292:	20 91 1f 21 	lds	r18, 0x211F
	memory_address_low = (memory_address_incr & 0x00FF);
	PNEWELSE2promWrite(0xAE, 'E', memory_address_low, memory_address_high, time_2_byte);
    5296:	08 2d       	mov	r16, r8
    5298:	65 e4       	ldi	r22, 0x45	; 69
    529a:	8e ea       	ldi	r24, 0xAE	; 174
    529c:	7f db       	rcall	.-2306   	; 0x499c <PNEWELSE2promWrite>
	memory_address_incr++;
    529e:	80 91 1e 21 	lds	r24, 0x211E
    52a2:	90 91 1f 21 	lds	r25, 0x211F
    52a6:	01 96       	adiw	r24, 0x01	; 1
    52a8:	90 93 1f 21 	sts	0x211F, r25
    52ac:	80 93 1e 21 	sts	0x211E, r24
	pne_delayms(10);
    52b0:	8a e0       	ldi	r24, 0x0A	; 10
    52b2:	90 e0       	ldi	r25, 0x00	; 0
    52b4:	86 da       	rcall	.-2804   	; 0x47c2 <pne_delayms>
		
	if (memory_address_incr >= 4092)
    52b6:	80 91 1e 21 	lds	r24, 0x211E
    52ba:	90 91 1f 21 	lds	r25, 0x211F
    52be:	8c 3f       	cpi	r24, 0xFC	; 252
    52c0:	9f 40       	sbci	r25, 0x0F	; 15
    52c2:	20 f0       	brcs	.+8      	; 0x52cc <store+0x7ba>
	{
		memory_address_incr = 0;
    52c4:	10 92 1f 21 	sts	0x211F, r1
    52c8:	10 92 1e 21 	sts	0x211E, r1
	}
	memory_address_high = ((memory_address_incr & 0xFF00) >> 8);
    52cc:	40 91 1e 21 	lds	r20, 0x211E
    52d0:	20 91 1f 21 	lds	r18, 0x211F
	memory_address_low = (memory_address_incr & 0x00FF);
	PNEWELSE2promWrite(0xAE, 'E', memory_address_low, memory_address_high, time_1_byte);
    52d4:	0c 2d       	mov	r16, r12
    52d6:	65 e4       	ldi	r22, 0x45	; 69
    52d8:	8e ea       	ldi	r24, 0xAE	; 174
    52da:	60 db       	rcall	.-2368   	; 0x499c <PNEWELSE2promWrite>
	memory_address_incr++;
    52dc:	80 91 1e 21 	lds	r24, 0x211E
    52e0:	90 91 1f 21 	lds	r25, 0x211F
    52e4:	01 96       	adiw	r24, 0x01	; 1
    52e6:	90 93 1f 21 	sts	0x211F, r25
    52ea:	80 93 1e 21 	sts	0x211E, r24
	pne_delayms(10);
    52ee:	8a e0       	ldi	r24, 0x0A	; 10
    52f0:	90 e0       	ldi	r25, 0x00	; 0
    52f2:	67 da       	rcall	.-2866   	; 0x47c2 <pne_delayms>
		
	if (memory_address_incr >= 4092)
    52f4:	80 91 1e 21 	lds	r24, 0x211E
    52f8:	90 91 1f 21 	lds	r25, 0x211F
    52fc:	8c 3f       	cpi	r24, 0xFC	; 252
    52fe:	9f 40       	sbci	r25, 0x0F	; 15
    5300:	20 f0       	brcs	.+8      	; 0x530a <store+0x7f8>
	{
		memory_address_incr = 0;
    5302:	10 92 1f 21 	sts	0x211F, r1
    5306:	10 92 1e 21 	sts	0x211E, r1
	}
	memory_address_high = ((memory_address_incr & 0xFF00) >> 8);
    530a:	40 91 1e 21 	lds	r20, 0x211E
    530e:	20 91 1f 21 	lds	r18, 0x211F
	memory_address_low = (memory_address_incr & 0x00FF);
	PNEWELSE2promWrite(0xAE, 'E', memory_address_low, memory_address_high, PNEWELS_Buffer.V_BATT);
    5312:	00 91 17 20 	lds	r16, 0x2017
    5316:	65 e4       	ldi	r22, 0x45	; 69
    5318:	8e ea       	ldi	r24, 0xAE	; 174
    531a:	40 db       	rcall	.-2432   	; 0x499c <PNEWELSE2promWrite>
	memory_address_incr++;
    531c:	80 91 1e 21 	lds	r24, 0x211E
    5320:	90 91 1f 21 	lds	r25, 0x211F
    5324:	01 96       	adiw	r24, 0x01	; 1
    5326:	90 93 1f 21 	sts	0x211F, r25
    532a:	80 93 1e 21 	sts	0x211E, r24
	pne_delayms(10);
    532e:	8a e0       	ldi	r24, 0x0A	; 10
    5330:	90 e0       	ldi	r25, 0x00	; 0
    5332:	47 da       	rcall	.-2930   	; 0x47c2 <pne_delayms>
		
	if (memory_address_incr >= 4092)
    5334:	80 91 1e 21 	lds	r24, 0x211E
    5338:	90 91 1f 21 	lds	r25, 0x211F
    533c:	8c 3f       	cpi	r24, 0xFC	; 252
    533e:	9f 40       	sbci	r25, 0x0F	; 15
    5340:	20 f0       	brcs	.+8      	; 0x534a <store+0x838>
	{
		memory_address_incr = 0;
    5342:	10 92 1f 21 	sts	0x211F, r1
    5346:	10 92 1e 21 	sts	0x211E, r1
	}
	memory_address_high = ((memory_address_incr & 0xFF00) >> 8);
    534a:	40 91 1e 21 	lds	r20, 0x211E
    534e:	20 91 1f 21 	lds	r18, 0x211F
	memory_address_low = (memory_address_incr & 0x00FF);
	PNEWELSE2promWrite(0xAE, 'E', memory_address_low, memory_address_high, PNEWELS_Buffer.temperature);
    5352:	00 91 1c 20 	lds	r16, 0x201C
    5356:	65 e4       	ldi	r22, 0x45	; 69
    5358:	8e ea       	ldi	r24, 0xAE	; 174
    535a:	20 db       	rcall	.-2496   	; 0x499c <PNEWELSE2promWrite>
	memory_address_incr++;
    535c:	80 91 1e 21 	lds	r24, 0x211E
    5360:	90 91 1f 21 	lds	r25, 0x211F
    5364:	01 96       	adiw	r24, 0x01	; 1
    5366:	90 93 1f 21 	sts	0x211F, r25
    536a:	80 93 1e 21 	sts	0x211E, r24
	pne_delayms(10);
    536e:	8a e0       	ldi	r24, 0x0A	; 10
    5370:	90 e0       	ldi	r25, 0x00	; 0
    5372:	27 da       	rcall	.-2994   	; 0x47c2 <pne_delayms>
		
	if (memory_address_incr >= 4092)
    5374:	80 91 1e 21 	lds	r24, 0x211E
    5378:	90 91 1f 21 	lds	r25, 0x211F
    537c:	8c 3f       	cpi	r24, 0xFC	; 252
    537e:	9f 40       	sbci	r25, 0x0F	; 15
    5380:	20 f0       	brcs	.+8      	; 0x538a <store+0x878>
	{
		memory_address_incr = 0;
    5382:	10 92 1f 21 	sts	0x211F, r1
    5386:	10 92 1e 21 	sts	0x211E, r1
	}
	memory_address_high = ((memory_address_incr & 0xFF00) >> 8);
    538a:	40 91 1e 21 	lds	r20, 0x211E
    538e:	20 91 1f 21 	lds	r18, 0x211F
	memory_address_low = (memory_address_incr & 0x00FF);
	PNEWELSE2promWrite(0xAE, 'E', memory_address_low, memory_address_high, status_byte1);
    5392:	02 2d       	mov	r16, r2
    5394:	65 e4       	ldi	r22, 0x45	; 69
    5396:	8e ea       	ldi	r24, 0xAE	; 174
    5398:	01 db       	rcall	.-2558   	; 0x499c <PNEWELSE2promWrite>
	memory_address_incr++;
    539a:	80 91 1e 21 	lds	r24, 0x211E
    539e:	90 91 1f 21 	lds	r25, 0x211F
    53a2:	01 96       	adiw	r24, 0x01	; 1
    53a4:	90 93 1f 21 	sts	0x211F, r25
    53a8:	80 93 1e 21 	sts	0x211E, r24
	pne_delayms(10);
    53ac:	8a e0       	ldi	r24, 0x0A	; 10
    53ae:	90 e0       	ldi	r25, 0x00	; 0
    53b0:	08 da       	rcall	.-3056   	; 0x47c2 <pne_delayms>
	
	if (memory_address_incr >= 4092)
    53b2:	80 91 1e 21 	lds	r24, 0x211E
    53b6:	90 91 1f 21 	lds	r25, 0x211F
    53ba:	8c 3f       	cpi	r24, 0xFC	; 252
    53bc:	9f 40       	sbci	r25, 0x0F	; 15
    53be:	20 f0       	brcs	.+8      	; 0x53c8 <store+0x8b6>
	{
		memory_address_incr = 0;
    53c0:	10 92 1f 21 	sts	0x211F, r1
    53c4:	10 92 1e 21 	sts	0x211E, r1
	}
	memory_address_high = ((memory_address_incr & 0xFF00) >> 8);
    53c8:	40 91 1e 21 	lds	r20, 0x211E
    53cc:	20 91 1f 21 	lds	r18, 0x211F
	memory_address_low = (memory_address_incr & 0x00FF);
	PNEWELSE2promWrite(0xAE, 'E', memory_address_low, memory_address_high, status_byte2);
    53d0:	01 2f       	mov	r16, r17
    53d2:	65 e4       	ldi	r22, 0x45	; 69
    53d4:	8e ea       	ldi	r24, 0xAE	; 174
    53d6:	e2 da       	rcall	.-2620   	; 0x499c <PNEWELSE2promWrite>
	memory_address_incr++;
    53d8:	80 91 1e 21 	lds	r24, 0x211E
    53dc:	90 91 1f 21 	lds	r25, 0x211F
    53e0:	01 96       	adiw	r24, 0x01	; 1
    53e2:	90 93 1f 21 	sts	0x211F, r25
    53e6:	80 93 1e 21 	sts	0x211E, r24
	pne_delayms(10);
    53ea:	8a e0       	ldi	r24, 0x0A	; 10
    53ec:	90 e0       	ldi	r25, 0x00	; 0
    53ee:	e9 d9       	rcall	.-3118   	; 0x47c2 <pne_delayms>
	
	if (memory_address_incr >= 4092)
    53f0:	80 91 1e 21 	lds	r24, 0x211E
    53f4:	90 91 1f 21 	lds	r25, 0x211F
    53f8:	8c 3f       	cpi	r24, 0xFC	; 252
    53fa:	9f 40       	sbci	r25, 0x0F	; 15
    53fc:	20 f0       	brcs	.+8      	; 0x5406 <store+0x8f4>
	{
		memory_address_incr = 0;
    53fe:	10 92 1f 21 	sts	0x211F, r1
    5402:	10 92 1e 21 	sts	0x211E, r1
	}
	memory_address_high = ((memory_address_incr & 0xFF00) >> 8);
    5406:	40 91 1e 21 	lds	r20, 0x211E
    540a:	20 91 1f 21 	lds	r18, 0x211F
	memory_address_low = (memory_address_incr & 0x00FF);
	PNEWELSE2promWrite(0xAE, 'E', memory_address_low, memory_address_high, status_byte3);
    540e:	03 2d       	mov	r16, r3
    5410:	65 e4       	ldi	r22, 0x45	; 69
    5412:	8e ea       	ldi	r24, 0xAE	; 174
    5414:	c3 da       	rcall	.-2682   	; 0x499c <PNEWELSE2promWrite>
	memory_address_incr++;
    5416:	80 91 1e 21 	lds	r24, 0x211E
    541a:	90 91 1f 21 	lds	r25, 0x211F
    541e:	01 96       	adiw	r24, 0x01	; 1
    5420:	90 93 1f 21 	sts	0x211F, r25
    5424:	80 93 1e 21 	sts	0x211E, r24
	pne_delayms(10);
    5428:	8a e0       	ldi	r24, 0x0A	; 10
    542a:	90 e0       	ldi	r25, 0x00	; 0
    542c:	ca d9       	rcall	.-3180   	; 0x47c2 <pne_delayms>
	
	if (memory_address_incr >= 4092)
    542e:	80 91 1e 21 	lds	r24, 0x211E
    5432:	90 91 1f 21 	lds	r25, 0x211F
    5436:	8c 3f       	cpi	r24, 0xFC	; 252
    5438:	9f 40       	sbci	r25, 0x0F	; 15
    543a:	20 f0       	brcs	.+8      	; 0x5444 <store+0x932>
	{
		memory_address_incr = 0;
    543c:	10 92 1f 21 	sts	0x211F, r1
    5440:	10 92 1e 21 	sts	0x211E, r1
	}
	memoryCounter_save(memory_address_incr);
    5444:	80 91 1e 21 	lds	r24, 0x211E
    5448:	90 91 1f 21 	lds	r25, 0x211F
    544c:	5e db       	rcall	.-2372   	; 0x4b0a <memoryCounter_save>
	pne_delayms(10);
    544e:	8a e0       	ldi	r24, 0x0A	; 10
    5450:	90 e0       	ldi	r25, 0x00	; 0
    5452:	b7 d9       	rcall	.-3218   	; 0x47c2 <pne_delayms>
	

}
    5454:	6e 96       	adiw	r28, 0x1e	; 30
    5456:	0f b6       	in	r0, 0x3f	; 63
    5458:	f8 94       	cli
    545a:	de bf       	out	0x3e, r29	; 62
    545c:	0f be       	out	0x3f, r0	; 63
    545e:	cd bf       	out	0x3d, r28	; 61
    5460:	df 91       	pop	r29
    5462:	cf 91       	pop	r28
    5464:	1f 91       	pop	r17
    5466:	0f 91       	pop	r16
    5468:	ff 90       	pop	r15
    546a:	ef 90       	pop	r14
    546c:	df 90       	pop	r13
    546e:	cf 90       	pop	r12
    5470:	bf 90       	pop	r11
    5472:	af 90       	pop	r10
    5474:	9f 90       	pop	r9
    5476:	8f 90       	pop	r8
    5478:	7f 90       	pop	r7
    547a:	6f 90       	pop	r6
    547c:	5f 90       	pop	r5
    547e:	4f 90       	pop	r4
    5480:	3f 90       	pop	r3
    5482:	2f 90       	pop	r2
    5484:	08 95       	ret

00005486 <send_usart_char>:
	while (tx_buf[i] != 0x00)
	{
		usart_putchar(USART_SERIAL_EXAMPLE, tx_buf[i]);
		i++;
	}
}
    5486:	0f 93       	push	r16
    5488:	1f 93       	push	r17
    548a:	cf 93       	push	r28
    548c:	fc 01       	movw	r30, r24
    548e:	60 81       	ld	r22, Z
    5490:	66 23       	and	r22, r22
    5492:	69 f0       	breq	.+26     	; 0x54ae <send_usart_char+0x28>
    5494:	8c 01       	movw	r16, r24
    5496:	c0 e0       	ldi	r28, 0x00	; 0
    5498:	88 ec       	ldi	r24, 0xC8	; 200
    549a:	90 e0       	ldi	r25, 0x00	; 0
    549c:	0e 94 e1 06 	call	0xdc2	; 0xdc2 <usart_putchar>
    54a0:	cf 5f       	subi	r28, 0xFF	; 255
    54a2:	f8 01       	movw	r30, r16
    54a4:	ec 0f       	add	r30, r28
    54a6:	f1 1d       	adc	r31, r1
    54a8:	60 81       	ld	r22, Z
    54aa:	61 11       	cpse	r22, r1
    54ac:	f5 cf       	rjmp	.-22     	; 0x5498 <send_usart_char+0x12>
    54ae:	cf 91       	pop	r28
    54b0:	1f 91       	pop	r17
    54b2:	0f 91       	pop	r16
    54b4:	08 95       	ret

000054b6 <pnewels_get_usart>:
    54b6:	90 91 ea 20 	lds	r25, 0x20EA
    54ba:	99 23       	and	r25, r25
    54bc:	19 f0       	breq	.+6      	; 0x54c4 <pnewels_get_usart+0xe>
    54be:	91 30       	cpi	r25, 0x01	; 1
    54c0:	b9 f0       	breq	.+46     	; 0x54f0 <pnewels_get_usart+0x3a>
    54c2:	08 95       	ret
    54c4:	e8 e9       	ldi	r30, 0x98	; 152
    54c6:	f0 e2       	ldi	r31, 0x20	; 32
    54c8:	25 ea       	ldi	r18, 0xA5	; 165
    54ca:	30 e2       	ldi	r19, 0x20	; 32
    54cc:	90 e2       	ldi	r25, 0x20	; 32
    54ce:	91 93       	st	Z+, r25
    54d0:	e2 17       	cp	r30, r18
    54d2:	f3 07       	cpc	r31, r19
    54d4:	e1 f7       	brne	.-8      	; 0x54ce <pnewels_get_usart+0x18>
    54d6:	8b 35       	cpi	r24, 0x5B	; 91
    54d8:	21 f4       	brne	.+8      	; 0x54e2 <pnewels_get_usart+0x2c>
    54da:	81 e0       	ldi	r24, 0x01	; 1
    54dc:	80 93 ea 20 	sts	0x20EA, r24
    54e0:	08 95       	ret
    54e2:	8d 35       	cpi	r24, 0x5D	; 93
    54e4:	19 f5       	brne	.+70     	; 0x552c <pnewels_get_usart+0x76>
    54e6:	10 92 7b 20 	sts	0x207B, r1
    54ea:	10 92 ea 20 	sts	0x20EA, r1
    54ee:	08 95       	ret
    54f0:	8d 35       	cpi	r24, 0x5D	; 93
    54f2:	41 f4       	brne	.+16     	; 0x5504 <pnewels_get_usart+0x4e>
    54f4:	10 92 7b 20 	sts	0x207B, r1
    54f8:	10 92 ea 20 	sts	0x20EA, r1
    54fc:	81 e0       	ldi	r24, 0x01	; 1
    54fe:	80 93 57 20 	sts	0x2057, r24
    5502:	08 95       	ret
    5504:	90 91 7b 20 	lds	r25, 0x207B
    5508:	9d 30       	cpi	r25, 0x0D	; 13
    550a:	48 f4       	brcc	.+18     	; 0x551e <pnewels_get_usart+0x68>
    550c:	e9 2f       	mov	r30, r25
    550e:	f0 e0       	ldi	r31, 0x00	; 0
    5510:	e8 56       	subi	r30, 0x68	; 104
    5512:	ff 4d       	sbci	r31, 0xDF	; 223
    5514:	80 83       	st	Z, r24
    5516:	9f 5f       	subi	r25, 0xFF	; 255
    5518:	90 93 7b 20 	sts	0x207B, r25
    551c:	08 95       	ret
    551e:	10 92 7b 20 	sts	0x207B, r1
    5522:	10 92 ea 20 	sts	0x20EA, r1
    5526:	8a e2       	ldi	r24, 0x2A	; 42
    5528:	93 e0       	ldi	r25, 0x03	; 3
    552a:	ad cf       	rjmp	.-166    	; 0x5486 <send_usart_char>
    552c:	08 95       	ret

0000552e <int_to_ascii>:


//---------- side function for factory mode ----------//
void int_to_ascii(uint8_t number)
{
    552e:	cf 93       	push	r28
    5530:	c8 2f       	mov	r28, r24
	uint8_t display;
	
	display = ((number>>4) & 0x0F);
    5532:	68 2f       	mov	r22, r24
    5534:	62 95       	swap	r22
    5536:	6f 70       	andi	r22, 0x0F	; 15
	if (display > 9)
    5538:	6a 30       	cpi	r22, 0x0A	; 10
    553a:	10 f0       	brcs	.+4      	; 0x5540 <int_to_ascii+0x12>
	{
		display = display + 0x37;
    553c:	69 5c       	subi	r22, 0xC9	; 201
    553e:	01 c0       	rjmp	.+2      	; 0x5542 <int_to_ascii+0x14>
	}
	else
	{
		display = display + 0x30;
    5540:	60 5d       	subi	r22, 0xD0	; 208
	}
	usart_putchar(USART_SERIAL_EXAMPLE, display);
    5542:	88 ec       	ldi	r24, 0xC8	; 200
    5544:	90 e0       	ldi	r25, 0x00	; 0
    5546:	0e 94 e1 06 	call	0xdc2	; 0xdc2 <usart_putchar>
	
	display = ((number) & 0x0F);
    554a:	cf 70       	andi	r28, 0x0F	; 15
	if (display > 9)
    554c:	ca 30       	cpi	r28, 0x0A	; 10
    554e:	18 f0       	brcs	.+6      	; 0x5556 <int_to_ascii+0x28>
	{
		display = display + 0x37;
    5550:	67 e3       	ldi	r22, 0x37	; 55
    5552:	6c 0f       	add	r22, r28
    5554:	02 c0       	rjmp	.+4      	; 0x555a <int_to_ascii+0x2c>
	}
	else
	{
		display = display + 0x30;
    5556:	60 e3       	ldi	r22, 0x30	; 48
    5558:	6c 0f       	add	r22, r28
	}
	usart_putchar(USART_SERIAL_EXAMPLE, display);
    555a:	88 ec       	ldi	r24, 0xC8	; 200
    555c:	90 e0       	ldi	r25, 0x00	; 0
    555e:	0e 94 e1 06 	call	0xdc2	; 0xdc2 <usart_putchar>
}
    5562:	cf 91       	pop	r28
    5564:	08 95       	ret

00005566 <optionSelect>:
}

uint8_t optionSelect()
{
	/*char real_command[3] = "123";*/
	flag = 0;
    5566:	10 92 57 20 	sts	0x2057, r1
	
	switch(commamd[0])
    556a:	e0 91 98 20 	lds	r30, 0x2098
    556e:	8e 2f       	mov	r24, r30
    5570:	90 e0       	ldi	r25, 0x00	; 0
    5572:	fc 01       	movw	r30, r24
    5574:	f1 97       	sbiw	r30, 0x31	; 49
    5576:	e9 30       	cpi	r30, 0x09	; 9
    5578:	f1 05       	cpc	r31, r1
    557a:	b0 f4       	brcc	.+44     	; 0x55a8 <optionSelect+0x42>
    557c:	88 27       	eor	r24, r24
    557e:	e6 59       	subi	r30, 0x96	; 150
    5580:	fe 4f       	sbci	r31, 0xFE	; 254
    5582:	8f 4f       	sbci	r24, 0xFF	; 255
    5584:	0c 94 c4 50 	jmp	0xa188	; 0xa188 <__tablejump2__>
		case '1':
			return 1;
		break;
		
		case '2':
			return 2;
    5588:	82 e0       	ldi	r24, 0x02	; 2
    558a:	08 95       	ret
		break;
		
		case '3':
			return 3;
    558c:	83 e0       	ldi	r24, 0x03	; 3
    558e:	08 95       	ret
		break;
		
		case '4':
			return 4;
    5590:	84 e0       	ldi	r24, 0x04	; 4
    5592:	08 95       	ret
		break;
		
		case '5':
			return 5;
    5594:	85 e0       	ldi	r24, 0x05	; 5
    5596:	08 95       	ret
		break;
		
		case '6':
			return 6;
    5598:	86 e0       	ldi	r24, 0x06	; 6
    559a:	08 95       	ret
		break;
		
		case '7':
			return 7;
    559c:	87 e0       	ldi	r24, 0x07	; 7
    559e:	08 95       	ret
		break;
		
		case '8':
			return 8;
    55a0:	88 e0       	ldi	r24, 0x08	; 8
    55a2:	08 95       	ret
		break;
		
		case '9':
			return 9;
    55a4:	89 e0       	ldi	r24, 0x09	; 9
    55a6:	08 95       	ret
		break;
		
		default:
			send_usart_char("Invalid command\r\n");
    55a8:	8a e4       	ldi	r24, 0x4A	; 74
    55aa:	93 e0       	ldi	r25, 0x03	; 3
    55ac:	6c df       	rcall	.-296    	; 0x5486 <send_usart_char>
		break;
			
	}
		return idle;
    55ae:	80 e0       	ldi	r24, 0x00	; 0
    55b0:	08 95       	ret
	flag = 0;
	
	switch(commamd[0])
	{
		case '1':
			return 1;
    55b2:	81 e0       	ldi	r24, 0x01	; 1
			send_usart_char("Invalid command\r\n");
		break;
			
	}
		return idle;
}
    55b4:	08 95       	ret

000055b6 <configSelect>:
}

uint8_t configSelect()
{
	//uint8_t real_command[6] = "123456";
	flag = 0;
    55b6:	10 92 57 20 	sts	0x2057, r1
	
	switch(commamd[0])
    55ba:	80 91 98 20 	lds	r24, 0x2098
    55be:	81 33       	cpi	r24, 0x31	; 49
    55c0:	a1 f0       	breq	.+40     	; 0x55ea <configSelect+0x34>
    55c2:	18 f4       	brcc	.+6      	; 0x55ca <configSelect+0x14>
    55c4:	80 33       	cpi	r24, 0x30	; 48
    55c6:	51 f0       	breq	.+20     	; 0x55dc <configSelect+0x26>
    55c8:	0b c0       	rjmp	.+22     	; 0x55e0 <configSelect+0x2a>
    55ca:	82 33       	cpi	r24, 0x32	; 50
    55cc:	19 f0       	breq	.+6      	; 0x55d4 <configSelect+0x1e>
    55ce:	83 33       	cpi	r24, 0x33	; 51
    55d0:	19 f0       	breq	.+6      	; 0x55d8 <configSelect+0x22>
    55d2:	06 c0       	rjmp	.+12     	; 0x55e0 <configSelect+0x2a>
		case '1':
			return config_DeviceADDR;
		break;
		
		case '2':
			return config_DeviceCH;
    55d4:	82 e0       	ldi	r24, 0x02	; 2
    55d6:	08 95       	ret
		break;
		
		case '3':
			return config_DevicePAN;
    55d8:	83 e0       	ldi	r24, 0x03	; 3
    55da:	08 95       	ret
		break;
		
		case '0':
			return config_exit;
    55dc:	84 e0       	ldi	r24, 0x04	; 4
    55de:	08 95       	ret
		break;
		
		default:
		{
			send_usart_char("Invalid command\r\n");
    55e0:	8a e4       	ldi	r24, 0x4A	; 74
    55e2:	93 e0       	ldi	r25, 0x03	; 3
    55e4:	50 df       	rcall	.-352    	; 0x5486 <send_usart_char>
			return config_idle;
    55e6:	85 e0       	ldi	r24, 0x05	; 5
    55e8:	08 95       	ret
// 		case '3':
// 			return config_NodeID;
// 		break;
		
		case '1':
			return config_DeviceADDR;
    55ea:	81 e0       	ldi	r24, 0x01	; 1
		}
		break;
		
			
	}
}
    55ec:	08 95       	ret

000055ee <send_usart_const_char>:
		}
	}
}

void send_usart_const_char(const char *tx_buf)
{
    55ee:	0f 93       	push	r16
    55f0:	1f 93       	push	r17
    55f2:	cf 93       	push	r28
	uint8_t i =0;
	
	while (tx_buf[i] != 0x00)
    55f4:	fc 01       	movw	r30, r24
    55f6:	60 81       	ld	r22, Z
    55f8:	66 23       	and	r22, r22
    55fa:	69 f0       	breq	.+26     	; 0x5616 <send_usart_const_char+0x28>
    55fc:	8c 01       	movw	r16, r24
    55fe:	c0 e0       	ldi	r28, 0x00	; 0
	{
		usart_putchar(USART_SERIAL_EXAMPLE, tx_buf[i]);
    5600:	88 ec       	ldi	r24, 0xC8	; 200
    5602:	90 e0       	ldi	r25, 0x00	; 0
    5604:	0e 94 e1 06 	call	0xdc2	; 0xdc2 <usart_putchar>
		i++;
    5608:	cf 5f       	subi	r28, 0xFF	; 255

void send_usart_const_char(const char *tx_buf)
{
	uint8_t i =0;
	
	while (tx_buf[i] != 0x00)
    560a:	f8 01       	movw	r30, r16
    560c:	ec 0f       	add	r30, r28
    560e:	f1 1d       	adc	r31, r1
    5610:	60 81       	ld	r22, Z
    5612:	61 11       	cpse	r22, r1
    5614:	f5 cf       	rjmp	.-22     	; 0x5600 <send_usart_const_char+0x12>
	{
		usart_putchar(USART_SERIAL_EXAMPLE, tx_buf[i]);
		i++;
	}
}
    5616:	cf 91       	pop	r28
    5618:	1f 91       	pop	r17
    561a:	0f 91       	pop	r16
    561c:	08 95       	ret

0000561e <send_operation_info>:

void send_operation_info(const char *name, uint8_t data)
{
    561e:	cf 93       	push	r28
    5620:	c6 2f       	mov	r28, r22
	send_usart_const_char(name);
    5622:	e5 df       	rcall	.-54     	; 0x55ee <send_usart_const_char>
	send_usart_char(" changed to ");
    5624:	8c e5       	ldi	r24, 0x5C	; 92
    5626:	93 e0       	ldi	r25, 0x03	; 3
    5628:	2e df       	rcall	.-420    	; 0x5486 <send_usart_char>
	int_to_ascii(data);
    562a:	8c 2f       	mov	r24, r28
    562c:	80 df       	rcall	.-256    	; 0x552e <int_to_ascii>
	/*send_usart_char("\r\n");*/
}
    562e:	cf 91       	pop	r28
    5630:	08 95       	ret

00005632 <config_read_input>:
			
	}
}

void config_read_input(uint16_t address, char data_length, const char *name)
{
    5632:	9f 92       	push	r9
    5634:	af 92       	push	r10
    5636:	bf 92       	push	r11
    5638:	cf 92       	push	r12
    563a:	df 92       	push	r13
    563c:	ef 92       	push	r14
    563e:	ff 92       	push	r15
    5640:	0f 93       	push	r16
    5642:	1f 93       	push	r17
    5644:	cf 93       	push	r28
    5646:	df 93       	push	r29
    5648:	f6 2e       	mov	r15, r22
    564a:	6a 01       	movw	r12, r20
	uint8_t data_short = 0;
	uint8_t cache[2] = {0};
	config_waiting_input = 1;
    564c:	21 e0       	ldi	r18, 0x01	; 1
    564e:	20 93 bd 20 	sts	0x20BD, r18
	flag = 0;
    5652:	10 92 57 20 	sts	0x2057, r1
	uint8_t memory_address_low = (address & 0xFF);
    5656:	18 2f       	mov	r17, r24
	uint8_t memory_address_high = ((address >> 8) & 0xFF);
    5658:	b9 2e       	mov	r11, r25
		{
			switch(data_length)
			{
				case '1':
				{
					cache[0] = ascii_to_hex(commamd[0])<<4;
    565a:	c8 e9       	ldi	r28, 0x98	; 152
    565c:	d0 e2       	ldi	r29, 0x20	; 32
				case '2':
				{
					cache[0] = ascii_to_hex(commamd[0])<<4;
					cache[1] = ascii_to_hex(commamd[1]);
					data_short = cache[0] | cache[1];
					PNEWELSE2promWrite(0xAE, 'E', memory_address_low + 1, memory_address_high, data_short);
    565e:	aa 24       	eor	r10, r10
    5660:	a3 94       	inc	r10
    5662:	a8 0e       	add	r10, r24
	uint8_t cache[2] = {0};
	config_waiting_input = 1;
	flag = 0;
	uint8_t memory_address_low = (address & 0xFF);
	uint8_t memory_address_high = ((address >> 8) & 0xFF);
	while(config_waiting_input == 1)
    5664:	5b c0       	rjmp	.+182    	; 0x571c <config_read_input+0xea>
	{
		if(flag == 1)
    5666:	30 91 57 20 	lds	r19, 0x2057
    566a:	31 30       	cpi	r19, 0x01	; 1
    566c:	e1 f7       	brne	.-8      	; 0x5666 <config_read_input+0x34>
		{
			switch(data_length)
    566e:	81 e3       	ldi	r24, 0x31	; 49
    5670:	f8 16       	cp	r15, r24
    5672:	21 f0       	breq	.+8      	; 0x567c <config_read_input+0x4a>
    5674:	82 e3       	ldi	r24, 0x32	; 50
    5676:	f8 16       	cp	r15, r24
    5678:	f1 f0       	breq	.+60     	; 0x56b6 <config_read_input+0x84>
    567a:	4d c0       	rjmp	.+154    	; 0x5716 <config_read_input+0xe4>
			{
				case '1':
				{
					cache[0] = ascii_to_hex(commamd[0])<<4;
    567c:	88 81       	ld	r24, Y
    567e:	0e 94 5c 3a 	call	0x74b8	; 0x74b8 <ascii_to_hex>
    5682:	e8 2e       	mov	r14, r24
					cache[1] = ascii_to_hex(commamd[1]);
    5684:	89 81       	ldd	r24, Y+1	; 0x01
    5686:	0e 94 5c 3a 	call	0x74b8	; 0x74b8 <ascii_to_hex>
		{
			switch(data_length)
			{
				case '1':
				{
					cache[0] = ascii_to_hex(commamd[0])<<4;
    568a:	ee 0c       	add	r14, r14
    568c:	ee 0c       	add	r14, r14
    568e:	ee 0c       	add	r14, r14
    5690:	ee 0c       	add	r14, r14
					cache[1] = ascii_to_hex(commamd[1]);
					data_short = cache[0] | cache[1];
    5692:	e8 2a       	or	r14, r24
					PNEWELSE2promWrite(0xAE, 'E', memory_address_low, memory_address_high, data_short);
    5694:	0e 2d       	mov	r16, r14
    5696:	2b 2d       	mov	r18, r11
    5698:	41 2f       	mov	r20, r17
    569a:	65 e4       	ldi	r22, 0x45	; 69
    569c:	8e ea       	ldi	r24, 0xAE	; 174
    569e:	7e d9       	rcall	.-3332   	; 0x499c <PNEWELSE2promWrite>
					send_operation_info(name, data_short);
    56a0:	6e 2d       	mov	r22, r14
    56a2:	c6 01       	movw	r24, r12
    56a4:	bc df       	rcall	.-136    	; 0x561e <send_operation_info>
					pne_delayms(10);
    56a6:	8a e0       	ldi	r24, 0x0A	; 10
    56a8:	90 e0       	ldi	r25, 0x00	; 0
    56aa:	8b d8       	rcall	.-3818   	; 0x47c2 <pne_delayms>

					config_waiting_input = 0;
    56ac:	10 92 bd 20 	sts	0x20BD, r1
					flag = 0;
    56b0:	10 92 57 20 	sts	0x2057, r1
				}
				break;
    56b4:	33 c0       	rjmp	.+102    	; 0x571c <config_read_input+0xea>
				
				case '2':
				{
					cache[0] = ascii_to_hex(commamd[0])<<4;
    56b6:	88 81       	ld	r24, Y
    56b8:	0e 94 5c 3a 	call	0x74b8	; 0x74b8 <ascii_to_hex>
    56bc:	e8 2e       	mov	r14, r24
					cache[1] = ascii_to_hex(commamd[1]);
    56be:	89 81       	ldd	r24, Y+1	; 0x01
    56c0:	0e 94 5c 3a 	call	0x74b8	; 0x74b8 <ascii_to_hex>
				}
				break;
				
				case '2':
				{
					cache[0] = ascii_to_hex(commamd[0])<<4;
    56c4:	ee 0c       	add	r14, r14
    56c6:	ee 0c       	add	r14, r14
    56c8:	ee 0c       	add	r14, r14
    56ca:	ee 0c       	add	r14, r14
					cache[1] = ascii_to_hex(commamd[1]);
					data_short = cache[0] | cache[1];
    56cc:	e8 2a       	or	r14, r24
					PNEWELSE2promWrite(0xAE, 'E', memory_address_low + 1, memory_address_high, data_short);
    56ce:	0e 2d       	mov	r16, r14
    56d0:	2b 2d       	mov	r18, r11
    56d2:	4a 2d       	mov	r20, r10
    56d4:	65 e4       	ldi	r22, 0x45	; 69
    56d6:	8e ea       	ldi	r24, 0xAE	; 174
    56d8:	61 d9       	rcall	.-3390   	; 0x499c <PNEWELSE2promWrite>
					cache[0] = ascii_to_hex(commamd[2])<<4;
    56da:	8a 81       	ldd	r24, Y+2	; 0x02
    56dc:	0e 94 5c 3a 	call	0x74b8	; 0x74b8 <ascii_to_hex>
    56e0:	98 2e       	mov	r9, r24
					cache[1] = ascii_to_hex(commamd[3]);
    56e2:	8b 81       	ldd	r24, Y+3	; 0x03
    56e4:	0e 94 5c 3a 	call	0x74b8	; 0x74b8 <ascii_to_hex>
    56e8:	08 2f       	mov	r16, r24
					send_operation_info(name, data_short);
    56ea:	6e 2d       	mov	r22, r14
    56ec:	c6 01       	movw	r24, r12
    56ee:	97 df       	rcall	.-210    	; 0x561e <send_operation_info>
				{
					cache[0] = ascii_to_hex(commamd[0])<<4;
					cache[1] = ascii_to_hex(commamd[1]);
					data_short = cache[0] | cache[1];
					PNEWELSE2promWrite(0xAE, 'E', memory_address_low + 1, memory_address_high, data_short);
					cache[0] = ascii_to_hex(commamd[2])<<4;
    56f0:	e9 2c       	mov	r14, r9
    56f2:	ee 0c       	add	r14, r14
    56f4:	ee 0c       	add	r14, r14
    56f6:	ee 0c       	add	r14, r14
    56f8:	ee 0c       	add	r14, r14
					cache[1] = ascii_to_hex(commamd[3]);
					send_operation_info(name, data_short);
					data_short = cache[0] | cache[1];
    56fa:	e0 2a       	or	r14, r16
					PNEWELSE2promWrite(0xAF, 'E', memory_address_low , memory_address_high, data_short);
    56fc:	0e 2d       	mov	r16, r14
    56fe:	2b 2d       	mov	r18, r11
    5700:	41 2f       	mov	r20, r17
    5702:	65 e4       	ldi	r22, 0x45	; 69
    5704:	8f ea       	ldi	r24, 0xAF	; 175
    5706:	4a d9       	rcall	.-3436   	; 0x499c <PNEWELSE2promWrite>
					int_to_ascii(data_short);
    5708:	8e 2d       	mov	r24, r14
    570a:	11 df       	rcall	.-478    	; 0x552e <int_to_ascii>
					config_waiting_input = 0;
    570c:	10 92 bd 20 	sts	0x20BD, r1
					flag = 0;
    5710:	10 92 57 20 	sts	0x2057, r1
				}
				break;
    5714:	03 c0       	rjmp	.+6      	; 0x571c <config_read_input+0xea>
				
				default:
					send_usart_char("Critical Error! Please contact manufacturer.");
    5716:	89 e6       	ldi	r24, 0x69	; 105
    5718:	93 e0       	ldi	r25, 0x03	; 3
    571a:	b5 de       	rcall	.-662    	; 0x5486 <send_usart_char>
	uint8_t cache[2] = {0};
	config_waiting_input = 1;
	flag = 0;
	uint8_t memory_address_low = (address & 0xFF);
	uint8_t memory_address_high = ((address >> 8) & 0xFF);
	while(config_waiting_input == 1)
    571c:	30 91 bd 20 	lds	r19, 0x20BD
    5720:	31 30       	cpi	r19, 0x01	; 1
    5722:	09 f4       	brne	.+2      	; 0x5726 <config_read_input+0xf4>
    5724:	a0 cf       	rjmp	.-192    	; 0x5666 <config_read_input+0x34>
		else
		{
			
		}
	}
}
    5726:	df 91       	pop	r29
    5728:	cf 91       	pop	r28
    572a:	1f 91       	pop	r17
    572c:	0f 91       	pop	r16
    572e:	ff 90       	pop	r15
    5730:	ef 90       	pop	r14
    5732:	df 90       	pop	r13
    5734:	cf 90       	pop	r12
    5736:	bf 90       	pop	r11
    5738:	af 90       	pop	r10
    573a:	9f 90       	pop	r9
    573c:	08 95       	ret

0000573e <pneConfiguration>:
	usart_putchar(USART_SERIAL_EXAMPLE, display);
}

void pneConfiguration()
{
	switch(config_state)
    573e:	80 91 58 20 	lds	r24, 0x2058
    5742:	82 30       	cpi	r24, 0x02	; 2
    5744:	51 f1       	breq	.+84     	; 0x579a <pneConfiguration+0x5c>
    5746:	28 f4       	brcc	.+10     	; 0x5752 <pneConfiguration+0x14>
    5748:	88 23       	and	r24, r24
    574a:	59 f0       	breq	.+22     	; 0x5762 <pneConfiguration+0x24>
    574c:	81 30       	cpi	r24, 0x01	; 1
    574e:	c9 f0       	breq	.+50     	; 0x5782 <pneConfiguration+0x44>
    5750:	41 c0       	rjmp	.+130    	; 0x57d4 <pneConfiguration+0x96>
    5752:	84 30       	cpi	r24, 0x04	; 4
    5754:	09 f4       	brne	.+2      	; 0x5758 <pneConfiguration+0x1a>
    5756:	39 c0       	rjmp	.+114    	; 0x57ca <pneConfiguration+0x8c>
    5758:	60 f1       	brcs	.+88     	; 0x57b2 <pneConfiguration+0x74>
    575a:	85 30       	cpi	r24, 0x05	; 5
    575c:	09 f4       	brne	.+2      	; 0x5760 <pneConfiguration+0x22>
    575e:	3f c0       	rjmp	.+126    	; 0x57de <pneConfiguration+0xa0>
    5760:	39 c0       	rjmp	.+114    	; 0x57d4 <pneConfiguration+0x96>
	{
		case config_startup_message:
		{
			send_usart_char("\r\n\r\nConfiguration mode. Select an option:\r\n\r\n");
    5762:	86 e9       	ldi	r24, 0x96	; 150
    5764:	93 e0       	ldi	r25, 0x03	; 3
    5766:	8f de       	rcall	.-738    	; 0x5486 <send_usart_char>
/*			send_usart_char("1. Change Group ID\r\n");*/
			send_usart_char("1. Change Device Address\r\n2. Change Device Channel\r\n3. Change Device PAN ID\r\n");
    5768:	84 ec       	ldi	r24, 0xC4	; 196
    576a:	93 e0       	ldi	r25, 0x03	; 3
    576c:	8c de       	rcall	.-744    	; 0x5486 <send_usart_char>
			send_usart_char("0. Exit configuration mode\r\n");
    576e:	87 e3       	ldi	r24, 0x37	; 55
    5770:	96 e0       	ldi	r25, 0x06	; 6
    5772:	89 de       	rcall	.-750    	; 0x5486 <send_usart_char>
			configuration_flag = 1;
    5774:	81 e0       	ldi	r24, 0x01	; 1
    5776:	80 93 91 20 	sts	0x2091, r24
			config_state = config_idle;
    577a:	85 e0       	ldi	r24, 0x05	; 5
    577c:	80 93 58 20 	sts	0x2058, r24
		}
		break;
    5780:	08 95       	ret
// 		}
// 		break;
		
		case config_DeviceADDR:
		{
			send_usart_char("Enter new device address: \r\n");
    5782:	82 e1       	ldi	r24, 0x12	; 18
    5784:	94 e0       	ldi	r25, 0x04	; 4
    5786:	7f de       	rcall	.-770    	; 0x5486 <send_usart_char>
			config_read_input(DEVICE_ADDRESS_L, '2', deviceADDR_display);
    5788:	43 e9       	ldi	r20, 0x93	; 147
    578a:	58 e0       	ldi	r21, 0x08	; 8
    578c:	62 e3       	ldi	r22, 0x32	; 50
    578e:	8c ef       	ldi	r24, 0xFC	; 252
    5790:	9f e0       	ldi	r25, 0x0F	; 15
    5792:	4f df       	rcall	.-354    	; 0x5632 <config_read_input>
			config_state = config_startup_message;
    5794:	10 92 58 20 	sts	0x2058, r1
		}
		break;
    5798:	08 95       	ret
		
		case config_DeviceCH:
		{
			send_usart_char("Enter new device channel: \r\n");
    579a:	8f e2       	ldi	r24, 0x2F	; 47
    579c:	94 e0       	ldi	r25, 0x04	; 4
    579e:	73 de       	rcall	.-794    	; 0x5486 <send_usart_char>
			config_read_input(DEVICE_CHANNEL_L, '2', deviceCH_display);
    57a0:	44 e8       	ldi	r20, 0x84	; 132
    57a2:	58 e0       	ldi	r21, 0x08	; 8
    57a4:	62 e3       	ldi	r22, 0x32	; 50
    57a6:	8e ef       	ldi	r24, 0xFE	; 254
    57a8:	9f e0       	ldi	r25, 0x0F	; 15
    57aa:	43 df       	rcall	.-378    	; 0x5632 <config_read_input>
			config_state = config_startup_message;
    57ac:	10 92 58 20 	sts	0x2058, r1
		}
		break;
    57b0:	08 95       	ret
		
		case config_DevicePAN:
		{
			send_usart_char("Enter new device PAN ID: \r\n");
    57b2:	8c e4       	ldi	r24, 0x4C	; 76
    57b4:	94 e0       	ldi	r25, 0x04	; 4
    57b6:	67 de       	rcall	.-818    	; 0x5486 <send_usart_char>
			config_read_input(DEVICE_PAN_L, '2', devicePAN_display);
    57b8:	46 e7       	ldi	r20, 0x76	; 118
    57ba:	58 e0       	ldi	r21, 0x08	; 8
    57bc:	62 e3       	ldi	r22, 0x32	; 50
    57be:	80 e0       	ldi	r24, 0x00	; 0
    57c0:	90 e1       	ldi	r25, 0x10	; 16
    57c2:	37 df       	rcall	.-402    	; 0x5632 <config_read_input>
			config_state = config_startup_message;
    57c4:	10 92 58 20 	sts	0x2058, r1
		}
		break;
    57c8:	08 95       	ret
		case config_idle:
		break;
		
		case config_exit:
		{
			configuration_flag = 0;
    57ca:	10 92 91 20 	sts	0x2091, r1
			send_usart_char("Exiting config mode");
    57ce:	88 e6       	ldi	r24, 0x68	; 104
    57d0:	94 e0       	ldi	r25, 0x04	; 4
    57d2:	59 de       	rcall	.-846    	; 0x5486 <send_usart_char>
			option_select = option_message;
			config_state = config_startup_message;
		}
		default:
			option_select = option_message;
    57d4:	89 e0       	ldi	r24, 0x09	; 9
    57d6:	80 93 6d 20 	sts	0x206D, r24
			config_state = config_startup_message;
    57da:	10 92 58 20 	sts	0x2058, r1
    57de:	08 95       	ret

000057e0 <resetSelect>:


uint8_t resetSelect()
{
	//uint8_t real_command[6] = "123456";
	flag = 0;
    57e0:	10 92 57 20 	sts	0x2057, r1
	
	switch(commamd[0])
    57e4:	80 91 98 20 	lds	r24, 0x2098
    57e8:	82 33       	cpi	r24, 0x32	; 50
    57ea:	61 f0       	breq	.+24     	; 0x5804 <resetSelect+0x24>
    57ec:	28 f4       	brcc	.+10     	; 0x57f8 <resetSelect+0x18>
    57ee:	80 33       	cpi	r24, 0x30	; 48
    57f0:	89 f0       	breq	.+34     	; 0x5814 <resetSelect+0x34>
    57f2:	81 33       	cpi	r24, 0x31	; 49
    57f4:	b1 f0       	breq	.+44     	; 0x5822 <resetSelect+0x42>
    57f6:	10 c0       	rjmp	.+32     	; 0x5818 <resetSelect+0x38>
    57f8:	84 33       	cpi	r24, 0x34	; 52
    57fa:	41 f0       	breq	.+16     	; 0x580c <resetSelect+0x2c>
    57fc:	28 f0       	brcs	.+10     	; 0x5808 <resetSelect+0x28>
    57fe:	85 33       	cpi	r24, 0x35	; 53
    5800:	39 f0       	breq	.+14     	; 0x5810 <resetSelect+0x30>
    5802:	0a c0       	rjmp	.+20     	; 0x5818 <resetSelect+0x38>
		case '1':
		return reset_all;
		break;
		
		case '2':
		return reset_bit0;
    5804:	82 e0       	ldi	r24, 0x02	; 2
    5806:	08 95       	ret
		break;
		
		case '3':
		return reset_bit1;
    5808:	83 e0       	ldi	r24, 0x03	; 3
    580a:	08 95       	ret
		break;
		
		case '4':
		return reset_read_status;
    580c:	84 e0       	ldi	r24, 0x04	; 4
    580e:	08 95       	ret
		break;

		case '5':
		return reset_set_flag;
    5810:	85 e0       	ldi	r24, 0x05	; 5
    5812:	08 95       	ret
		break;
		
		case '0':
		return reset_exit;
    5814:	87 e0       	ldi	r24, 0x07	; 7
    5816:	08 95       	ret
		break;
		
		default:
		{
			send_usart_char("Invalid command\r\n");
    5818:	8a e4       	ldi	r24, 0x4A	; 74
    581a:	93 e0       	ldi	r25, 0x03	; 3
    581c:	34 de       	rcall	.-920    	; 0x5486 <send_usart_char>
			return reset_idle;
    581e:	86 e0       	ldi	r24, 0x06	; 6
    5820:	08 95       	ret
	flag = 0;
	
	switch(commamd[0])
	{
		case '1':
		return reset_all;
    5822:	81 e0       	ldi	r24, 0x01	; 1
			return reset_idle;
		}
		break;
				
	}
}
    5824:	08 95       	ret

00005826 <testMode>:

void testMode()
{
    5826:	df 92       	push	r13
    5828:	ef 92       	push	r14
    582a:	ff 92       	push	r15
    582c:	0f 93       	push	r16
    582e:	1f 93       	push	r17
    5830:	cf 93       	push	r28
    5832:	df 93       	push	r29
	uint8_t button_status_factory6;
	uint8_t button_status_factory7;
	uint8_t button_status_factory8;
	uint8_t button_status_factory9;
	
	switch(button)
    5834:	80 91 59 20 	lds	r24, 0x2059
    5838:	90 e0       	ldi	r25, 0x00	; 0
    583a:	8a 30       	cpi	r24, 0x0A	; 10
    583c:	91 05       	cpc	r25, r1
    583e:	08 f0       	brcs	.+2      	; 0x5842 <testMode+0x1c>
    5840:	ef c5       	rjmp	.+3038   	; 0x6420 <testMode+0xbfa>
    5842:	fc 01       	movw	r30, r24
    5844:	88 27       	eor	r24, r24
    5846:	ed 58       	subi	r30, 0x8D	; 141
    5848:	fe 4f       	sbci	r31, 0xFE	; 254
    584a:	8f 4f       	sbci	r24, 0xFF	; 255
    584c:	0c 94 c4 50 	jmp	0xa188	; 0xa188 <__tablejump2__>
	{
		case button1:
		{
			gpio_clr(STATUS_LED_1);
    5850:	60 91 5f 20 	lds	r22, 0x205F
    5854:	70 91 60 20 	lds	r23, 0x2060
    5858:	80 91 61 20 	lds	r24, 0x2061
    585c:	0e 94 c0 0a 	call	0x1580	; 0x1580 <gpio_clr>
			gpio_clr(STATUS_LED_2);
    5860:	60 91 81 20 	lds	r22, 0x2081
    5864:	70 91 82 20 	lds	r23, 0x2082
    5868:	80 91 83 20 	lds	r24, 0x2083
    586c:	0e 94 c0 0a 	call	0x1580	; 0x1580 <gpio_clr>
			gpio_clr(CHARGING_DISABLE);
    5870:	60 91 93 20 	lds	r22, 0x2093
    5874:	70 91 94 20 	lds	r23, 0x2094
    5878:	80 91 95 20 	lds	r24, 0x2095
    587c:	0e 94 c0 0a 	call	0x1580	; 0x1580 <gpio_clr>
			gpio_clr(EMER_LIGHT_EN);
    5880:	60 91 63 20 	lds	r22, 0x2063
    5884:	70 91 64 20 	lds	r23, 0x2064
    5888:	80 91 65 20 	lds	r24, 0x2065
    588c:	0e 94 c0 0a 	call	0x1580	; 0x1580 <gpio_clr>
			gpio_clr(OUT_LED_CH0);
    5890:	60 91 40 20 	lds	r22, 0x2040
    5894:	70 91 41 20 	lds	r23, 0x2041
    5898:	80 91 42 20 	lds	r24, 0x2042
    589c:	0e 94 c0 0a 	call	0x1580	; 0x1580 <gpio_clr>
			gpio_clr(OUT_LED_CH1);
    58a0:	60 91 14 21 	lds	r22, 0x2114
    58a4:	70 91 15 21 	lds	r23, 0x2115
    58a8:	80 91 16 21 	lds	r24, 0x2116
    58ac:	0e 94 c0 0a 	call	0x1580	; 0x1580 <gpio_clr>
			gpio_clr(OUT_LED_CH2);
    58b0:	60 91 1a 21 	lds	r22, 0x211A
    58b4:	70 91 1b 21 	lds	r23, 0x211B
    58b8:	80 91 1c 21 	lds	r24, 0x211C
    58bc:	0e 94 c0 0a 	call	0x1580	; 0x1580 <gpio_clr>
			
			send_usart_char("\r\nIO Switch ");
    58c0:	8c e7       	ldi	r24, 0x7C	; 124
    58c2:	94 e0       	ldi	r25, 0x04	; 4
    58c4:	e0 dd       	rcall	.-1088   	; 0x5486 <send_usart_char>
			send_usart_char("1");
    58c6:	8b ea       	ldi	r24, 0xAB	; 171
    58c8:	97 e0       	ldi	r25, 0x07	; 7
    58ca:	dd dd       	rcall	.-1094   	; 0x5486 <send_usart_char>
			
			button_status_factory = gpio_read(AC_STAT) ? 0 : 1;
    58cc:	60 91 0e 21 	lds	r22, 0x210E
    58d0:	70 91 0f 21 	lds	r23, 0x210F
    58d4:	80 91 10 21 	lds	r24, 0x2110
    58d8:	0e 94 33 0c 	call	0x1866	; 0x1866 <gpio_read>
			
			while(button_status_factory != 1)
    58dc:	88 23       	and	r24, r24
    58de:	51 f0       	breq	.+20     	; 0x58f4 <testMode+0xce>
			{
				button_status_factory = gpio_read(AC_STAT) ? 0 : 1;
    58e0:	60 91 0e 21 	lds	r22, 0x210E
    58e4:	70 91 0f 21 	lds	r23, 0x210F
    58e8:	80 91 10 21 	lds	r24, 0x2110
    58ec:	0e 94 33 0c 	call	0x1866	; 0x1866 <gpio_read>
			send_usart_char("\r\nIO Switch ");
			send_usart_char("1");
			
			button_status_factory = gpio_read(AC_STAT) ? 0 : 1;
			
			while(button_status_factory != 1)
    58f0:	81 11       	cpse	r24, r1
    58f2:	f6 cf       	rjmp	.-20     	; 0x58e0 <testMode+0xba>
			{
				button_status_factory = gpio_read(AC_STAT) ? 0 : 1;
			}
			
			button_status_factory2 = gpio_read(INPUT_LED_CH1) ? 0 : 1;
    58f4:	60 91 09 21 	lds	r22, 0x2109
    58f8:	70 91 0a 21 	lds	r23, 0x210A
    58fc:	80 91 0b 21 	lds	r24, 0x210B
    5900:	0e 94 33 0c 	call	0x1866	; 0x1866 <gpio_read>
    5904:	e8 2e       	mov	r14, r24
			button_status_factory3 = gpio_read(INPUT_LED_CH2) ? 0 : 1;
    5906:	60 91 5c 20 	lds	r22, 0x205C
    590a:	70 91 5d 20 	lds	r23, 0x205D
    590e:	80 91 5e 20 	lds	r24, 0x205E
    5912:	0e 94 33 0c 	call	0x1866	; 0x1866 <gpio_read>
    5916:	d8 2e       	mov	r13, r24
			button_status_factory4 = gpio_read(INPUT_LED_DRV0) ? 0 : 1;
    5918:	60 91 ba 20 	lds	r22, 0x20BA
    591c:	70 91 bb 20 	lds	r23, 0x20BB
    5920:	80 91 bc 20 	lds	r24, 0x20BC
    5924:	0e 94 33 0c 	call	0x1866	; 0x1866 <gpio_read>
    5928:	f8 2e       	mov	r15, r24
			button_status_factory5 = gpio_read(INPUT_LED_DRV1) ? 0 : 1;
    592a:	60 91 12 20 	lds	r22, 0x2012
    592e:	70 91 13 20 	lds	r23, 0x2013
    5932:	80 91 14 20 	lds	r24, 0x2014
    5936:	0e 94 33 0c 	call	0x1866	; 0x1866 <gpio_read>
    593a:	08 2f       	mov	r16, r24
			button_status_factory6 = gpio_read(INPUT_LED_DRV2) ? 0 : 1;
    593c:	60 91 69 20 	lds	r22, 0x2069
    5940:	70 91 6a 20 	lds	r23, 0x206A
    5944:	80 91 6b 20 	lds	r24, 0x206B
    5948:	0e 94 33 0c 	call	0x1866	; 0x1866 <gpio_read>
    594c:	18 2f       	mov	r17, r24
			button_status_factory7 = gpio_read(WPS_BTN) ? 0 : 1;
    594e:	60 91 50 20 	lds	r22, 0x2050
    5952:	70 91 51 20 	lds	r23, 0x2051
    5956:	80 91 52 20 	lds	r24, 0x2052
    595a:	0e 94 33 0c 	call	0x1866	; 0x1866 <gpio_read>
    595e:	d8 2f       	mov	r29, r24
			button_status_factory8 = gpio_read(VCHARGE_STAT) ? 0 : 1;
    5960:	60 91 f9 20 	lds	r22, 0x20F9
    5964:	70 91 fa 20 	lds	r23, 0x20FA
    5968:	80 91 fb 20 	lds	r24, 0x20FB
    596c:	0e 94 33 0c 	call	0x1866	; 0x1866 <gpio_read>
    5970:	c8 2f       	mov	r28, r24
			button_status_factory9 = gpio_read(MANUAL_BTN) ? 0 : 1;
    5972:	60 91 b7 20 	lds	r22, 0x20B7
    5976:	70 91 b8 20 	lds	r23, 0x20B8
    597a:	80 91 b9 20 	lds	r24, 0x20B9
    597e:	0e 94 33 0c 	call	0x1866	; 0x1866 <gpio_read>
			{
				button_status_factory = gpio_read(AC_STAT) ? 0 : 1;
			}
			
			button_status_factory2 = gpio_read(INPUT_LED_CH1) ? 0 : 1;
			button_status_factory3 = gpio_read(INPUT_LED_CH2) ? 0 : 1;
    5982:	21 e0       	ldi	r18, 0x01	; 1
    5984:	d1 10       	cpse	r13, r1
    5986:	20 e0       	ldi	r18, 0x00	; 0
			while(button_status_factory != 1)
			{
				button_status_factory = gpio_read(AC_STAT) ? 0 : 1;
			}
			
			button_status_factory2 = gpio_read(INPUT_LED_CH1) ? 0 : 1;
    5988:	91 e0       	ldi	r25, 0x01	; 1
    598a:	e1 10       	cpse	r14, r1
    598c:	90 e0       	ldi	r25, 0x00	; 0
			button_status_factory6 = gpio_read(INPUT_LED_DRV2) ? 0 : 1;
			button_status_factory7 = gpio_read(WPS_BTN) ? 0 : 1;
			button_status_factory8 = gpio_read(VCHARGE_STAT) ? 0 : 1;
			button_status_factory9 = gpio_read(MANUAL_BTN) ? 0 : 1;
			
			if ((button_status_factory2 | button_status_factory3 | button_status_factory4 | button_status_factory5 | button_status_factory6 | button_status_factory7 | button_status_factory8 | button_status_factory9) != 0)
    598e:	29 2b       	or	r18, r25
				button_status_factory = gpio_read(AC_STAT) ? 0 : 1;
			}
			
			button_status_factory2 = gpio_read(INPUT_LED_CH1) ? 0 : 1;
			button_status_factory3 = gpio_read(INPUT_LED_CH2) ? 0 : 1;
			button_status_factory4 = gpio_read(INPUT_LED_DRV0) ? 0 : 1;
    5990:	91 e0       	ldi	r25, 0x01	; 1
    5992:	f1 10       	cpse	r15, r1
    5994:	90 e0       	ldi	r25, 0x00	; 0
			button_status_factory6 = gpio_read(INPUT_LED_DRV2) ? 0 : 1;
			button_status_factory7 = gpio_read(WPS_BTN) ? 0 : 1;
			button_status_factory8 = gpio_read(VCHARGE_STAT) ? 0 : 1;
			button_status_factory9 = gpio_read(MANUAL_BTN) ? 0 : 1;
			
			if ((button_status_factory2 | button_status_factory3 | button_status_factory4 | button_status_factory5 | button_status_factory6 | button_status_factory7 | button_status_factory8 | button_status_factory9) != 0)
    5996:	92 2b       	or	r25, r18
			}
			
			button_status_factory2 = gpio_read(INPUT_LED_CH1) ? 0 : 1;
			button_status_factory3 = gpio_read(INPUT_LED_CH2) ? 0 : 1;
			button_status_factory4 = gpio_read(INPUT_LED_DRV0) ? 0 : 1;
			button_status_factory5 = gpio_read(INPUT_LED_DRV1) ? 0 : 1;
    5998:	21 e0       	ldi	r18, 0x01	; 1
    599a:	01 11       	cpse	r16, r1
    599c:	20 e0       	ldi	r18, 0x00	; 0
			button_status_factory6 = gpio_read(INPUT_LED_DRV2) ? 0 : 1;
			button_status_factory7 = gpio_read(WPS_BTN) ? 0 : 1;
			button_status_factory8 = gpio_read(VCHARGE_STAT) ? 0 : 1;
			button_status_factory9 = gpio_read(MANUAL_BTN) ? 0 : 1;
			
			if ((button_status_factory2 | button_status_factory3 | button_status_factory4 | button_status_factory5 | button_status_factory6 | button_status_factory7 | button_status_factory8 | button_status_factory9) != 0)
    599e:	29 2b       	or	r18, r25
			
			button_status_factory2 = gpio_read(INPUT_LED_CH1) ? 0 : 1;
			button_status_factory3 = gpio_read(INPUT_LED_CH2) ? 0 : 1;
			button_status_factory4 = gpio_read(INPUT_LED_DRV0) ? 0 : 1;
			button_status_factory5 = gpio_read(INPUT_LED_DRV1) ? 0 : 1;
			button_status_factory6 = gpio_read(INPUT_LED_DRV2) ? 0 : 1;
    59a0:	91 e0       	ldi	r25, 0x01	; 1
    59a2:	11 11       	cpse	r17, r1
    59a4:	90 e0       	ldi	r25, 0x00	; 0
			button_status_factory7 = gpio_read(WPS_BTN) ? 0 : 1;
			button_status_factory8 = gpio_read(VCHARGE_STAT) ? 0 : 1;
			button_status_factory9 = gpio_read(MANUAL_BTN) ? 0 : 1;
			
			if ((button_status_factory2 | button_status_factory3 | button_status_factory4 | button_status_factory5 | button_status_factory6 | button_status_factory7 | button_status_factory8 | button_status_factory9) != 0)
    59a6:	92 2b       	or	r25, r18
			button_status_factory2 = gpio_read(INPUT_LED_CH1) ? 0 : 1;
			button_status_factory3 = gpio_read(INPUT_LED_CH2) ? 0 : 1;
			button_status_factory4 = gpio_read(INPUT_LED_DRV0) ? 0 : 1;
			button_status_factory5 = gpio_read(INPUT_LED_DRV1) ? 0 : 1;
			button_status_factory6 = gpio_read(INPUT_LED_DRV2) ? 0 : 1;
			button_status_factory7 = gpio_read(WPS_BTN) ? 0 : 1;
    59a8:	21 e0       	ldi	r18, 0x01	; 1
    59aa:	d1 11       	cpse	r29, r1
    59ac:	20 e0       	ldi	r18, 0x00	; 0
			button_status_factory8 = gpio_read(VCHARGE_STAT) ? 0 : 1;
			button_status_factory9 = gpio_read(MANUAL_BTN) ? 0 : 1;
			
			if ((button_status_factory2 | button_status_factory3 | button_status_factory4 | button_status_factory5 | button_status_factory6 | button_status_factory7 | button_status_factory8 | button_status_factory9) != 0)
    59ae:	29 2b       	or	r18, r25
			button_status_factory3 = gpio_read(INPUT_LED_CH2) ? 0 : 1;
			button_status_factory4 = gpio_read(INPUT_LED_DRV0) ? 0 : 1;
			button_status_factory5 = gpio_read(INPUT_LED_DRV1) ? 0 : 1;
			button_status_factory6 = gpio_read(INPUT_LED_DRV2) ? 0 : 1;
			button_status_factory7 = gpio_read(WPS_BTN) ? 0 : 1;
			button_status_factory8 = gpio_read(VCHARGE_STAT) ? 0 : 1;
    59b0:	91 e0       	ldi	r25, 0x01	; 1
    59b2:	c1 11       	cpse	r28, r1
    59b4:	90 e0       	ldi	r25, 0x00	; 0
			button_status_factory9 = gpio_read(MANUAL_BTN) ? 0 : 1;
			
			if ((button_status_factory2 | button_status_factory3 | button_status_factory4 | button_status_factory5 | button_status_factory6 | button_status_factory7 | button_status_factory8 | button_status_factory9) != 0)
    59b6:	92 2b       	or	r25, r18
    59b8:	29 f4       	brne	.+10     	; 0x59c4 <testMode+0x19e>
			button_status_factory4 = gpio_read(INPUT_LED_DRV0) ? 0 : 1;
			button_status_factory5 = gpio_read(INPUT_LED_DRV1) ? 0 : 1;
			button_status_factory6 = gpio_read(INPUT_LED_DRV2) ? 0 : 1;
			button_status_factory7 = gpio_read(WPS_BTN) ? 0 : 1;
			button_status_factory8 = gpio_read(VCHARGE_STAT) ? 0 : 1;
			button_status_factory9 = gpio_read(MANUAL_BTN) ? 0 : 1;
    59ba:	91 e0       	ldi	r25, 0x01	; 1
    59bc:	81 11       	cpse	r24, r1
    59be:	90 e0       	ldi	r25, 0x00	; 0
			
			if ((button_status_factory2 | button_status_factory3 | button_status_factory4 | button_status_factory5 | button_status_factory6 | button_status_factory7 | button_status_factory8 | button_status_factory9) != 0)
    59c0:	99 23       	and	r25, r25
    59c2:	49 f0       	breq	.+18     	; 0x59d6 <testMode+0x1b0>
			{
				send_usart_char(" ------FAIL");
    59c4:	89 e8       	ldi	r24, 0x89	; 137
    59c6:	94 e0       	ldi	r25, 0x04	; 4
    59c8:	5e dd       	rcall	.-1348   	; 0x5486 <send_usart_char>
				send_usart_char("\r\nMultiple Input Turn On ...");
    59ca:	85 e9       	ldi	r24, 0x95	; 149
    59cc:	94 e0       	ldi	r25, 0x04	; 4
    59ce:	5b dd       	rcall	.-1354   	; 0x5486 <send_usart_char>
				button = button1;
    59d0:	10 92 59 20 	sts	0x2059, r1
    59d4:	25 c5       	rjmp	.+2634   	; 0x6420 <testMode+0xbfa>
			}
			else
			{
				gpio_set(STATUS_LED_1);
    59d6:	60 91 5f 20 	lds	r22, 0x205F
    59da:	70 91 60 20 	lds	r23, 0x2060
    59de:	80 91 61 20 	lds	r24, 0x2061
    59e2:	0e 94 7c 0a 	call	0x14f8	; 0x14f8 <gpio_set>
				send_usart_char(" ------PASS");
    59e6:	82 eb       	ldi	r24, 0xB2	; 178
    59e8:	94 e0       	ldi	r25, 0x04	; 4
    59ea:	4d dd       	rcall	.-1382   	; 0x5486 <send_usart_char>
				button = button2;
    59ec:	81 e0       	ldi	r24, 0x01	; 1
    59ee:	80 93 59 20 	sts	0x2059, r24
    59f2:	16 c5       	rjmp	.+2604   	; 0x6420 <testMode+0xbfa>
		}
		break;
		
		case button2:
		{
			send_usart_char("\r\nIO Switch ");
    59f4:	8c e7       	ldi	r24, 0x7C	; 124
    59f6:	94 e0       	ldi	r25, 0x04	; 4
    59f8:	46 dd       	rcall	.-1396   	; 0x5486 <send_usart_char>
			send_usart_char("2");
    59fa:	8e eb       	ldi	r24, 0xBE	; 190
    59fc:	94 e0       	ldi	r25, 0x04	; 4
    59fe:	43 dd       	rcall	.-1402   	; 0x5486 <send_usart_char>
			
			button_status_factory = gpio_read(INPUT_LED_CH1) ? 0 : 1;
    5a00:	60 91 09 21 	lds	r22, 0x2109
    5a04:	70 91 0a 21 	lds	r23, 0x210A
    5a08:	80 91 0b 21 	lds	r24, 0x210B
    5a0c:	0e 94 33 0c 	call	0x1866	; 0x1866 <gpio_read>
			
			while(button_status_factory != 1)
    5a10:	88 23       	and	r24, r24
    5a12:	51 f0       	breq	.+20     	; 0x5a28 <testMode+0x202>
			{
				button_status_factory = gpio_read(INPUT_LED_CH1) ? 0 : 1;
    5a14:	60 91 09 21 	lds	r22, 0x2109
    5a18:	70 91 0a 21 	lds	r23, 0x210A
    5a1c:	80 91 0b 21 	lds	r24, 0x210B
    5a20:	0e 94 33 0c 	call	0x1866	; 0x1866 <gpio_read>
			send_usart_char("\r\nIO Switch ");
			send_usart_char("2");
			
			button_status_factory = gpio_read(INPUT_LED_CH1) ? 0 : 1;
			
			while(button_status_factory != 1)
    5a24:	81 11       	cpse	r24, r1
    5a26:	f6 cf       	rjmp	.-20     	; 0x5a14 <testMode+0x1ee>
			{
				button_status_factory = gpio_read(INPUT_LED_CH1) ? 0 : 1;
			}
			
			button_status_factory2 = gpio_read(AC_STAT) ? 0 : 1;
    5a28:	60 91 0e 21 	lds	r22, 0x210E
    5a2c:	70 91 0f 21 	lds	r23, 0x210F
    5a30:	80 91 10 21 	lds	r24, 0x2110
    5a34:	0e 94 33 0c 	call	0x1866	; 0x1866 <gpio_read>
    5a38:	e8 2e       	mov	r14, r24
			button_status_factory3 = gpio_read(INPUT_LED_CH2) ? 0 : 1;
    5a3a:	60 91 5c 20 	lds	r22, 0x205C
    5a3e:	70 91 5d 20 	lds	r23, 0x205D
    5a42:	80 91 5e 20 	lds	r24, 0x205E
    5a46:	0e 94 33 0c 	call	0x1866	; 0x1866 <gpio_read>
    5a4a:	d8 2e       	mov	r13, r24
			button_status_factory4 = gpio_read(INPUT_LED_DRV0) ? 0 : 1;
    5a4c:	60 91 ba 20 	lds	r22, 0x20BA
    5a50:	70 91 bb 20 	lds	r23, 0x20BB
    5a54:	80 91 bc 20 	lds	r24, 0x20BC
    5a58:	0e 94 33 0c 	call	0x1866	; 0x1866 <gpio_read>
    5a5c:	f8 2e       	mov	r15, r24
			button_status_factory5 = gpio_read(INPUT_LED_DRV1) ? 0 : 1;
    5a5e:	60 91 12 20 	lds	r22, 0x2012
    5a62:	70 91 13 20 	lds	r23, 0x2013
    5a66:	80 91 14 20 	lds	r24, 0x2014
    5a6a:	0e 94 33 0c 	call	0x1866	; 0x1866 <gpio_read>
    5a6e:	08 2f       	mov	r16, r24
			button_status_factory6 = gpio_read(INPUT_LED_DRV2) ? 0 : 1;
    5a70:	60 91 69 20 	lds	r22, 0x2069
    5a74:	70 91 6a 20 	lds	r23, 0x206A
    5a78:	80 91 6b 20 	lds	r24, 0x206B
    5a7c:	0e 94 33 0c 	call	0x1866	; 0x1866 <gpio_read>
    5a80:	18 2f       	mov	r17, r24
			button_status_factory7 = gpio_read(WPS_BTN) ? 0 : 1;
    5a82:	60 91 50 20 	lds	r22, 0x2050
    5a86:	70 91 51 20 	lds	r23, 0x2051
    5a8a:	80 91 52 20 	lds	r24, 0x2052
    5a8e:	0e 94 33 0c 	call	0x1866	; 0x1866 <gpio_read>
    5a92:	d8 2f       	mov	r29, r24
			button_status_factory8 = gpio_read(VCHARGE_STAT) ? 0 : 1;
    5a94:	60 91 f9 20 	lds	r22, 0x20F9
    5a98:	70 91 fa 20 	lds	r23, 0x20FA
    5a9c:	80 91 fb 20 	lds	r24, 0x20FB
    5aa0:	0e 94 33 0c 	call	0x1866	; 0x1866 <gpio_read>
    5aa4:	c8 2f       	mov	r28, r24
			button_status_factory9 = gpio_read(MANUAL_BTN) ? 0 : 1;
    5aa6:	60 91 b7 20 	lds	r22, 0x20B7
    5aaa:	70 91 b8 20 	lds	r23, 0x20B8
    5aae:	80 91 b9 20 	lds	r24, 0x20B9
    5ab2:	0e 94 33 0c 	call	0x1866	; 0x1866 <gpio_read>
			{
				button_status_factory = gpio_read(INPUT_LED_CH1) ? 0 : 1;
			}
			
			button_status_factory2 = gpio_read(AC_STAT) ? 0 : 1;
			button_status_factory3 = gpio_read(INPUT_LED_CH2) ? 0 : 1;
    5ab6:	21 e0       	ldi	r18, 0x01	; 1
    5ab8:	d1 10       	cpse	r13, r1
    5aba:	20 e0       	ldi	r18, 0x00	; 0
			while(button_status_factory != 1)
			{
				button_status_factory = gpio_read(INPUT_LED_CH1) ? 0 : 1;
			}
			
			button_status_factory2 = gpio_read(AC_STAT) ? 0 : 1;
    5abc:	91 e0       	ldi	r25, 0x01	; 1
    5abe:	e1 10       	cpse	r14, r1
    5ac0:	90 e0       	ldi	r25, 0x00	; 0
			button_status_factory6 = gpio_read(INPUT_LED_DRV2) ? 0 : 1;
			button_status_factory7 = gpio_read(WPS_BTN) ? 0 : 1;
			button_status_factory8 = gpio_read(VCHARGE_STAT) ? 0 : 1;
			button_status_factory9 = gpio_read(MANUAL_BTN) ? 0 : 1;
			
			if ((button_status_factory2 | button_status_factory3 | button_status_factory4 | button_status_factory5 | button_status_factory6 | button_status_factory7 | button_status_factory8 | button_status_factory9) != 0)
    5ac2:	29 2b       	or	r18, r25
				button_status_factory = gpio_read(INPUT_LED_CH1) ? 0 : 1;
			}
			
			button_status_factory2 = gpio_read(AC_STAT) ? 0 : 1;
			button_status_factory3 = gpio_read(INPUT_LED_CH2) ? 0 : 1;
			button_status_factory4 = gpio_read(INPUT_LED_DRV0) ? 0 : 1;
    5ac4:	91 e0       	ldi	r25, 0x01	; 1
    5ac6:	f1 10       	cpse	r15, r1
    5ac8:	90 e0       	ldi	r25, 0x00	; 0
			button_status_factory6 = gpio_read(INPUT_LED_DRV2) ? 0 : 1;
			button_status_factory7 = gpio_read(WPS_BTN) ? 0 : 1;
			button_status_factory8 = gpio_read(VCHARGE_STAT) ? 0 : 1;
			button_status_factory9 = gpio_read(MANUAL_BTN) ? 0 : 1;
			
			if ((button_status_factory2 | button_status_factory3 | button_status_factory4 | button_status_factory5 | button_status_factory6 | button_status_factory7 | button_status_factory8 | button_status_factory9) != 0)
    5aca:	92 2b       	or	r25, r18
			}
			
			button_status_factory2 = gpio_read(AC_STAT) ? 0 : 1;
			button_status_factory3 = gpio_read(INPUT_LED_CH2) ? 0 : 1;
			button_status_factory4 = gpio_read(INPUT_LED_DRV0) ? 0 : 1;
			button_status_factory5 = gpio_read(INPUT_LED_DRV1) ? 0 : 1;
    5acc:	21 e0       	ldi	r18, 0x01	; 1
    5ace:	01 11       	cpse	r16, r1
    5ad0:	20 e0       	ldi	r18, 0x00	; 0
			button_status_factory6 = gpio_read(INPUT_LED_DRV2) ? 0 : 1;
			button_status_factory7 = gpio_read(WPS_BTN) ? 0 : 1;
			button_status_factory8 = gpio_read(VCHARGE_STAT) ? 0 : 1;
			button_status_factory9 = gpio_read(MANUAL_BTN) ? 0 : 1;
			
			if ((button_status_factory2 | button_status_factory3 | button_status_factory4 | button_status_factory5 | button_status_factory6 | button_status_factory7 | button_status_factory8 | button_status_factory9) != 0)
    5ad2:	29 2b       	or	r18, r25
			
			button_status_factory2 = gpio_read(AC_STAT) ? 0 : 1;
			button_status_factory3 = gpio_read(INPUT_LED_CH2) ? 0 : 1;
			button_status_factory4 = gpio_read(INPUT_LED_DRV0) ? 0 : 1;
			button_status_factory5 = gpio_read(INPUT_LED_DRV1) ? 0 : 1;
			button_status_factory6 = gpio_read(INPUT_LED_DRV2) ? 0 : 1;
    5ad4:	91 e0       	ldi	r25, 0x01	; 1
    5ad6:	11 11       	cpse	r17, r1
    5ad8:	90 e0       	ldi	r25, 0x00	; 0
			button_status_factory7 = gpio_read(WPS_BTN) ? 0 : 1;
			button_status_factory8 = gpio_read(VCHARGE_STAT) ? 0 : 1;
			button_status_factory9 = gpio_read(MANUAL_BTN) ? 0 : 1;
			
			if ((button_status_factory2 | button_status_factory3 | button_status_factory4 | button_status_factory5 | button_status_factory6 | button_status_factory7 | button_status_factory8 | button_status_factory9) != 0)
    5ada:	92 2b       	or	r25, r18
			button_status_factory2 = gpio_read(AC_STAT) ? 0 : 1;
			button_status_factory3 = gpio_read(INPUT_LED_CH2) ? 0 : 1;
			button_status_factory4 = gpio_read(INPUT_LED_DRV0) ? 0 : 1;
			button_status_factory5 = gpio_read(INPUT_LED_DRV1) ? 0 : 1;
			button_status_factory6 = gpio_read(INPUT_LED_DRV2) ? 0 : 1;
			button_status_factory7 = gpio_read(WPS_BTN) ? 0 : 1;
    5adc:	21 e0       	ldi	r18, 0x01	; 1
    5ade:	d1 11       	cpse	r29, r1
    5ae0:	20 e0       	ldi	r18, 0x00	; 0
			button_status_factory8 = gpio_read(VCHARGE_STAT) ? 0 : 1;
			button_status_factory9 = gpio_read(MANUAL_BTN) ? 0 : 1;
			
			if ((button_status_factory2 | button_status_factory3 | button_status_factory4 | button_status_factory5 | button_status_factory6 | button_status_factory7 | button_status_factory8 | button_status_factory9) != 0)
    5ae2:	29 2b       	or	r18, r25
			button_status_factory3 = gpio_read(INPUT_LED_CH2) ? 0 : 1;
			button_status_factory4 = gpio_read(INPUT_LED_DRV0) ? 0 : 1;
			button_status_factory5 = gpio_read(INPUT_LED_DRV1) ? 0 : 1;
			button_status_factory6 = gpio_read(INPUT_LED_DRV2) ? 0 : 1;
			button_status_factory7 = gpio_read(WPS_BTN) ? 0 : 1;
			button_status_factory8 = gpio_read(VCHARGE_STAT) ? 0 : 1;
    5ae4:	91 e0       	ldi	r25, 0x01	; 1
    5ae6:	c1 11       	cpse	r28, r1
    5ae8:	90 e0       	ldi	r25, 0x00	; 0
			button_status_factory9 = gpio_read(MANUAL_BTN) ? 0 : 1;
			
			if ((button_status_factory2 | button_status_factory3 | button_status_factory4 | button_status_factory5 | button_status_factory6 | button_status_factory7 | button_status_factory8 | button_status_factory9) != 0)
    5aea:	92 2b       	or	r25, r18
    5aec:	29 f4       	brne	.+10     	; 0x5af8 <testMode+0x2d2>
			button_status_factory4 = gpio_read(INPUT_LED_DRV0) ? 0 : 1;
			button_status_factory5 = gpio_read(INPUT_LED_DRV1) ? 0 : 1;
			button_status_factory6 = gpio_read(INPUT_LED_DRV2) ? 0 : 1;
			button_status_factory7 = gpio_read(WPS_BTN) ? 0 : 1;
			button_status_factory8 = gpio_read(VCHARGE_STAT) ? 0 : 1;
			button_status_factory9 = gpio_read(MANUAL_BTN) ? 0 : 1;
    5aee:	91 e0       	ldi	r25, 0x01	; 1
    5af0:	81 11       	cpse	r24, r1
    5af2:	90 e0       	ldi	r25, 0x00	; 0
			
			if ((button_status_factory2 | button_status_factory3 | button_status_factory4 | button_status_factory5 | button_status_factory6 | button_status_factory7 | button_status_factory8 | button_status_factory9) != 0)
    5af4:	99 23       	and	r25, r25
    5af6:	49 f0       	breq	.+18     	; 0x5b0a <testMode+0x2e4>
			{
				send_usart_char(" ------FAIL");
    5af8:	89 e8       	ldi	r24, 0x89	; 137
    5afa:	94 e0       	ldi	r25, 0x04	; 4
    5afc:	c4 dc       	rcall	.-1656   	; 0x5486 <send_usart_char>
				send_usart_char("\r\nMultiple Input Turn On ...");
    5afe:	85 e9       	ldi	r24, 0x95	; 149
    5b00:	94 e0       	ldi	r25, 0x04	; 4
    5b02:	c1 dc       	rcall	.-1662   	; 0x5486 <send_usart_char>
				button = button1;
    5b04:	10 92 59 20 	sts	0x2059, r1
    5b08:	8b c4       	rjmp	.+2326   	; 0x6420 <testMode+0xbfa>
			}
			else
			{
				gpio_set(STATUS_LED_2);
    5b0a:	60 91 81 20 	lds	r22, 0x2081
    5b0e:	70 91 82 20 	lds	r23, 0x2082
    5b12:	80 91 83 20 	lds	r24, 0x2083
    5b16:	0e 94 7c 0a 	call	0x14f8	; 0x14f8 <gpio_set>
				send_usart_char(" ------PASS");
    5b1a:	82 eb       	ldi	r24, 0xB2	; 178
    5b1c:	94 e0       	ldi	r25, 0x04	; 4
    5b1e:	b3 dc       	rcall	.-1690   	; 0x5486 <send_usart_char>
				button = button3;
    5b20:	82 e0       	ldi	r24, 0x02	; 2
    5b22:	80 93 59 20 	sts	0x2059, r24
    5b26:	7c c4       	rjmp	.+2296   	; 0x6420 <testMode+0xbfa>
		}
		break;
		
		case button3:
		{
			send_usart_char("\r\nIO Switch ");
    5b28:	8c e7       	ldi	r24, 0x7C	; 124
    5b2a:	94 e0       	ldi	r25, 0x04	; 4
    5b2c:	ac dc       	rcall	.-1704   	; 0x5486 <send_usart_char>
			send_usart_char("3");
    5b2e:	8e e3       	ldi	r24, 0x3E	; 62
    5b30:	92 e0       	ldi	r25, 0x02	; 2
    5b32:	a9 dc       	rcall	.-1710   	; 0x5486 <send_usart_char>
			
			button_status_factory = gpio_read(INPUT_LED_CH2) ? 0 : 1;
    5b34:	60 91 5c 20 	lds	r22, 0x205C
    5b38:	70 91 5d 20 	lds	r23, 0x205D
    5b3c:	80 91 5e 20 	lds	r24, 0x205E
    5b40:	0e 94 33 0c 	call	0x1866	; 0x1866 <gpio_read>
			
			while(button_status_factory != 1)
    5b44:	88 23       	and	r24, r24
    5b46:	51 f0       	breq	.+20     	; 0x5b5c <testMode+0x336>
			{
				button_status_factory = gpio_read(INPUT_LED_CH2) ? 0 : 1;
    5b48:	60 91 5c 20 	lds	r22, 0x205C
    5b4c:	70 91 5d 20 	lds	r23, 0x205D
    5b50:	80 91 5e 20 	lds	r24, 0x205E
    5b54:	0e 94 33 0c 	call	0x1866	; 0x1866 <gpio_read>
			send_usart_char("\r\nIO Switch ");
			send_usart_char("3");
			
			button_status_factory = gpio_read(INPUT_LED_CH2) ? 0 : 1;
			
			while(button_status_factory != 1)
    5b58:	81 11       	cpse	r24, r1
    5b5a:	f6 cf       	rjmp	.-20     	; 0x5b48 <testMode+0x322>
			{
				button_status_factory = gpio_read(INPUT_LED_CH2) ? 0 : 1;
			}
			
			button_status_factory2 = gpio_read(AC_STAT) ? 0 : 1;
    5b5c:	60 91 0e 21 	lds	r22, 0x210E
    5b60:	70 91 0f 21 	lds	r23, 0x210F
    5b64:	80 91 10 21 	lds	r24, 0x2110
    5b68:	0e 94 33 0c 	call	0x1866	; 0x1866 <gpio_read>
    5b6c:	e8 2e       	mov	r14, r24
			button_status_factory3 = gpio_read(INPUT_LED_CH1) ? 0 : 1;
    5b6e:	60 91 09 21 	lds	r22, 0x2109
    5b72:	70 91 0a 21 	lds	r23, 0x210A
    5b76:	80 91 0b 21 	lds	r24, 0x210B
    5b7a:	0e 94 33 0c 	call	0x1866	; 0x1866 <gpio_read>
    5b7e:	d8 2e       	mov	r13, r24
			button_status_factory4 = gpio_read(INPUT_LED_DRV0) ? 0 : 1;
    5b80:	60 91 ba 20 	lds	r22, 0x20BA
    5b84:	70 91 bb 20 	lds	r23, 0x20BB
    5b88:	80 91 bc 20 	lds	r24, 0x20BC
    5b8c:	0e 94 33 0c 	call	0x1866	; 0x1866 <gpio_read>
    5b90:	f8 2e       	mov	r15, r24
			button_status_factory5 = gpio_read(INPUT_LED_DRV1) ? 0 : 1;
    5b92:	60 91 12 20 	lds	r22, 0x2012
    5b96:	70 91 13 20 	lds	r23, 0x2013
    5b9a:	80 91 14 20 	lds	r24, 0x2014
    5b9e:	0e 94 33 0c 	call	0x1866	; 0x1866 <gpio_read>
    5ba2:	08 2f       	mov	r16, r24
			button_status_factory6 = gpio_read(INPUT_LED_DRV2) ? 0 : 1;
    5ba4:	60 91 69 20 	lds	r22, 0x2069
    5ba8:	70 91 6a 20 	lds	r23, 0x206A
    5bac:	80 91 6b 20 	lds	r24, 0x206B
    5bb0:	0e 94 33 0c 	call	0x1866	; 0x1866 <gpio_read>
    5bb4:	18 2f       	mov	r17, r24
			button_status_factory7 = gpio_read(WPS_BTN) ? 0 : 1;
    5bb6:	60 91 50 20 	lds	r22, 0x2050
    5bba:	70 91 51 20 	lds	r23, 0x2051
    5bbe:	80 91 52 20 	lds	r24, 0x2052
    5bc2:	0e 94 33 0c 	call	0x1866	; 0x1866 <gpio_read>
    5bc6:	d8 2f       	mov	r29, r24
			button_status_factory8 = gpio_read(VCHARGE_STAT) ? 0 : 1;
    5bc8:	60 91 f9 20 	lds	r22, 0x20F9
    5bcc:	70 91 fa 20 	lds	r23, 0x20FA
    5bd0:	80 91 fb 20 	lds	r24, 0x20FB
    5bd4:	0e 94 33 0c 	call	0x1866	; 0x1866 <gpio_read>
    5bd8:	c8 2f       	mov	r28, r24
			button_status_factory9 = gpio_read(MANUAL_BTN) ? 0 : 1;
    5bda:	60 91 b7 20 	lds	r22, 0x20B7
    5bde:	70 91 b8 20 	lds	r23, 0x20B8
    5be2:	80 91 b9 20 	lds	r24, 0x20B9
    5be6:	0e 94 33 0c 	call	0x1866	; 0x1866 <gpio_read>
			{
				button_status_factory = gpio_read(INPUT_LED_CH2) ? 0 : 1;
			}
			
			button_status_factory2 = gpio_read(AC_STAT) ? 0 : 1;
			button_status_factory3 = gpio_read(INPUT_LED_CH1) ? 0 : 1;
    5bea:	21 e0       	ldi	r18, 0x01	; 1
    5bec:	d1 10       	cpse	r13, r1
    5bee:	20 e0       	ldi	r18, 0x00	; 0
			while(button_status_factory != 1)
			{
				button_status_factory = gpio_read(INPUT_LED_CH2) ? 0 : 1;
			}
			
			button_status_factory2 = gpio_read(AC_STAT) ? 0 : 1;
    5bf0:	91 e0       	ldi	r25, 0x01	; 1
    5bf2:	e1 10       	cpse	r14, r1
    5bf4:	90 e0       	ldi	r25, 0x00	; 0
			button_status_factory6 = gpio_read(INPUT_LED_DRV2) ? 0 : 1;
			button_status_factory7 = gpio_read(WPS_BTN) ? 0 : 1;
			button_status_factory8 = gpio_read(VCHARGE_STAT) ? 0 : 1;
			button_status_factory9 = gpio_read(MANUAL_BTN) ? 0 : 1;
			
			if ((button_status_factory2 | button_status_factory3 | button_status_factory4 | button_status_factory5 | button_status_factory6 | button_status_factory7 | button_status_factory8 | button_status_factory9) != 0)
    5bf6:	29 2b       	or	r18, r25
				button_status_factory = gpio_read(INPUT_LED_CH2) ? 0 : 1;
			}
			
			button_status_factory2 = gpio_read(AC_STAT) ? 0 : 1;
			button_status_factory3 = gpio_read(INPUT_LED_CH1) ? 0 : 1;
			button_status_factory4 = gpio_read(INPUT_LED_DRV0) ? 0 : 1;
    5bf8:	91 e0       	ldi	r25, 0x01	; 1
    5bfa:	f1 10       	cpse	r15, r1
    5bfc:	90 e0       	ldi	r25, 0x00	; 0
			button_status_factory6 = gpio_read(INPUT_LED_DRV2) ? 0 : 1;
			button_status_factory7 = gpio_read(WPS_BTN) ? 0 : 1;
			button_status_factory8 = gpio_read(VCHARGE_STAT) ? 0 : 1;
			button_status_factory9 = gpio_read(MANUAL_BTN) ? 0 : 1;
			
			if ((button_status_factory2 | button_status_factory3 | button_status_factory4 | button_status_factory5 | button_status_factory6 | button_status_factory7 | button_status_factory8 | button_status_factory9) != 0)
    5bfe:	92 2b       	or	r25, r18
			}
			
			button_status_factory2 = gpio_read(AC_STAT) ? 0 : 1;
			button_status_factory3 = gpio_read(INPUT_LED_CH1) ? 0 : 1;
			button_status_factory4 = gpio_read(INPUT_LED_DRV0) ? 0 : 1;
			button_status_factory5 = gpio_read(INPUT_LED_DRV1) ? 0 : 1;
    5c00:	21 e0       	ldi	r18, 0x01	; 1
    5c02:	01 11       	cpse	r16, r1
    5c04:	20 e0       	ldi	r18, 0x00	; 0
			button_status_factory6 = gpio_read(INPUT_LED_DRV2) ? 0 : 1;
			button_status_factory7 = gpio_read(WPS_BTN) ? 0 : 1;
			button_status_factory8 = gpio_read(VCHARGE_STAT) ? 0 : 1;
			button_status_factory9 = gpio_read(MANUAL_BTN) ? 0 : 1;
			
			if ((button_status_factory2 | button_status_factory3 | button_status_factory4 | button_status_factory5 | button_status_factory6 | button_status_factory7 | button_status_factory8 | button_status_factory9) != 0)
    5c06:	29 2b       	or	r18, r25
			
			button_status_factory2 = gpio_read(AC_STAT) ? 0 : 1;
			button_status_factory3 = gpio_read(INPUT_LED_CH1) ? 0 : 1;
			button_status_factory4 = gpio_read(INPUT_LED_DRV0) ? 0 : 1;
			button_status_factory5 = gpio_read(INPUT_LED_DRV1) ? 0 : 1;
			button_status_factory6 = gpio_read(INPUT_LED_DRV2) ? 0 : 1;
    5c08:	91 e0       	ldi	r25, 0x01	; 1
    5c0a:	11 11       	cpse	r17, r1
    5c0c:	90 e0       	ldi	r25, 0x00	; 0
			button_status_factory7 = gpio_read(WPS_BTN) ? 0 : 1;
			button_status_factory8 = gpio_read(VCHARGE_STAT) ? 0 : 1;
			button_status_factory9 = gpio_read(MANUAL_BTN) ? 0 : 1;
			
			if ((button_status_factory2 | button_status_factory3 | button_status_factory4 | button_status_factory5 | button_status_factory6 | button_status_factory7 | button_status_factory8 | button_status_factory9) != 0)
    5c0e:	92 2b       	or	r25, r18
			button_status_factory2 = gpio_read(AC_STAT) ? 0 : 1;
			button_status_factory3 = gpio_read(INPUT_LED_CH1) ? 0 : 1;
			button_status_factory4 = gpio_read(INPUT_LED_DRV0) ? 0 : 1;
			button_status_factory5 = gpio_read(INPUT_LED_DRV1) ? 0 : 1;
			button_status_factory6 = gpio_read(INPUT_LED_DRV2) ? 0 : 1;
			button_status_factory7 = gpio_read(WPS_BTN) ? 0 : 1;
    5c10:	21 e0       	ldi	r18, 0x01	; 1
    5c12:	d1 11       	cpse	r29, r1
    5c14:	20 e0       	ldi	r18, 0x00	; 0
			button_status_factory8 = gpio_read(VCHARGE_STAT) ? 0 : 1;
			button_status_factory9 = gpio_read(MANUAL_BTN) ? 0 : 1;
			
			if ((button_status_factory2 | button_status_factory3 | button_status_factory4 | button_status_factory5 | button_status_factory6 | button_status_factory7 | button_status_factory8 | button_status_factory9) != 0)
    5c16:	29 2b       	or	r18, r25
			button_status_factory3 = gpio_read(INPUT_LED_CH1) ? 0 : 1;
			button_status_factory4 = gpio_read(INPUT_LED_DRV0) ? 0 : 1;
			button_status_factory5 = gpio_read(INPUT_LED_DRV1) ? 0 : 1;
			button_status_factory6 = gpio_read(INPUT_LED_DRV2) ? 0 : 1;
			button_status_factory7 = gpio_read(WPS_BTN) ? 0 : 1;
			button_status_factory8 = gpio_read(VCHARGE_STAT) ? 0 : 1;
    5c18:	91 e0       	ldi	r25, 0x01	; 1
    5c1a:	c1 11       	cpse	r28, r1
    5c1c:	90 e0       	ldi	r25, 0x00	; 0
			button_status_factory9 = gpio_read(MANUAL_BTN) ? 0 : 1;
			
			if ((button_status_factory2 | button_status_factory3 | button_status_factory4 | button_status_factory5 | button_status_factory6 | button_status_factory7 | button_status_factory8 | button_status_factory9) != 0)
    5c1e:	92 2b       	or	r25, r18
    5c20:	29 f4       	brne	.+10     	; 0x5c2c <testMode+0x406>
			button_status_factory4 = gpio_read(INPUT_LED_DRV0) ? 0 : 1;
			button_status_factory5 = gpio_read(INPUT_LED_DRV1) ? 0 : 1;
			button_status_factory6 = gpio_read(INPUT_LED_DRV2) ? 0 : 1;
			button_status_factory7 = gpio_read(WPS_BTN) ? 0 : 1;
			button_status_factory8 = gpio_read(VCHARGE_STAT) ? 0 : 1;
			button_status_factory9 = gpio_read(MANUAL_BTN) ? 0 : 1;
    5c22:	91 e0       	ldi	r25, 0x01	; 1
    5c24:	81 11       	cpse	r24, r1
    5c26:	90 e0       	ldi	r25, 0x00	; 0
			
			if ((button_status_factory2 | button_status_factory3 | button_status_factory4 | button_status_factory5 | button_status_factory6 | button_status_factory7 | button_status_factory8 | button_status_factory9) != 0)
    5c28:	99 23       	and	r25, r25
    5c2a:	49 f0       	breq	.+18     	; 0x5c3e <testMode+0x418>
			{
				send_usart_char(" ------FAIL");
    5c2c:	89 e8       	ldi	r24, 0x89	; 137
    5c2e:	94 e0       	ldi	r25, 0x04	; 4
    5c30:	2a dc       	rcall	.-1964   	; 0x5486 <send_usart_char>
				send_usart_char("\r\nMultiple Input Turn On ...");
    5c32:	85 e9       	ldi	r24, 0x95	; 149
    5c34:	94 e0       	ldi	r25, 0x04	; 4
    5c36:	27 dc       	rcall	.-1970   	; 0x5486 <send_usart_char>
				button = button1;
    5c38:	10 92 59 20 	sts	0x2059, r1
    5c3c:	f1 c3       	rjmp	.+2018   	; 0x6420 <testMode+0xbfa>
			}
			else
			{
				gpio_set(CHARGING_DISABLE);
    5c3e:	60 91 93 20 	lds	r22, 0x2093
    5c42:	70 91 94 20 	lds	r23, 0x2094
    5c46:	80 91 95 20 	lds	r24, 0x2095
    5c4a:	0e 94 7c 0a 	call	0x14f8	; 0x14f8 <gpio_set>
				send_usart_char(" ------PASS");
    5c4e:	82 eb       	ldi	r24, 0xB2	; 178
    5c50:	94 e0       	ldi	r25, 0x04	; 4
    5c52:	19 dc       	rcall	.-1998   	; 0x5486 <send_usart_char>
				button = button4;
    5c54:	83 e0       	ldi	r24, 0x03	; 3
    5c56:	80 93 59 20 	sts	0x2059, r24
    5c5a:	e2 c3       	rjmp	.+1988   	; 0x6420 <testMode+0xbfa>
		}
		break;
		
		case button4:
		{
			send_usart_char("\r\nIO Switch ");
    5c5c:	8c e7       	ldi	r24, 0x7C	; 124
    5c5e:	94 e0       	ldi	r25, 0x04	; 4
    5c60:	12 dc       	rcall	.-2012   	; 0x5486 <send_usart_char>
			send_usart_char("4");
    5c62:	80 ec       	ldi	r24, 0xC0	; 192
    5c64:	94 e0       	ldi	r25, 0x04	; 4
    5c66:	0f dc       	rcall	.-2018   	; 0x5486 <send_usart_char>
			
			button_status_factory = gpio_read(INPUT_LED_DRV0) ? 0 : 1;
    5c68:	60 91 ba 20 	lds	r22, 0x20BA
    5c6c:	70 91 bb 20 	lds	r23, 0x20BB
    5c70:	80 91 bc 20 	lds	r24, 0x20BC
    5c74:	0e 94 33 0c 	call	0x1866	; 0x1866 <gpio_read>
			
			while(button_status_factory != 1)
    5c78:	88 23       	and	r24, r24
    5c7a:	51 f0       	breq	.+20     	; 0x5c90 <testMode+0x46a>
			{
				button_status_factory = gpio_read(INPUT_LED_DRV0) ? 0 : 1;
    5c7c:	60 91 ba 20 	lds	r22, 0x20BA
    5c80:	70 91 bb 20 	lds	r23, 0x20BB
    5c84:	80 91 bc 20 	lds	r24, 0x20BC
    5c88:	0e 94 33 0c 	call	0x1866	; 0x1866 <gpio_read>
			send_usart_char("\r\nIO Switch ");
			send_usart_char("4");
			
			button_status_factory = gpio_read(INPUT_LED_DRV0) ? 0 : 1;
			
			while(button_status_factory != 1)
    5c8c:	81 11       	cpse	r24, r1
    5c8e:	f6 cf       	rjmp	.-20     	; 0x5c7c <testMode+0x456>
			{
				button_status_factory = gpio_read(INPUT_LED_DRV0) ? 0 : 1;
			}
			
			button_status_factory2 = gpio_read(AC_STAT) ? 0 : 1;
    5c90:	60 91 0e 21 	lds	r22, 0x210E
    5c94:	70 91 0f 21 	lds	r23, 0x210F
    5c98:	80 91 10 21 	lds	r24, 0x2110
    5c9c:	0e 94 33 0c 	call	0x1866	; 0x1866 <gpio_read>
    5ca0:	e8 2e       	mov	r14, r24
			button_status_factory3 = gpio_read(INPUT_LED_CH1) ? 0 : 1;
    5ca2:	60 91 09 21 	lds	r22, 0x2109
    5ca6:	70 91 0a 21 	lds	r23, 0x210A
    5caa:	80 91 0b 21 	lds	r24, 0x210B
    5cae:	0e 94 33 0c 	call	0x1866	; 0x1866 <gpio_read>
    5cb2:	d8 2e       	mov	r13, r24
			button_status_factory4 = gpio_read(INPUT_LED_CH2) ? 0 : 1;
    5cb4:	60 91 5c 20 	lds	r22, 0x205C
    5cb8:	70 91 5d 20 	lds	r23, 0x205D
    5cbc:	80 91 5e 20 	lds	r24, 0x205E
    5cc0:	0e 94 33 0c 	call	0x1866	; 0x1866 <gpio_read>
    5cc4:	f8 2e       	mov	r15, r24
			button_status_factory5 = gpio_read(INPUT_LED_DRV1) ? 0 : 1;
    5cc6:	60 91 12 20 	lds	r22, 0x2012
    5cca:	70 91 13 20 	lds	r23, 0x2013
    5cce:	80 91 14 20 	lds	r24, 0x2014
    5cd2:	0e 94 33 0c 	call	0x1866	; 0x1866 <gpio_read>
    5cd6:	08 2f       	mov	r16, r24
			button_status_factory6 = gpio_read(INPUT_LED_DRV2) ? 0 : 1;
    5cd8:	60 91 69 20 	lds	r22, 0x2069
    5cdc:	70 91 6a 20 	lds	r23, 0x206A
    5ce0:	80 91 6b 20 	lds	r24, 0x206B
    5ce4:	0e 94 33 0c 	call	0x1866	; 0x1866 <gpio_read>
    5ce8:	18 2f       	mov	r17, r24
			button_status_factory7 = gpio_read(WPS_BTN) ? 0 : 1;
    5cea:	60 91 50 20 	lds	r22, 0x2050
    5cee:	70 91 51 20 	lds	r23, 0x2051
    5cf2:	80 91 52 20 	lds	r24, 0x2052
    5cf6:	0e 94 33 0c 	call	0x1866	; 0x1866 <gpio_read>
    5cfa:	d8 2f       	mov	r29, r24
			button_status_factory8 = gpio_read(VCHARGE_STAT) ? 0 : 1;
    5cfc:	60 91 f9 20 	lds	r22, 0x20F9
    5d00:	70 91 fa 20 	lds	r23, 0x20FA
    5d04:	80 91 fb 20 	lds	r24, 0x20FB
    5d08:	0e 94 33 0c 	call	0x1866	; 0x1866 <gpio_read>
    5d0c:	c8 2f       	mov	r28, r24
			button_status_factory9 = gpio_read(MANUAL_BTN) ? 0 : 1;
    5d0e:	60 91 b7 20 	lds	r22, 0x20B7
    5d12:	70 91 b8 20 	lds	r23, 0x20B8
    5d16:	80 91 b9 20 	lds	r24, 0x20B9
    5d1a:	0e 94 33 0c 	call	0x1866	; 0x1866 <gpio_read>
			{
				button_status_factory = gpio_read(INPUT_LED_DRV0) ? 0 : 1;
			}
			
			button_status_factory2 = gpio_read(AC_STAT) ? 0 : 1;
			button_status_factory3 = gpio_read(INPUT_LED_CH1) ? 0 : 1;
    5d1e:	21 e0       	ldi	r18, 0x01	; 1
    5d20:	d1 10       	cpse	r13, r1
    5d22:	20 e0       	ldi	r18, 0x00	; 0
			while(button_status_factory != 1)
			{
				button_status_factory = gpio_read(INPUT_LED_DRV0) ? 0 : 1;
			}
			
			button_status_factory2 = gpio_read(AC_STAT) ? 0 : 1;
    5d24:	91 e0       	ldi	r25, 0x01	; 1
    5d26:	e1 10       	cpse	r14, r1
    5d28:	90 e0       	ldi	r25, 0x00	; 0
			button_status_factory6 = gpio_read(INPUT_LED_DRV2) ? 0 : 1;
			button_status_factory7 = gpio_read(WPS_BTN) ? 0 : 1;
			button_status_factory8 = gpio_read(VCHARGE_STAT) ? 0 : 1;
			button_status_factory9 = gpio_read(MANUAL_BTN) ? 0 : 1;
			
			if ((button_status_factory2 | button_status_factory3 | button_status_factory4 | button_status_factory5 | button_status_factory6 | button_status_factory7 | button_status_factory8 | button_status_factory9) != 0)
    5d2a:	29 2b       	or	r18, r25
				button_status_factory = gpio_read(INPUT_LED_DRV0) ? 0 : 1;
			}
			
			button_status_factory2 = gpio_read(AC_STAT) ? 0 : 1;
			button_status_factory3 = gpio_read(INPUT_LED_CH1) ? 0 : 1;
			button_status_factory4 = gpio_read(INPUT_LED_CH2) ? 0 : 1;
    5d2c:	91 e0       	ldi	r25, 0x01	; 1
    5d2e:	f1 10       	cpse	r15, r1
    5d30:	90 e0       	ldi	r25, 0x00	; 0
			button_status_factory6 = gpio_read(INPUT_LED_DRV2) ? 0 : 1;
			button_status_factory7 = gpio_read(WPS_BTN) ? 0 : 1;
			button_status_factory8 = gpio_read(VCHARGE_STAT) ? 0 : 1;
			button_status_factory9 = gpio_read(MANUAL_BTN) ? 0 : 1;
			
			if ((button_status_factory2 | button_status_factory3 | button_status_factory4 | button_status_factory5 | button_status_factory6 | button_status_factory7 | button_status_factory8 | button_status_factory9) != 0)
    5d32:	92 2b       	or	r25, r18
			}
			
			button_status_factory2 = gpio_read(AC_STAT) ? 0 : 1;
			button_status_factory3 = gpio_read(INPUT_LED_CH1) ? 0 : 1;
			button_status_factory4 = gpio_read(INPUT_LED_CH2) ? 0 : 1;
			button_status_factory5 = gpio_read(INPUT_LED_DRV1) ? 0 : 1;
    5d34:	21 e0       	ldi	r18, 0x01	; 1
    5d36:	01 11       	cpse	r16, r1
    5d38:	20 e0       	ldi	r18, 0x00	; 0
			button_status_factory6 = gpio_read(INPUT_LED_DRV2) ? 0 : 1;
			button_status_factory7 = gpio_read(WPS_BTN) ? 0 : 1;
			button_status_factory8 = gpio_read(VCHARGE_STAT) ? 0 : 1;
			button_status_factory9 = gpio_read(MANUAL_BTN) ? 0 : 1;
			
			if ((button_status_factory2 | button_status_factory3 | button_status_factory4 | button_status_factory5 | button_status_factory6 | button_status_factory7 | button_status_factory8 | button_status_factory9) != 0)
    5d3a:	29 2b       	or	r18, r25
			
			button_status_factory2 = gpio_read(AC_STAT) ? 0 : 1;
			button_status_factory3 = gpio_read(INPUT_LED_CH1) ? 0 : 1;
			button_status_factory4 = gpio_read(INPUT_LED_CH2) ? 0 : 1;
			button_status_factory5 = gpio_read(INPUT_LED_DRV1) ? 0 : 1;
			button_status_factory6 = gpio_read(INPUT_LED_DRV2) ? 0 : 1;
    5d3c:	91 e0       	ldi	r25, 0x01	; 1
    5d3e:	11 11       	cpse	r17, r1
    5d40:	90 e0       	ldi	r25, 0x00	; 0
			button_status_factory7 = gpio_read(WPS_BTN) ? 0 : 1;
			button_status_factory8 = gpio_read(VCHARGE_STAT) ? 0 : 1;
			button_status_factory9 = gpio_read(MANUAL_BTN) ? 0 : 1;
			
			if ((button_status_factory2 | button_status_factory3 | button_status_factory4 | button_status_factory5 | button_status_factory6 | button_status_factory7 | button_status_factory8 | button_status_factory9) != 0)
    5d42:	92 2b       	or	r25, r18
			button_status_factory2 = gpio_read(AC_STAT) ? 0 : 1;
			button_status_factory3 = gpio_read(INPUT_LED_CH1) ? 0 : 1;
			button_status_factory4 = gpio_read(INPUT_LED_CH2) ? 0 : 1;
			button_status_factory5 = gpio_read(INPUT_LED_DRV1) ? 0 : 1;
			button_status_factory6 = gpio_read(INPUT_LED_DRV2) ? 0 : 1;
			button_status_factory7 = gpio_read(WPS_BTN) ? 0 : 1;
    5d44:	21 e0       	ldi	r18, 0x01	; 1
    5d46:	d1 11       	cpse	r29, r1
    5d48:	20 e0       	ldi	r18, 0x00	; 0
			button_status_factory8 = gpio_read(VCHARGE_STAT) ? 0 : 1;
			button_status_factory9 = gpio_read(MANUAL_BTN) ? 0 : 1;
			
			if ((button_status_factory2 | button_status_factory3 | button_status_factory4 | button_status_factory5 | button_status_factory6 | button_status_factory7 | button_status_factory8 | button_status_factory9) != 0)
    5d4a:	29 2b       	or	r18, r25
			button_status_factory3 = gpio_read(INPUT_LED_CH1) ? 0 : 1;
			button_status_factory4 = gpio_read(INPUT_LED_CH2) ? 0 : 1;
			button_status_factory5 = gpio_read(INPUT_LED_DRV1) ? 0 : 1;
			button_status_factory6 = gpio_read(INPUT_LED_DRV2) ? 0 : 1;
			button_status_factory7 = gpio_read(WPS_BTN) ? 0 : 1;
			button_status_factory8 = gpio_read(VCHARGE_STAT) ? 0 : 1;
    5d4c:	91 e0       	ldi	r25, 0x01	; 1
    5d4e:	c1 11       	cpse	r28, r1
    5d50:	90 e0       	ldi	r25, 0x00	; 0
			button_status_factory9 = gpio_read(MANUAL_BTN) ? 0 : 1;
			
			if ((button_status_factory2 | button_status_factory3 | button_status_factory4 | button_status_factory5 | button_status_factory6 | button_status_factory7 | button_status_factory8 | button_status_factory9) != 0)
    5d52:	92 2b       	or	r25, r18
    5d54:	29 f4       	brne	.+10     	; 0x5d60 <testMode+0x53a>
			button_status_factory4 = gpio_read(INPUT_LED_CH2) ? 0 : 1;
			button_status_factory5 = gpio_read(INPUT_LED_DRV1) ? 0 : 1;
			button_status_factory6 = gpio_read(INPUT_LED_DRV2) ? 0 : 1;
			button_status_factory7 = gpio_read(WPS_BTN) ? 0 : 1;
			button_status_factory8 = gpio_read(VCHARGE_STAT) ? 0 : 1;
			button_status_factory9 = gpio_read(MANUAL_BTN) ? 0 : 1;
    5d56:	91 e0       	ldi	r25, 0x01	; 1
    5d58:	81 11       	cpse	r24, r1
    5d5a:	90 e0       	ldi	r25, 0x00	; 0
			
			if ((button_status_factory2 | button_status_factory3 | button_status_factory4 | button_status_factory5 | button_status_factory6 | button_status_factory7 | button_status_factory8 | button_status_factory9) != 0)
    5d5c:	99 23       	and	r25, r25
    5d5e:	49 f0       	breq	.+18     	; 0x5d72 <testMode+0x54c>
			{
				send_usart_char(" ------FAIL");
    5d60:	89 e8       	ldi	r24, 0x89	; 137
    5d62:	94 e0       	ldi	r25, 0x04	; 4
    5d64:	90 db       	rcall	.-2272   	; 0x5486 <send_usart_char>
				send_usart_char("\r\nMultiple Input Turn On ...");
    5d66:	85 e9       	ldi	r24, 0x95	; 149
    5d68:	94 e0       	ldi	r25, 0x04	; 4
    5d6a:	8d db       	rcall	.-2278   	; 0x5486 <send_usart_char>
				button = button1;
    5d6c:	10 92 59 20 	sts	0x2059, r1
    5d70:	57 c3       	rjmp	.+1710   	; 0x6420 <testMode+0xbfa>
			}
			else
			{
				gpio_set(EMER_LIGHT_EN);
    5d72:	60 91 63 20 	lds	r22, 0x2063
    5d76:	70 91 64 20 	lds	r23, 0x2064
    5d7a:	80 91 65 20 	lds	r24, 0x2065
    5d7e:	0e 94 7c 0a 	call	0x14f8	; 0x14f8 <gpio_set>
				send_usart_char(" ------PASS");
    5d82:	82 eb       	ldi	r24, 0xB2	; 178
    5d84:	94 e0       	ldi	r25, 0x04	; 4
    5d86:	7f db       	rcall	.-2306   	; 0x5486 <send_usart_char>
				button = button5;
    5d88:	84 e0       	ldi	r24, 0x04	; 4
    5d8a:	80 93 59 20 	sts	0x2059, r24
    5d8e:	48 c3       	rjmp	.+1680   	; 0x6420 <testMode+0xbfa>
		}
		break;
		
		case button5:
		{
			send_usart_char("\r\nIO Switch ");
    5d90:	8c e7       	ldi	r24, 0x7C	; 124
    5d92:	94 e0       	ldi	r25, 0x04	; 4
    5d94:	78 db       	rcall	.-2320   	; 0x5486 <send_usart_char>
			send_usart_char("5");
    5d96:	82 ec       	ldi	r24, 0xC2	; 194
    5d98:	94 e0       	ldi	r25, 0x04	; 4
    5d9a:	75 db       	rcall	.-2326   	; 0x5486 <send_usart_char>
			
			button_status_factory = gpio_read(INPUT_LED_DRV1) ? 0 : 1;
    5d9c:	60 91 12 20 	lds	r22, 0x2012
    5da0:	70 91 13 20 	lds	r23, 0x2013
    5da4:	80 91 14 20 	lds	r24, 0x2014
    5da8:	0e 94 33 0c 	call	0x1866	; 0x1866 <gpio_read>
			
			while(button_status_factory != 1)
    5dac:	88 23       	and	r24, r24
    5dae:	51 f0       	breq	.+20     	; 0x5dc4 <testMode+0x59e>
			{
				button_status_factory = gpio_read(INPUT_LED_DRV1) ? 0 : 1;
    5db0:	60 91 12 20 	lds	r22, 0x2012
    5db4:	70 91 13 20 	lds	r23, 0x2013
    5db8:	80 91 14 20 	lds	r24, 0x2014
    5dbc:	0e 94 33 0c 	call	0x1866	; 0x1866 <gpio_read>
			send_usart_char("\r\nIO Switch ");
			send_usart_char("5");
			
			button_status_factory = gpio_read(INPUT_LED_DRV1) ? 0 : 1;
			
			while(button_status_factory != 1)
    5dc0:	81 11       	cpse	r24, r1
    5dc2:	f6 cf       	rjmp	.-20     	; 0x5db0 <testMode+0x58a>
			{
				button_status_factory = gpio_read(INPUT_LED_DRV1) ? 0 : 1;
			}
			
			button_status_factory2 = gpio_read(AC_STAT) ? 0 : 1;
    5dc4:	60 91 0e 21 	lds	r22, 0x210E
    5dc8:	70 91 0f 21 	lds	r23, 0x210F
    5dcc:	80 91 10 21 	lds	r24, 0x2110
    5dd0:	0e 94 33 0c 	call	0x1866	; 0x1866 <gpio_read>
    5dd4:	e8 2e       	mov	r14, r24
			button_status_factory3 = gpio_read(INPUT_LED_CH1) ? 0 : 1;
    5dd6:	60 91 09 21 	lds	r22, 0x2109
    5dda:	70 91 0a 21 	lds	r23, 0x210A
    5dde:	80 91 0b 21 	lds	r24, 0x210B
    5de2:	0e 94 33 0c 	call	0x1866	; 0x1866 <gpio_read>
    5de6:	d8 2e       	mov	r13, r24
			button_status_factory4 = gpio_read(INPUT_LED_CH2) ? 0 : 1;
    5de8:	60 91 5c 20 	lds	r22, 0x205C
    5dec:	70 91 5d 20 	lds	r23, 0x205D
    5df0:	80 91 5e 20 	lds	r24, 0x205E
    5df4:	0e 94 33 0c 	call	0x1866	; 0x1866 <gpio_read>
    5df8:	f8 2e       	mov	r15, r24
			button_status_factory5 = gpio_read(INPUT_LED_DRV0) ? 0 : 1;
    5dfa:	60 91 ba 20 	lds	r22, 0x20BA
    5dfe:	70 91 bb 20 	lds	r23, 0x20BB
    5e02:	80 91 bc 20 	lds	r24, 0x20BC
    5e06:	0e 94 33 0c 	call	0x1866	; 0x1866 <gpio_read>
    5e0a:	08 2f       	mov	r16, r24
			button_status_factory6 = gpio_read(INPUT_LED_DRV2) ? 0 : 1;
    5e0c:	60 91 69 20 	lds	r22, 0x2069
    5e10:	70 91 6a 20 	lds	r23, 0x206A
    5e14:	80 91 6b 20 	lds	r24, 0x206B
    5e18:	0e 94 33 0c 	call	0x1866	; 0x1866 <gpio_read>
    5e1c:	18 2f       	mov	r17, r24
			button_status_factory7 = gpio_read(WPS_BTN) ? 0 : 1;
    5e1e:	60 91 50 20 	lds	r22, 0x2050
    5e22:	70 91 51 20 	lds	r23, 0x2051
    5e26:	80 91 52 20 	lds	r24, 0x2052
    5e2a:	0e 94 33 0c 	call	0x1866	; 0x1866 <gpio_read>
    5e2e:	d8 2f       	mov	r29, r24
			button_status_factory8 = gpio_read(VCHARGE_STAT) ? 0 : 1;
    5e30:	60 91 f9 20 	lds	r22, 0x20F9
    5e34:	70 91 fa 20 	lds	r23, 0x20FA
    5e38:	80 91 fb 20 	lds	r24, 0x20FB
    5e3c:	0e 94 33 0c 	call	0x1866	; 0x1866 <gpio_read>
    5e40:	c8 2f       	mov	r28, r24
			button_status_factory9 = gpio_read(MANUAL_BTN) ? 0 : 1;
    5e42:	60 91 b7 20 	lds	r22, 0x20B7
    5e46:	70 91 b8 20 	lds	r23, 0x20B8
    5e4a:	80 91 b9 20 	lds	r24, 0x20B9
    5e4e:	0e 94 33 0c 	call	0x1866	; 0x1866 <gpio_read>
			{
				button_status_factory = gpio_read(INPUT_LED_DRV1) ? 0 : 1;
			}
			
			button_status_factory2 = gpio_read(AC_STAT) ? 0 : 1;
			button_status_factory3 = gpio_read(INPUT_LED_CH1) ? 0 : 1;
    5e52:	21 e0       	ldi	r18, 0x01	; 1
    5e54:	d1 10       	cpse	r13, r1
    5e56:	20 e0       	ldi	r18, 0x00	; 0
			while(button_status_factory != 1)
			{
				button_status_factory = gpio_read(INPUT_LED_DRV1) ? 0 : 1;
			}
			
			button_status_factory2 = gpio_read(AC_STAT) ? 0 : 1;
    5e58:	91 e0       	ldi	r25, 0x01	; 1
    5e5a:	e1 10       	cpse	r14, r1
    5e5c:	90 e0       	ldi	r25, 0x00	; 0
			button_status_factory6 = gpio_read(INPUT_LED_DRV2) ? 0 : 1;
			button_status_factory7 = gpio_read(WPS_BTN) ? 0 : 1;
			button_status_factory8 = gpio_read(VCHARGE_STAT) ? 0 : 1;
			button_status_factory9 = gpio_read(MANUAL_BTN) ? 0 : 1;
			
			if ((button_status_factory2 | button_status_factory3 | button_status_factory4 | button_status_factory5 | button_status_factory6 | button_status_factory7 | button_status_factory8 | button_status_factory9) != 0)
    5e5e:	29 2b       	or	r18, r25
				button_status_factory = gpio_read(INPUT_LED_DRV1) ? 0 : 1;
			}
			
			button_status_factory2 = gpio_read(AC_STAT) ? 0 : 1;
			button_status_factory3 = gpio_read(INPUT_LED_CH1) ? 0 : 1;
			button_status_factory4 = gpio_read(INPUT_LED_CH2) ? 0 : 1;
    5e60:	91 e0       	ldi	r25, 0x01	; 1
    5e62:	f1 10       	cpse	r15, r1
    5e64:	90 e0       	ldi	r25, 0x00	; 0
			button_status_factory6 = gpio_read(INPUT_LED_DRV2) ? 0 : 1;
			button_status_factory7 = gpio_read(WPS_BTN) ? 0 : 1;
			button_status_factory8 = gpio_read(VCHARGE_STAT) ? 0 : 1;
			button_status_factory9 = gpio_read(MANUAL_BTN) ? 0 : 1;
			
			if ((button_status_factory2 | button_status_factory3 | button_status_factory4 | button_status_factory5 | button_status_factory6 | button_status_factory7 | button_status_factory8 | button_status_factory9) != 0)
    5e66:	92 2b       	or	r25, r18
			}
			
			button_status_factory2 = gpio_read(AC_STAT) ? 0 : 1;
			button_status_factory3 = gpio_read(INPUT_LED_CH1) ? 0 : 1;
			button_status_factory4 = gpio_read(INPUT_LED_CH2) ? 0 : 1;
			button_status_factory5 = gpio_read(INPUT_LED_DRV0) ? 0 : 1;
    5e68:	21 e0       	ldi	r18, 0x01	; 1
    5e6a:	01 11       	cpse	r16, r1
    5e6c:	20 e0       	ldi	r18, 0x00	; 0
			button_status_factory6 = gpio_read(INPUT_LED_DRV2) ? 0 : 1;
			button_status_factory7 = gpio_read(WPS_BTN) ? 0 : 1;
			button_status_factory8 = gpio_read(VCHARGE_STAT) ? 0 : 1;
			button_status_factory9 = gpio_read(MANUAL_BTN) ? 0 : 1;
			
			if ((button_status_factory2 | button_status_factory3 | button_status_factory4 | button_status_factory5 | button_status_factory6 | button_status_factory7 | button_status_factory8 | button_status_factory9) != 0)
    5e6e:	29 2b       	or	r18, r25
			
			button_status_factory2 = gpio_read(AC_STAT) ? 0 : 1;
			button_status_factory3 = gpio_read(INPUT_LED_CH1) ? 0 : 1;
			button_status_factory4 = gpio_read(INPUT_LED_CH2) ? 0 : 1;
			button_status_factory5 = gpio_read(INPUT_LED_DRV0) ? 0 : 1;
			button_status_factory6 = gpio_read(INPUT_LED_DRV2) ? 0 : 1;
    5e70:	91 e0       	ldi	r25, 0x01	; 1
    5e72:	11 11       	cpse	r17, r1
    5e74:	90 e0       	ldi	r25, 0x00	; 0
			button_status_factory7 = gpio_read(WPS_BTN) ? 0 : 1;
			button_status_factory8 = gpio_read(VCHARGE_STAT) ? 0 : 1;
			button_status_factory9 = gpio_read(MANUAL_BTN) ? 0 : 1;
			
			if ((button_status_factory2 | button_status_factory3 | button_status_factory4 | button_status_factory5 | button_status_factory6 | button_status_factory7 | button_status_factory8 | button_status_factory9) != 0)
    5e76:	92 2b       	or	r25, r18
			button_status_factory2 = gpio_read(AC_STAT) ? 0 : 1;
			button_status_factory3 = gpio_read(INPUT_LED_CH1) ? 0 : 1;
			button_status_factory4 = gpio_read(INPUT_LED_CH2) ? 0 : 1;
			button_status_factory5 = gpio_read(INPUT_LED_DRV0) ? 0 : 1;
			button_status_factory6 = gpio_read(INPUT_LED_DRV2) ? 0 : 1;
			button_status_factory7 = gpio_read(WPS_BTN) ? 0 : 1;
    5e78:	21 e0       	ldi	r18, 0x01	; 1
    5e7a:	d1 11       	cpse	r29, r1
    5e7c:	20 e0       	ldi	r18, 0x00	; 0
			button_status_factory8 = gpio_read(VCHARGE_STAT) ? 0 : 1;
			button_status_factory9 = gpio_read(MANUAL_BTN) ? 0 : 1;
			
			if ((button_status_factory2 | button_status_factory3 | button_status_factory4 | button_status_factory5 | button_status_factory6 | button_status_factory7 | button_status_factory8 | button_status_factory9) != 0)
    5e7e:	29 2b       	or	r18, r25
			button_status_factory3 = gpio_read(INPUT_LED_CH1) ? 0 : 1;
			button_status_factory4 = gpio_read(INPUT_LED_CH2) ? 0 : 1;
			button_status_factory5 = gpio_read(INPUT_LED_DRV0) ? 0 : 1;
			button_status_factory6 = gpio_read(INPUT_LED_DRV2) ? 0 : 1;
			button_status_factory7 = gpio_read(WPS_BTN) ? 0 : 1;
			button_status_factory8 = gpio_read(VCHARGE_STAT) ? 0 : 1;
    5e80:	91 e0       	ldi	r25, 0x01	; 1
    5e82:	c1 11       	cpse	r28, r1
    5e84:	90 e0       	ldi	r25, 0x00	; 0
			button_status_factory9 = gpio_read(MANUAL_BTN) ? 0 : 1;
			
			if ((button_status_factory2 | button_status_factory3 | button_status_factory4 | button_status_factory5 | button_status_factory6 | button_status_factory7 | button_status_factory8 | button_status_factory9) != 0)
    5e86:	92 2b       	or	r25, r18
    5e88:	29 f4       	brne	.+10     	; 0x5e94 <testMode+0x66e>
			button_status_factory4 = gpio_read(INPUT_LED_CH2) ? 0 : 1;
			button_status_factory5 = gpio_read(INPUT_LED_DRV0) ? 0 : 1;
			button_status_factory6 = gpio_read(INPUT_LED_DRV2) ? 0 : 1;
			button_status_factory7 = gpio_read(WPS_BTN) ? 0 : 1;
			button_status_factory8 = gpio_read(VCHARGE_STAT) ? 0 : 1;
			button_status_factory9 = gpio_read(MANUAL_BTN) ? 0 : 1;
    5e8a:	91 e0       	ldi	r25, 0x01	; 1
    5e8c:	81 11       	cpse	r24, r1
    5e8e:	90 e0       	ldi	r25, 0x00	; 0
			
			if ((button_status_factory2 | button_status_factory3 | button_status_factory4 | button_status_factory5 | button_status_factory6 | button_status_factory7 | button_status_factory8 | button_status_factory9) != 0)
    5e90:	99 23       	and	r25, r25
    5e92:	49 f0       	breq	.+18     	; 0x5ea6 <testMode+0x680>
			{
				send_usart_char(" ------FAIL");
    5e94:	89 e8       	ldi	r24, 0x89	; 137
    5e96:	94 e0       	ldi	r25, 0x04	; 4
    5e98:	f6 da       	rcall	.-2580   	; 0x5486 <send_usart_char>
				send_usart_char("\r\nMultiple Input Turn On ...");
    5e9a:	85 e9       	ldi	r24, 0x95	; 149
    5e9c:	94 e0       	ldi	r25, 0x04	; 4
    5e9e:	f3 da       	rcall	.-2586   	; 0x5486 <send_usart_char>
				button = button1;
    5ea0:	10 92 59 20 	sts	0x2059, r1
    5ea4:	bd c2       	rjmp	.+1402   	; 0x6420 <testMode+0xbfa>
			}
			else
			{
				gpio_set(OUT_LED_CH0);
    5ea6:	60 91 40 20 	lds	r22, 0x2040
    5eaa:	70 91 41 20 	lds	r23, 0x2041
    5eae:	80 91 42 20 	lds	r24, 0x2042
    5eb2:	0e 94 7c 0a 	call	0x14f8	; 0x14f8 <gpio_set>
				send_usart_char(" ------PASS");
    5eb6:	82 eb       	ldi	r24, 0xB2	; 178
    5eb8:	94 e0       	ldi	r25, 0x04	; 4
    5eba:	e5 da       	rcall	.-2614   	; 0x5486 <send_usart_char>
				button = button6;
    5ebc:	85 e0       	ldi	r24, 0x05	; 5
    5ebe:	80 93 59 20 	sts	0x2059, r24
    5ec2:	ae c2       	rjmp	.+1372   	; 0x6420 <testMode+0xbfa>
		}
		break;
		
		case button6:
		{
			send_usart_char("\r\nIO Switch ");
    5ec4:	8c e7       	ldi	r24, 0x7C	; 124
    5ec6:	94 e0       	ldi	r25, 0x04	; 4
    5ec8:	de da       	rcall	.-2628   	; 0x5486 <send_usart_char>
			send_usart_char("6");
    5eca:	84 ec       	ldi	r24, 0xC4	; 196
    5ecc:	94 e0       	ldi	r25, 0x04	; 4
    5ece:	db da       	rcall	.-2634   	; 0x5486 <send_usart_char>
			
			button_status_factory = gpio_read(INPUT_LED_DRV2) ? 0 : 1;
    5ed0:	60 91 69 20 	lds	r22, 0x2069
    5ed4:	70 91 6a 20 	lds	r23, 0x206A
    5ed8:	80 91 6b 20 	lds	r24, 0x206B
    5edc:	0e 94 33 0c 	call	0x1866	; 0x1866 <gpio_read>
			
			while(button_status_factory != 1)
    5ee0:	88 23       	and	r24, r24
    5ee2:	51 f0       	breq	.+20     	; 0x5ef8 <testMode+0x6d2>
			{
				button_status_factory = gpio_read(INPUT_LED_DRV2) ? 0 : 1;
    5ee4:	60 91 69 20 	lds	r22, 0x2069
    5ee8:	70 91 6a 20 	lds	r23, 0x206A
    5eec:	80 91 6b 20 	lds	r24, 0x206B
    5ef0:	0e 94 33 0c 	call	0x1866	; 0x1866 <gpio_read>
			send_usart_char("\r\nIO Switch ");
			send_usart_char("6");
			
			button_status_factory = gpio_read(INPUT_LED_DRV2) ? 0 : 1;
			
			while(button_status_factory != 1)
    5ef4:	81 11       	cpse	r24, r1
    5ef6:	f6 cf       	rjmp	.-20     	; 0x5ee4 <testMode+0x6be>
			{
				button_status_factory = gpio_read(INPUT_LED_DRV2) ? 0 : 1;
			}
			
			button_status_factory2 = gpio_read(AC_STAT) ? 0 : 1;
    5ef8:	60 91 0e 21 	lds	r22, 0x210E
    5efc:	70 91 0f 21 	lds	r23, 0x210F
    5f00:	80 91 10 21 	lds	r24, 0x2110
    5f04:	0e 94 33 0c 	call	0x1866	; 0x1866 <gpio_read>
    5f08:	e8 2e       	mov	r14, r24
			button_status_factory3 = gpio_read(INPUT_LED_CH1) ? 0 : 1;
    5f0a:	60 91 09 21 	lds	r22, 0x2109
    5f0e:	70 91 0a 21 	lds	r23, 0x210A
    5f12:	80 91 0b 21 	lds	r24, 0x210B
    5f16:	0e 94 33 0c 	call	0x1866	; 0x1866 <gpio_read>
    5f1a:	d8 2e       	mov	r13, r24
			button_status_factory4 = gpio_read(INPUT_LED_CH2) ? 0 : 1;
    5f1c:	60 91 5c 20 	lds	r22, 0x205C
    5f20:	70 91 5d 20 	lds	r23, 0x205D
    5f24:	80 91 5e 20 	lds	r24, 0x205E
    5f28:	0e 94 33 0c 	call	0x1866	; 0x1866 <gpio_read>
    5f2c:	f8 2e       	mov	r15, r24
			button_status_factory5 = gpio_read(INPUT_LED_DRV0) ? 0 : 1;
    5f2e:	60 91 ba 20 	lds	r22, 0x20BA
    5f32:	70 91 bb 20 	lds	r23, 0x20BB
    5f36:	80 91 bc 20 	lds	r24, 0x20BC
    5f3a:	0e 94 33 0c 	call	0x1866	; 0x1866 <gpio_read>
    5f3e:	08 2f       	mov	r16, r24
			button_status_factory6 = gpio_read(INPUT_LED_DRV1) ? 0 : 1;
    5f40:	60 91 12 20 	lds	r22, 0x2012
    5f44:	70 91 13 20 	lds	r23, 0x2013
    5f48:	80 91 14 20 	lds	r24, 0x2014
    5f4c:	0e 94 33 0c 	call	0x1866	; 0x1866 <gpio_read>
    5f50:	18 2f       	mov	r17, r24
			button_status_factory7 = gpio_read(WPS_BTN) ? 0 : 1;
    5f52:	60 91 50 20 	lds	r22, 0x2050
    5f56:	70 91 51 20 	lds	r23, 0x2051
    5f5a:	80 91 52 20 	lds	r24, 0x2052
    5f5e:	0e 94 33 0c 	call	0x1866	; 0x1866 <gpio_read>
    5f62:	d8 2f       	mov	r29, r24
			button_status_factory8 = gpio_read(VCHARGE_STAT) ? 0 : 1;
    5f64:	60 91 f9 20 	lds	r22, 0x20F9
    5f68:	70 91 fa 20 	lds	r23, 0x20FA
    5f6c:	80 91 fb 20 	lds	r24, 0x20FB
    5f70:	0e 94 33 0c 	call	0x1866	; 0x1866 <gpio_read>
    5f74:	c8 2f       	mov	r28, r24
			button_status_factory9 = gpio_read(MANUAL_BTN) ? 0 : 1;
    5f76:	60 91 b7 20 	lds	r22, 0x20B7
    5f7a:	70 91 b8 20 	lds	r23, 0x20B8
    5f7e:	80 91 b9 20 	lds	r24, 0x20B9
    5f82:	0e 94 33 0c 	call	0x1866	; 0x1866 <gpio_read>
			{
				button_status_factory = gpio_read(INPUT_LED_DRV2) ? 0 : 1;
			}
			
			button_status_factory2 = gpio_read(AC_STAT) ? 0 : 1;
			button_status_factory3 = gpio_read(INPUT_LED_CH1) ? 0 : 1;
    5f86:	21 e0       	ldi	r18, 0x01	; 1
    5f88:	d1 10       	cpse	r13, r1
    5f8a:	20 e0       	ldi	r18, 0x00	; 0
			while(button_status_factory != 1)
			{
				button_status_factory = gpio_read(INPUT_LED_DRV2) ? 0 : 1;
			}
			
			button_status_factory2 = gpio_read(AC_STAT) ? 0 : 1;
    5f8c:	91 e0       	ldi	r25, 0x01	; 1
    5f8e:	e1 10       	cpse	r14, r1
    5f90:	90 e0       	ldi	r25, 0x00	; 0
			button_status_factory6 = gpio_read(INPUT_LED_DRV1) ? 0 : 1;
			button_status_factory7 = gpio_read(WPS_BTN) ? 0 : 1;
			button_status_factory8 = gpio_read(VCHARGE_STAT) ? 0 : 1;
			button_status_factory9 = gpio_read(MANUAL_BTN) ? 0 : 1;
			
			if ((button_status_factory2 | button_status_factory3 | button_status_factory4 | button_status_factory5 | button_status_factory6 | button_status_factory7 | button_status_factory8 | button_status_factory9) != 0)
    5f92:	29 2b       	or	r18, r25
				button_status_factory = gpio_read(INPUT_LED_DRV2) ? 0 : 1;
			}
			
			button_status_factory2 = gpio_read(AC_STAT) ? 0 : 1;
			button_status_factory3 = gpio_read(INPUT_LED_CH1) ? 0 : 1;
			button_status_factory4 = gpio_read(INPUT_LED_CH2) ? 0 : 1;
    5f94:	91 e0       	ldi	r25, 0x01	; 1
    5f96:	f1 10       	cpse	r15, r1
    5f98:	90 e0       	ldi	r25, 0x00	; 0
			button_status_factory6 = gpio_read(INPUT_LED_DRV1) ? 0 : 1;
			button_status_factory7 = gpio_read(WPS_BTN) ? 0 : 1;
			button_status_factory8 = gpio_read(VCHARGE_STAT) ? 0 : 1;
			button_status_factory9 = gpio_read(MANUAL_BTN) ? 0 : 1;
			
			if ((button_status_factory2 | button_status_factory3 | button_status_factory4 | button_status_factory5 | button_status_factory6 | button_status_factory7 | button_status_factory8 | button_status_factory9) != 0)
    5f9a:	92 2b       	or	r25, r18
			}
			
			button_status_factory2 = gpio_read(AC_STAT) ? 0 : 1;
			button_status_factory3 = gpio_read(INPUT_LED_CH1) ? 0 : 1;
			button_status_factory4 = gpio_read(INPUT_LED_CH2) ? 0 : 1;
			button_status_factory5 = gpio_read(INPUT_LED_DRV0) ? 0 : 1;
    5f9c:	21 e0       	ldi	r18, 0x01	; 1
    5f9e:	01 11       	cpse	r16, r1
    5fa0:	20 e0       	ldi	r18, 0x00	; 0
			button_status_factory6 = gpio_read(INPUT_LED_DRV1) ? 0 : 1;
			button_status_factory7 = gpio_read(WPS_BTN) ? 0 : 1;
			button_status_factory8 = gpio_read(VCHARGE_STAT) ? 0 : 1;
			button_status_factory9 = gpio_read(MANUAL_BTN) ? 0 : 1;
			
			if ((button_status_factory2 | button_status_factory3 | button_status_factory4 | button_status_factory5 | button_status_factory6 | button_status_factory7 | button_status_factory8 | button_status_factory9) != 0)
    5fa2:	29 2b       	or	r18, r25
			
			button_status_factory2 = gpio_read(AC_STAT) ? 0 : 1;
			button_status_factory3 = gpio_read(INPUT_LED_CH1) ? 0 : 1;
			button_status_factory4 = gpio_read(INPUT_LED_CH2) ? 0 : 1;
			button_status_factory5 = gpio_read(INPUT_LED_DRV0) ? 0 : 1;
			button_status_factory6 = gpio_read(INPUT_LED_DRV1) ? 0 : 1;
    5fa4:	91 e0       	ldi	r25, 0x01	; 1
    5fa6:	11 11       	cpse	r17, r1
    5fa8:	90 e0       	ldi	r25, 0x00	; 0
			button_status_factory7 = gpio_read(WPS_BTN) ? 0 : 1;
			button_status_factory8 = gpio_read(VCHARGE_STAT) ? 0 : 1;
			button_status_factory9 = gpio_read(MANUAL_BTN) ? 0 : 1;
			
			if ((button_status_factory2 | button_status_factory3 | button_status_factory4 | button_status_factory5 | button_status_factory6 | button_status_factory7 | button_status_factory8 | button_status_factory9) != 0)
    5faa:	92 2b       	or	r25, r18
			button_status_factory2 = gpio_read(AC_STAT) ? 0 : 1;
			button_status_factory3 = gpio_read(INPUT_LED_CH1) ? 0 : 1;
			button_status_factory4 = gpio_read(INPUT_LED_CH2) ? 0 : 1;
			button_status_factory5 = gpio_read(INPUT_LED_DRV0) ? 0 : 1;
			button_status_factory6 = gpio_read(INPUT_LED_DRV1) ? 0 : 1;
			button_status_factory7 = gpio_read(WPS_BTN) ? 0 : 1;
    5fac:	21 e0       	ldi	r18, 0x01	; 1
    5fae:	d1 11       	cpse	r29, r1
    5fb0:	20 e0       	ldi	r18, 0x00	; 0
			button_status_factory8 = gpio_read(VCHARGE_STAT) ? 0 : 1;
			button_status_factory9 = gpio_read(MANUAL_BTN) ? 0 : 1;
			
			if ((button_status_factory2 | button_status_factory3 | button_status_factory4 | button_status_factory5 | button_status_factory6 | button_status_factory7 | button_status_factory8 | button_status_factory9) != 0)
    5fb2:	29 2b       	or	r18, r25
			button_status_factory3 = gpio_read(INPUT_LED_CH1) ? 0 : 1;
			button_status_factory4 = gpio_read(INPUT_LED_CH2) ? 0 : 1;
			button_status_factory5 = gpio_read(INPUT_LED_DRV0) ? 0 : 1;
			button_status_factory6 = gpio_read(INPUT_LED_DRV1) ? 0 : 1;
			button_status_factory7 = gpio_read(WPS_BTN) ? 0 : 1;
			button_status_factory8 = gpio_read(VCHARGE_STAT) ? 0 : 1;
    5fb4:	91 e0       	ldi	r25, 0x01	; 1
    5fb6:	c1 11       	cpse	r28, r1
    5fb8:	90 e0       	ldi	r25, 0x00	; 0
			button_status_factory9 = gpio_read(MANUAL_BTN) ? 0 : 1;
			
			if ((button_status_factory2 | button_status_factory3 | button_status_factory4 | button_status_factory5 | button_status_factory6 | button_status_factory7 | button_status_factory8 | button_status_factory9) != 0)
    5fba:	92 2b       	or	r25, r18
    5fbc:	29 f4       	brne	.+10     	; 0x5fc8 <testMode+0x7a2>
			button_status_factory4 = gpio_read(INPUT_LED_CH2) ? 0 : 1;
			button_status_factory5 = gpio_read(INPUT_LED_DRV0) ? 0 : 1;
			button_status_factory6 = gpio_read(INPUT_LED_DRV1) ? 0 : 1;
			button_status_factory7 = gpio_read(WPS_BTN) ? 0 : 1;
			button_status_factory8 = gpio_read(VCHARGE_STAT) ? 0 : 1;
			button_status_factory9 = gpio_read(MANUAL_BTN) ? 0 : 1;
    5fbe:	91 e0       	ldi	r25, 0x01	; 1
    5fc0:	81 11       	cpse	r24, r1
    5fc2:	90 e0       	ldi	r25, 0x00	; 0
			
			if ((button_status_factory2 | button_status_factory3 | button_status_factory4 | button_status_factory5 | button_status_factory6 | button_status_factory7 | button_status_factory8 | button_status_factory9) != 0)
    5fc4:	99 23       	and	r25, r25
    5fc6:	49 f0       	breq	.+18     	; 0x5fda <testMode+0x7b4>
			{
				send_usart_char(" ------FAIL");
    5fc8:	89 e8       	ldi	r24, 0x89	; 137
    5fca:	94 e0       	ldi	r25, 0x04	; 4
    5fcc:	5c da       	rcall	.-2888   	; 0x5486 <send_usart_char>
				send_usart_char("\r\nMultiple Input Turn On ...");
    5fce:	85 e9       	ldi	r24, 0x95	; 149
    5fd0:	94 e0       	ldi	r25, 0x04	; 4
    5fd2:	59 da       	rcall	.-2894   	; 0x5486 <send_usart_char>
				button = button1;
    5fd4:	10 92 59 20 	sts	0x2059, r1
    5fd8:	23 c2       	rjmp	.+1094   	; 0x6420 <testMode+0xbfa>
			}
			else
			{
				gpio_set(OUT_LED_CH1);
    5fda:	60 91 14 21 	lds	r22, 0x2114
    5fde:	70 91 15 21 	lds	r23, 0x2115
    5fe2:	80 91 16 21 	lds	r24, 0x2116
    5fe6:	0e 94 7c 0a 	call	0x14f8	; 0x14f8 <gpio_set>
				send_usart_char(" ------PASS");
    5fea:	82 eb       	ldi	r24, 0xB2	; 178
    5fec:	94 e0       	ldi	r25, 0x04	; 4
    5fee:	4b da       	rcall	.-2922   	; 0x5486 <send_usart_char>
				button = button7;
    5ff0:	86 e0       	ldi	r24, 0x06	; 6
    5ff2:	80 93 59 20 	sts	0x2059, r24
    5ff6:	14 c2       	rjmp	.+1064   	; 0x6420 <testMode+0xbfa>
		}
		break;
		
		case button7:
		{
			send_usart_char("\r\nIO Switch ");
    5ff8:	8c e7       	ldi	r24, 0x7C	; 124
    5ffa:	94 e0       	ldi	r25, 0x04	; 4
    5ffc:	44 da       	rcall	.-2936   	; 0x5486 <send_usart_char>
			send_usart_char("7");
    5ffe:	86 ec       	ldi	r24, 0xC6	; 198
    6000:	94 e0       	ldi	r25, 0x04	; 4
    6002:	41 da       	rcall	.-2942   	; 0x5486 <send_usart_char>
			
			button_status_factory = gpio_read(WPS_BTN) ? 0 : 1;
    6004:	60 91 50 20 	lds	r22, 0x2050
    6008:	70 91 51 20 	lds	r23, 0x2051
    600c:	80 91 52 20 	lds	r24, 0x2052
    6010:	0e 94 33 0c 	call	0x1866	; 0x1866 <gpio_read>
			
			while(button_status_factory != 1)
    6014:	88 23       	and	r24, r24
    6016:	51 f0       	breq	.+20     	; 0x602c <testMode+0x806>
			{
				button_status_factory = gpio_read(WPS_BTN) ? 0 : 1;
    6018:	60 91 50 20 	lds	r22, 0x2050
    601c:	70 91 51 20 	lds	r23, 0x2051
    6020:	80 91 52 20 	lds	r24, 0x2052
    6024:	0e 94 33 0c 	call	0x1866	; 0x1866 <gpio_read>
			send_usart_char("\r\nIO Switch ");
			send_usart_char("7");
			
			button_status_factory = gpio_read(WPS_BTN) ? 0 : 1;
			
			while(button_status_factory != 1)
    6028:	81 11       	cpse	r24, r1
    602a:	f6 cf       	rjmp	.-20     	; 0x6018 <testMode+0x7f2>
			{
				button_status_factory = gpio_read(WPS_BTN) ? 0 : 1;
			}
			
			button_status_factory2 = gpio_read(AC_STAT) ? 0 : 1;
    602c:	60 91 0e 21 	lds	r22, 0x210E
    6030:	70 91 0f 21 	lds	r23, 0x210F
    6034:	80 91 10 21 	lds	r24, 0x2110
    6038:	0e 94 33 0c 	call	0x1866	; 0x1866 <gpio_read>
    603c:	e8 2e       	mov	r14, r24
			button_status_factory3 = gpio_read(INPUT_LED_CH1) ? 0 : 1;
    603e:	60 91 09 21 	lds	r22, 0x2109
    6042:	70 91 0a 21 	lds	r23, 0x210A
    6046:	80 91 0b 21 	lds	r24, 0x210B
    604a:	0e 94 33 0c 	call	0x1866	; 0x1866 <gpio_read>
    604e:	d8 2e       	mov	r13, r24
			button_status_factory4 = gpio_read(INPUT_LED_CH2) ? 0 : 1;
    6050:	60 91 5c 20 	lds	r22, 0x205C
    6054:	70 91 5d 20 	lds	r23, 0x205D
    6058:	80 91 5e 20 	lds	r24, 0x205E
    605c:	0e 94 33 0c 	call	0x1866	; 0x1866 <gpio_read>
    6060:	f8 2e       	mov	r15, r24
			button_status_factory5 = gpio_read(INPUT_LED_DRV0) ? 0 : 1;
    6062:	60 91 ba 20 	lds	r22, 0x20BA
    6066:	70 91 bb 20 	lds	r23, 0x20BB
    606a:	80 91 bc 20 	lds	r24, 0x20BC
    606e:	0e 94 33 0c 	call	0x1866	; 0x1866 <gpio_read>
    6072:	08 2f       	mov	r16, r24
			button_status_factory6 = gpio_read(INPUT_LED_DRV1) ? 0 : 1;
    6074:	60 91 12 20 	lds	r22, 0x2012
    6078:	70 91 13 20 	lds	r23, 0x2013
    607c:	80 91 14 20 	lds	r24, 0x2014
    6080:	0e 94 33 0c 	call	0x1866	; 0x1866 <gpio_read>
    6084:	18 2f       	mov	r17, r24
			button_status_factory7 = gpio_read(INPUT_LED_DRV2) ? 0 : 1;
    6086:	60 91 69 20 	lds	r22, 0x2069
    608a:	70 91 6a 20 	lds	r23, 0x206A
    608e:	80 91 6b 20 	lds	r24, 0x206B
    6092:	0e 94 33 0c 	call	0x1866	; 0x1866 <gpio_read>
    6096:	d8 2f       	mov	r29, r24
			button_status_factory8 = gpio_read(VCHARGE_STAT) ? 0 : 1;
    6098:	60 91 f9 20 	lds	r22, 0x20F9
    609c:	70 91 fa 20 	lds	r23, 0x20FA
    60a0:	80 91 fb 20 	lds	r24, 0x20FB
    60a4:	0e 94 33 0c 	call	0x1866	; 0x1866 <gpio_read>
    60a8:	c8 2f       	mov	r28, r24
			button_status_factory9 = gpio_read(MANUAL_BTN) ? 0 : 1;
    60aa:	60 91 b7 20 	lds	r22, 0x20B7
    60ae:	70 91 b8 20 	lds	r23, 0x20B8
    60b2:	80 91 b9 20 	lds	r24, 0x20B9
    60b6:	0e 94 33 0c 	call	0x1866	; 0x1866 <gpio_read>
			{
				button_status_factory = gpio_read(WPS_BTN) ? 0 : 1;
			}
			
			button_status_factory2 = gpio_read(AC_STAT) ? 0 : 1;
			button_status_factory3 = gpio_read(INPUT_LED_CH1) ? 0 : 1;
    60ba:	21 e0       	ldi	r18, 0x01	; 1
    60bc:	d1 10       	cpse	r13, r1
    60be:	20 e0       	ldi	r18, 0x00	; 0
			while(button_status_factory != 1)
			{
				button_status_factory = gpio_read(WPS_BTN) ? 0 : 1;
			}
			
			button_status_factory2 = gpio_read(AC_STAT) ? 0 : 1;
    60c0:	91 e0       	ldi	r25, 0x01	; 1
    60c2:	e1 10       	cpse	r14, r1
    60c4:	90 e0       	ldi	r25, 0x00	; 0
			button_status_factory6 = gpio_read(INPUT_LED_DRV1) ? 0 : 1;
			button_status_factory7 = gpio_read(INPUT_LED_DRV2) ? 0 : 1;
			button_status_factory8 = gpio_read(VCHARGE_STAT) ? 0 : 1;
			button_status_factory9 = gpio_read(MANUAL_BTN) ? 0 : 1;
			
			if ((button_status_factory2 | button_status_factory3 | button_status_factory4 | button_status_factory5 | button_status_factory6 | button_status_factory7 | button_status_factory8 | button_status_factory9) != 0)
    60c6:	29 2b       	or	r18, r25
				button_status_factory = gpio_read(WPS_BTN) ? 0 : 1;
			}
			
			button_status_factory2 = gpio_read(AC_STAT) ? 0 : 1;
			button_status_factory3 = gpio_read(INPUT_LED_CH1) ? 0 : 1;
			button_status_factory4 = gpio_read(INPUT_LED_CH2) ? 0 : 1;
    60c8:	91 e0       	ldi	r25, 0x01	; 1
    60ca:	f1 10       	cpse	r15, r1
    60cc:	90 e0       	ldi	r25, 0x00	; 0
			button_status_factory6 = gpio_read(INPUT_LED_DRV1) ? 0 : 1;
			button_status_factory7 = gpio_read(INPUT_LED_DRV2) ? 0 : 1;
			button_status_factory8 = gpio_read(VCHARGE_STAT) ? 0 : 1;
			button_status_factory9 = gpio_read(MANUAL_BTN) ? 0 : 1;
			
			if ((button_status_factory2 | button_status_factory3 | button_status_factory4 | button_status_factory5 | button_status_factory6 | button_status_factory7 | button_status_factory8 | button_status_factory9) != 0)
    60ce:	92 2b       	or	r25, r18
			}
			
			button_status_factory2 = gpio_read(AC_STAT) ? 0 : 1;
			button_status_factory3 = gpio_read(INPUT_LED_CH1) ? 0 : 1;
			button_status_factory4 = gpio_read(INPUT_LED_CH2) ? 0 : 1;
			button_status_factory5 = gpio_read(INPUT_LED_DRV0) ? 0 : 1;
    60d0:	21 e0       	ldi	r18, 0x01	; 1
    60d2:	01 11       	cpse	r16, r1
    60d4:	20 e0       	ldi	r18, 0x00	; 0
			button_status_factory6 = gpio_read(INPUT_LED_DRV1) ? 0 : 1;
			button_status_factory7 = gpio_read(INPUT_LED_DRV2) ? 0 : 1;
			button_status_factory8 = gpio_read(VCHARGE_STAT) ? 0 : 1;
			button_status_factory9 = gpio_read(MANUAL_BTN) ? 0 : 1;
			
			if ((button_status_factory2 | button_status_factory3 | button_status_factory4 | button_status_factory5 | button_status_factory6 | button_status_factory7 | button_status_factory8 | button_status_factory9) != 0)
    60d6:	29 2b       	or	r18, r25
			
			button_status_factory2 = gpio_read(AC_STAT) ? 0 : 1;
			button_status_factory3 = gpio_read(INPUT_LED_CH1) ? 0 : 1;
			button_status_factory4 = gpio_read(INPUT_LED_CH2) ? 0 : 1;
			button_status_factory5 = gpio_read(INPUT_LED_DRV0) ? 0 : 1;
			button_status_factory6 = gpio_read(INPUT_LED_DRV1) ? 0 : 1;
    60d8:	91 e0       	ldi	r25, 0x01	; 1
    60da:	11 11       	cpse	r17, r1
    60dc:	90 e0       	ldi	r25, 0x00	; 0
			button_status_factory7 = gpio_read(INPUT_LED_DRV2) ? 0 : 1;
			button_status_factory8 = gpio_read(VCHARGE_STAT) ? 0 : 1;
			button_status_factory9 = gpio_read(MANUAL_BTN) ? 0 : 1;
			
			if ((button_status_factory2 | button_status_factory3 | button_status_factory4 | button_status_factory5 | button_status_factory6 | button_status_factory7 | button_status_factory8 | button_status_factory9) != 0)
    60de:	92 2b       	or	r25, r18
			button_status_factory2 = gpio_read(AC_STAT) ? 0 : 1;
			button_status_factory3 = gpio_read(INPUT_LED_CH1) ? 0 : 1;
			button_status_factory4 = gpio_read(INPUT_LED_CH2) ? 0 : 1;
			button_status_factory5 = gpio_read(INPUT_LED_DRV0) ? 0 : 1;
			button_status_factory6 = gpio_read(INPUT_LED_DRV1) ? 0 : 1;
			button_status_factory7 = gpio_read(INPUT_LED_DRV2) ? 0 : 1;
    60e0:	21 e0       	ldi	r18, 0x01	; 1
    60e2:	d1 11       	cpse	r29, r1
    60e4:	20 e0       	ldi	r18, 0x00	; 0
			button_status_factory8 = gpio_read(VCHARGE_STAT) ? 0 : 1;
			button_status_factory9 = gpio_read(MANUAL_BTN) ? 0 : 1;
			
			if ((button_status_factory2 | button_status_factory3 | button_status_factory4 | button_status_factory5 | button_status_factory6 | button_status_factory7 | button_status_factory8 | button_status_factory9) != 0)
    60e6:	29 2b       	or	r18, r25
			button_status_factory3 = gpio_read(INPUT_LED_CH1) ? 0 : 1;
			button_status_factory4 = gpio_read(INPUT_LED_CH2) ? 0 : 1;
			button_status_factory5 = gpio_read(INPUT_LED_DRV0) ? 0 : 1;
			button_status_factory6 = gpio_read(INPUT_LED_DRV1) ? 0 : 1;
			button_status_factory7 = gpio_read(INPUT_LED_DRV2) ? 0 : 1;
			button_status_factory8 = gpio_read(VCHARGE_STAT) ? 0 : 1;
    60e8:	91 e0       	ldi	r25, 0x01	; 1
    60ea:	c1 11       	cpse	r28, r1
    60ec:	90 e0       	ldi	r25, 0x00	; 0
			button_status_factory9 = gpio_read(MANUAL_BTN) ? 0 : 1;
			
			if ((button_status_factory2 | button_status_factory3 | button_status_factory4 | button_status_factory5 | button_status_factory6 | button_status_factory7 | button_status_factory8 | button_status_factory9) != 0)
    60ee:	92 2b       	or	r25, r18
    60f0:	29 f4       	brne	.+10     	; 0x60fc <testMode+0x8d6>
			button_status_factory4 = gpio_read(INPUT_LED_CH2) ? 0 : 1;
			button_status_factory5 = gpio_read(INPUT_LED_DRV0) ? 0 : 1;
			button_status_factory6 = gpio_read(INPUT_LED_DRV1) ? 0 : 1;
			button_status_factory7 = gpio_read(INPUT_LED_DRV2) ? 0 : 1;
			button_status_factory8 = gpio_read(VCHARGE_STAT) ? 0 : 1;
			button_status_factory9 = gpio_read(MANUAL_BTN) ? 0 : 1;
    60f2:	91 e0       	ldi	r25, 0x01	; 1
    60f4:	81 11       	cpse	r24, r1
    60f6:	90 e0       	ldi	r25, 0x00	; 0
			
			if ((button_status_factory2 | button_status_factory3 | button_status_factory4 | button_status_factory5 | button_status_factory6 | button_status_factory7 | button_status_factory8 | button_status_factory9) != 0)
    60f8:	99 23       	and	r25, r25
    60fa:	49 f0       	breq	.+18     	; 0x610e <testMode+0x8e8>
			{
				send_usart_char(" ------FAIL");
    60fc:	89 e8       	ldi	r24, 0x89	; 137
    60fe:	94 e0       	ldi	r25, 0x04	; 4
    6100:	c2 d9       	rcall	.-3196   	; 0x5486 <send_usart_char>
				send_usart_char("\r\nMultiple Input Turn On ...");
    6102:	85 e9       	ldi	r24, 0x95	; 149
    6104:	94 e0       	ldi	r25, 0x04	; 4
    6106:	bf d9       	rcall	.-3202   	; 0x5486 <send_usart_char>
				button = button1;
    6108:	10 92 59 20 	sts	0x2059, r1
    610c:	89 c1       	rjmp	.+786    	; 0x6420 <testMode+0xbfa>
			}
			else
			{
				gpio_set(OUT_LED_CH2);
    610e:	60 91 1a 21 	lds	r22, 0x211A
    6112:	70 91 1b 21 	lds	r23, 0x211B
    6116:	80 91 1c 21 	lds	r24, 0x211C
    611a:	0e 94 7c 0a 	call	0x14f8	; 0x14f8 <gpio_set>
				send_usart_char(" ------PASS");
    611e:	82 eb       	ldi	r24, 0xB2	; 178
    6120:	94 e0       	ldi	r25, 0x04	; 4
    6122:	b1 d9       	rcall	.-3230   	; 0x5486 <send_usart_char>
				button = button8;
    6124:	87 e0       	ldi	r24, 0x07	; 7
    6126:	80 93 59 20 	sts	0x2059, r24
    612a:	7a c1       	rjmp	.+756    	; 0x6420 <testMode+0xbfa>
		}
		break;
		
		case button8:
		{
			send_usart_char("\r\nIO Switch ");
    612c:	8c e7       	ldi	r24, 0x7C	; 124
    612e:	94 e0       	ldi	r25, 0x04	; 4
    6130:	aa d9       	rcall	.-3244   	; 0x5486 <send_usart_char>
			send_usart_char("8");
    6132:	87 e3       	ldi	r24, 0x37	; 55
    6134:	92 e0       	ldi	r25, 0x02	; 2
    6136:	a7 d9       	rcall	.-3250   	; 0x5486 <send_usart_char>
			
			button_status_factory = gpio_read(VCHARGE_STAT) ? 0 : 1;
    6138:	60 91 f9 20 	lds	r22, 0x20F9
    613c:	70 91 fa 20 	lds	r23, 0x20FA
    6140:	80 91 fb 20 	lds	r24, 0x20FB
    6144:	0e 94 33 0c 	call	0x1866	; 0x1866 <gpio_read>
			
			while(button_status_factory != 1)
    6148:	88 23       	and	r24, r24
    614a:	51 f0       	breq	.+20     	; 0x6160 <testMode+0x93a>
			{
				button_status_factory = gpio_read(VCHARGE_STAT) ? 0 : 1;
    614c:	60 91 f9 20 	lds	r22, 0x20F9
    6150:	70 91 fa 20 	lds	r23, 0x20FA
    6154:	80 91 fb 20 	lds	r24, 0x20FB
    6158:	0e 94 33 0c 	call	0x1866	; 0x1866 <gpio_read>
			send_usart_char("\r\nIO Switch ");
			send_usart_char("8");
			
			button_status_factory = gpio_read(VCHARGE_STAT) ? 0 : 1;
			
			while(button_status_factory != 1)
    615c:	81 11       	cpse	r24, r1
    615e:	f6 cf       	rjmp	.-20     	; 0x614c <testMode+0x926>
			{
				button_status_factory = gpio_read(VCHARGE_STAT) ? 0 : 1;
			}
			
			button_status_factory2 = gpio_read(AC_STAT) ? 0 : 1;
    6160:	60 91 0e 21 	lds	r22, 0x210E
    6164:	70 91 0f 21 	lds	r23, 0x210F
    6168:	80 91 10 21 	lds	r24, 0x2110
    616c:	0e 94 33 0c 	call	0x1866	; 0x1866 <gpio_read>
    6170:	e8 2e       	mov	r14, r24
			button_status_factory3 = gpio_read(INPUT_LED_CH1) ? 0 : 1;
    6172:	60 91 09 21 	lds	r22, 0x2109
    6176:	70 91 0a 21 	lds	r23, 0x210A
    617a:	80 91 0b 21 	lds	r24, 0x210B
    617e:	0e 94 33 0c 	call	0x1866	; 0x1866 <gpio_read>
    6182:	d8 2e       	mov	r13, r24
			button_status_factory4 = gpio_read(INPUT_LED_CH2) ? 0 : 1;
    6184:	60 91 5c 20 	lds	r22, 0x205C
    6188:	70 91 5d 20 	lds	r23, 0x205D
    618c:	80 91 5e 20 	lds	r24, 0x205E
    6190:	0e 94 33 0c 	call	0x1866	; 0x1866 <gpio_read>
    6194:	f8 2e       	mov	r15, r24
			button_status_factory5 = gpio_read(INPUT_LED_DRV0) ? 0 : 1;
    6196:	60 91 ba 20 	lds	r22, 0x20BA
    619a:	70 91 bb 20 	lds	r23, 0x20BB
    619e:	80 91 bc 20 	lds	r24, 0x20BC
    61a2:	0e 94 33 0c 	call	0x1866	; 0x1866 <gpio_read>
    61a6:	08 2f       	mov	r16, r24
			button_status_factory6 = gpio_read(INPUT_LED_DRV1) ? 0 : 1;
    61a8:	60 91 12 20 	lds	r22, 0x2012
    61ac:	70 91 13 20 	lds	r23, 0x2013
    61b0:	80 91 14 20 	lds	r24, 0x2014
    61b4:	0e 94 33 0c 	call	0x1866	; 0x1866 <gpio_read>
    61b8:	18 2f       	mov	r17, r24
			button_status_factory7 = gpio_read(INPUT_LED_DRV2) ? 0 : 1;
    61ba:	60 91 69 20 	lds	r22, 0x2069
    61be:	70 91 6a 20 	lds	r23, 0x206A
    61c2:	80 91 6b 20 	lds	r24, 0x206B
    61c6:	0e 94 33 0c 	call	0x1866	; 0x1866 <gpio_read>
    61ca:	d8 2f       	mov	r29, r24
			button_status_factory8 = gpio_read(WPS_BTN) ? 0 : 1;
    61cc:	60 91 50 20 	lds	r22, 0x2050
    61d0:	70 91 51 20 	lds	r23, 0x2051
    61d4:	80 91 52 20 	lds	r24, 0x2052
    61d8:	0e 94 33 0c 	call	0x1866	; 0x1866 <gpio_read>
    61dc:	c8 2f       	mov	r28, r24
			button_status_factory9 = gpio_read(MANUAL_BTN) ? 0 : 1;
    61de:	60 91 b7 20 	lds	r22, 0x20B7
    61e2:	70 91 b8 20 	lds	r23, 0x20B8
    61e6:	80 91 b9 20 	lds	r24, 0x20B9
    61ea:	0e 94 33 0c 	call	0x1866	; 0x1866 <gpio_read>
			{
				button_status_factory = gpio_read(VCHARGE_STAT) ? 0 : 1;
			}
			
			button_status_factory2 = gpio_read(AC_STAT) ? 0 : 1;
			button_status_factory3 = gpio_read(INPUT_LED_CH1) ? 0 : 1;
    61ee:	21 e0       	ldi	r18, 0x01	; 1
    61f0:	d1 10       	cpse	r13, r1
    61f2:	20 e0       	ldi	r18, 0x00	; 0
			while(button_status_factory != 1)
			{
				button_status_factory = gpio_read(VCHARGE_STAT) ? 0 : 1;
			}
			
			button_status_factory2 = gpio_read(AC_STAT) ? 0 : 1;
    61f4:	91 e0       	ldi	r25, 0x01	; 1
    61f6:	e1 10       	cpse	r14, r1
    61f8:	90 e0       	ldi	r25, 0x00	; 0
			button_status_factory6 = gpio_read(INPUT_LED_DRV1) ? 0 : 1;
			button_status_factory7 = gpio_read(INPUT_LED_DRV2) ? 0 : 1;
			button_status_factory8 = gpio_read(WPS_BTN) ? 0 : 1;
			button_status_factory9 = gpio_read(MANUAL_BTN) ? 0 : 1;
			
			if ((button_status_factory2 | button_status_factory3 | button_status_factory4 | button_status_factory5 | button_status_factory6 | button_status_factory7 | button_status_factory8 | button_status_factory9) != 0)
    61fa:	29 2b       	or	r18, r25
				button_status_factory = gpio_read(VCHARGE_STAT) ? 0 : 1;
			}
			
			button_status_factory2 = gpio_read(AC_STAT) ? 0 : 1;
			button_status_factory3 = gpio_read(INPUT_LED_CH1) ? 0 : 1;
			button_status_factory4 = gpio_read(INPUT_LED_CH2) ? 0 : 1;
    61fc:	91 e0       	ldi	r25, 0x01	; 1
    61fe:	f1 10       	cpse	r15, r1
    6200:	90 e0       	ldi	r25, 0x00	; 0
			button_status_factory6 = gpio_read(INPUT_LED_DRV1) ? 0 : 1;
			button_status_factory7 = gpio_read(INPUT_LED_DRV2) ? 0 : 1;
			button_status_factory8 = gpio_read(WPS_BTN) ? 0 : 1;
			button_status_factory9 = gpio_read(MANUAL_BTN) ? 0 : 1;
			
			if ((button_status_factory2 | button_status_factory3 | button_status_factory4 | button_status_factory5 | button_status_factory6 | button_status_factory7 | button_status_factory8 | button_status_factory9) != 0)
    6202:	92 2b       	or	r25, r18
			}
			
			button_status_factory2 = gpio_read(AC_STAT) ? 0 : 1;
			button_status_factory3 = gpio_read(INPUT_LED_CH1) ? 0 : 1;
			button_status_factory4 = gpio_read(INPUT_LED_CH2) ? 0 : 1;
			button_status_factory5 = gpio_read(INPUT_LED_DRV0) ? 0 : 1;
    6204:	21 e0       	ldi	r18, 0x01	; 1
    6206:	01 11       	cpse	r16, r1
    6208:	20 e0       	ldi	r18, 0x00	; 0
			button_status_factory6 = gpio_read(INPUT_LED_DRV1) ? 0 : 1;
			button_status_factory7 = gpio_read(INPUT_LED_DRV2) ? 0 : 1;
			button_status_factory8 = gpio_read(WPS_BTN) ? 0 : 1;
			button_status_factory9 = gpio_read(MANUAL_BTN) ? 0 : 1;
			
			if ((button_status_factory2 | button_status_factory3 | button_status_factory4 | button_status_factory5 | button_status_factory6 | button_status_factory7 | button_status_factory8 | button_status_factory9) != 0)
    620a:	29 2b       	or	r18, r25
			
			button_status_factory2 = gpio_read(AC_STAT) ? 0 : 1;
			button_status_factory3 = gpio_read(INPUT_LED_CH1) ? 0 : 1;
			button_status_factory4 = gpio_read(INPUT_LED_CH2) ? 0 : 1;
			button_status_factory5 = gpio_read(INPUT_LED_DRV0) ? 0 : 1;
			button_status_factory6 = gpio_read(INPUT_LED_DRV1) ? 0 : 1;
    620c:	91 e0       	ldi	r25, 0x01	; 1
    620e:	11 11       	cpse	r17, r1
    6210:	90 e0       	ldi	r25, 0x00	; 0
			button_status_factory7 = gpio_read(INPUT_LED_DRV2) ? 0 : 1;
			button_status_factory8 = gpio_read(WPS_BTN) ? 0 : 1;
			button_status_factory9 = gpio_read(MANUAL_BTN) ? 0 : 1;
			
			if ((button_status_factory2 | button_status_factory3 | button_status_factory4 | button_status_factory5 | button_status_factory6 | button_status_factory7 | button_status_factory8 | button_status_factory9) != 0)
    6212:	92 2b       	or	r25, r18
			button_status_factory2 = gpio_read(AC_STAT) ? 0 : 1;
			button_status_factory3 = gpio_read(INPUT_LED_CH1) ? 0 : 1;
			button_status_factory4 = gpio_read(INPUT_LED_CH2) ? 0 : 1;
			button_status_factory5 = gpio_read(INPUT_LED_DRV0) ? 0 : 1;
			button_status_factory6 = gpio_read(INPUT_LED_DRV1) ? 0 : 1;
			button_status_factory7 = gpio_read(INPUT_LED_DRV2) ? 0 : 1;
    6214:	21 e0       	ldi	r18, 0x01	; 1
    6216:	d1 11       	cpse	r29, r1
    6218:	20 e0       	ldi	r18, 0x00	; 0
			button_status_factory8 = gpio_read(WPS_BTN) ? 0 : 1;
			button_status_factory9 = gpio_read(MANUAL_BTN) ? 0 : 1;
			
			if ((button_status_factory2 | button_status_factory3 | button_status_factory4 | button_status_factory5 | button_status_factory6 | button_status_factory7 | button_status_factory8 | button_status_factory9) != 0)
    621a:	29 2b       	or	r18, r25
			button_status_factory3 = gpio_read(INPUT_LED_CH1) ? 0 : 1;
			button_status_factory4 = gpio_read(INPUT_LED_CH2) ? 0 : 1;
			button_status_factory5 = gpio_read(INPUT_LED_DRV0) ? 0 : 1;
			button_status_factory6 = gpio_read(INPUT_LED_DRV1) ? 0 : 1;
			button_status_factory7 = gpio_read(INPUT_LED_DRV2) ? 0 : 1;
			button_status_factory8 = gpio_read(WPS_BTN) ? 0 : 1;
    621c:	91 e0       	ldi	r25, 0x01	; 1
    621e:	c1 11       	cpse	r28, r1
    6220:	90 e0       	ldi	r25, 0x00	; 0
			button_status_factory9 = gpio_read(MANUAL_BTN) ? 0 : 1;
			
			if ((button_status_factory2 | button_status_factory3 | button_status_factory4 | button_status_factory5 | button_status_factory6 | button_status_factory7 | button_status_factory8 | button_status_factory9) != 0)
    6222:	92 2b       	or	r25, r18
    6224:	29 f4       	brne	.+10     	; 0x6230 <testMode+0xa0a>
			button_status_factory4 = gpio_read(INPUT_LED_CH2) ? 0 : 1;
			button_status_factory5 = gpio_read(INPUT_LED_DRV0) ? 0 : 1;
			button_status_factory6 = gpio_read(INPUT_LED_DRV1) ? 0 : 1;
			button_status_factory7 = gpio_read(INPUT_LED_DRV2) ? 0 : 1;
			button_status_factory8 = gpio_read(WPS_BTN) ? 0 : 1;
			button_status_factory9 = gpio_read(MANUAL_BTN) ? 0 : 1;
    6226:	91 e0       	ldi	r25, 0x01	; 1
    6228:	81 11       	cpse	r24, r1
    622a:	90 e0       	ldi	r25, 0x00	; 0
			
			if ((button_status_factory2 | button_status_factory3 | button_status_factory4 | button_status_factory5 | button_status_factory6 | button_status_factory7 | button_status_factory8 | button_status_factory9) != 0)
    622c:	99 23       	and	r25, r25
    622e:	49 f0       	breq	.+18     	; 0x6242 <testMode+0xa1c>
			{
				send_usart_char(" ------FAIL");
    6230:	89 e8       	ldi	r24, 0x89	; 137
    6232:	94 e0       	ldi	r25, 0x04	; 4
    6234:	28 d9       	rcall	.-3504   	; 0x5486 <send_usart_char>
				send_usart_char("\r\nMultiple Input Turn On ...");
    6236:	85 e9       	ldi	r24, 0x95	; 149
    6238:	94 e0       	ldi	r25, 0x04	; 4
    623a:	25 d9       	rcall	.-3510   	; 0x5486 <send_usart_char>
				button = button1;
    623c:	10 92 59 20 	sts	0x2059, r1
    6240:	ef c0       	rjmp	.+478    	; 0x6420 <testMode+0xbfa>
			}
			else
			{
				gpio_clr(OUT_LED_CH0);
    6242:	60 91 40 20 	lds	r22, 0x2040
    6246:	70 91 41 20 	lds	r23, 0x2041
    624a:	80 91 42 20 	lds	r24, 0x2042
    624e:	0e 94 c0 0a 	call	0x1580	; 0x1580 <gpio_clr>
				gpio_clr(OUT_LED_CH1);
    6252:	60 91 14 21 	lds	r22, 0x2114
    6256:	70 91 15 21 	lds	r23, 0x2115
    625a:	80 91 16 21 	lds	r24, 0x2116
    625e:	0e 94 c0 0a 	call	0x1580	; 0x1580 <gpio_clr>
				gpio_clr(OUT_LED_CH2);
    6262:	60 91 1a 21 	lds	r22, 0x211A
    6266:	70 91 1b 21 	lds	r23, 0x211B
    626a:	80 91 1c 21 	lds	r24, 0x211C
    626e:	0e 94 c0 0a 	call	0x1580	; 0x1580 <gpio_clr>
				send_usart_char(" ------PASS");
    6272:	82 eb       	ldi	r24, 0xB2	; 178
    6274:	94 e0       	ldi	r25, 0x04	; 4
    6276:	07 d9       	rcall	.-3570   	; 0x5486 <send_usart_char>
				button = button9;
    6278:	88 e0       	ldi	r24, 0x08	; 8
    627a:	80 93 59 20 	sts	0x2059, r24
    627e:	d0 c0       	rjmp	.+416    	; 0x6420 <testMode+0xbfa>
		}
		break;
		
		case button9:
		{
			send_usart_char("\r\nIO Switch ");
    6280:	8c e7       	ldi	r24, 0x7C	; 124
    6282:	94 e0       	ldi	r25, 0x04	; 4
    6284:	00 d9       	rcall	.-3584   	; 0x5486 <send_usart_char>
			send_usart_char("9");
    6286:	88 ec       	ldi	r24, 0xC8	; 200
    6288:	94 e0       	ldi	r25, 0x04	; 4
    628a:	fd d8       	rcall	.-3590   	; 0x5486 <send_usart_char>
			
			button_status_factory = gpio_read(MANUAL_BTN) ? 0 : 1;
    628c:	60 91 b7 20 	lds	r22, 0x20B7
    6290:	70 91 b8 20 	lds	r23, 0x20B8
    6294:	80 91 b9 20 	lds	r24, 0x20B9
    6298:	0e 94 33 0c 	call	0x1866	; 0x1866 <gpio_read>
			
			while(button_status_factory != 1)
    629c:	88 23       	and	r24, r24
    629e:	51 f0       	breq	.+20     	; 0x62b4 <testMode+0xa8e>
			{
				button_status_factory = gpio_read(MANUAL_BTN) ? 0 : 1;
    62a0:	60 91 b7 20 	lds	r22, 0x20B7
    62a4:	70 91 b8 20 	lds	r23, 0x20B8
    62a8:	80 91 b9 20 	lds	r24, 0x20B9
    62ac:	0e 94 33 0c 	call	0x1866	; 0x1866 <gpio_read>
			send_usart_char("\r\nIO Switch ");
			send_usart_char("9");
			
			button_status_factory = gpio_read(MANUAL_BTN) ? 0 : 1;
			
			while(button_status_factory != 1)
    62b0:	81 11       	cpse	r24, r1
    62b2:	f6 cf       	rjmp	.-20     	; 0x62a0 <testMode+0xa7a>
			{
				button_status_factory = gpio_read(MANUAL_BTN) ? 0 : 1;
			}
			
			button_status_factory2 = gpio_read(AC_STAT) ? 0 : 1;
    62b4:	60 91 0e 21 	lds	r22, 0x210E
    62b8:	70 91 0f 21 	lds	r23, 0x210F
    62bc:	80 91 10 21 	lds	r24, 0x2110
    62c0:	0e 94 33 0c 	call	0x1866	; 0x1866 <gpio_read>
    62c4:	e8 2e       	mov	r14, r24
			button_status_factory3 = gpio_read(INPUT_LED_CH1) ? 0 : 1;
    62c6:	60 91 09 21 	lds	r22, 0x2109
    62ca:	70 91 0a 21 	lds	r23, 0x210A
    62ce:	80 91 0b 21 	lds	r24, 0x210B
    62d2:	0e 94 33 0c 	call	0x1866	; 0x1866 <gpio_read>
    62d6:	d8 2e       	mov	r13, r24
			button_status_factory4 = gpio_read(INPUT_LED_CH2) ? 0 : 1;
    62d8:	60 91 5c 20 	lds	r22, 0x205C
    62dc:	70 91 5d 20 	lds	r23, 0x205D
    62e0:	80 91 5e 20 	lds	r24, 0x205E
    62e4:	0e 94 33 0c 	call	0x1866	; 0x1866 <gpio_read>
    62e8:	f8 2e       	mov	r15, r24
			button_status_factory5 = gpio_read(INPUT_LED_DRV0) ? 0 : 1;
    62ea:	60 91 ba 20 	lds	r22, 0x20BA
    62ee:	70 91 bb 20 	lds	r23, 0x20BB
    62f2:	80 91 bc 20 	lds	r24, 0x20BC
    62f6:	0e 94 33 0c 	call	0x1866	; 0x1866 <gpio_read>
    62fa:	08 2f       	mov	r16, r24
			button_status_factory6 = gpio_read(INPUT_LED_DRV1) ? 0 : 1;
    62fc:	60 91 12 20 	lds	r22, 0x2012
    6300:	70 91 13 20 	lds	r23, 0x2013
    6304:	80 91 14 20 	lds	r24, 0x2014
    6308:	0e 94 33 0c 	call	0x1866	; 0x1866 <gpio_read>
    630c:	18 2f       	mov	r17, r24
			button_status_factory7 = gpio_read(INPUT_LED_DRV2) ? 0 : 1;
    630e:	60 91 69 20 	lds	r22, 0x2069
    6312:	70 91 6a 20 	lds	r23, 0x206A
    6316:	80 91 6b 20 	lds	r24, 0x206B
    631a:	0e 94 33 0c 	call	0x1866	; 0x1866 <gpio_read>
    631e:	d8 2f       	mov	r29, r24
			button_status_factory8 = gpio_read(WPS_BTN) ? 0 : 1;
    6320:	60 91 50 20 	lds	r22, 0x2050
    6324:	70 91 51 20 	lds	r23, 0x2051
    6328:	80 91 52 20 	lds	r24, 0x2052
    632c:	0e 94 33 0c 	call	0x1866	; 0x1866 <gpio_read>
    6330:	c8 2f       	mov	r28, r24
			button_status_factory9 = gpio_read(VCHARGE_STAT) ? 0 : 1;
    6332:	60 91 f9 20 	lds	r22, 0x20F9
    6336:	70 91 fa 20 	lds	r23, 0x20FA
    633a:	80 91 fb 20 	lds	r24, 0x20FB
    633e:	0e 94 33 0c 	call	0x1866	; 0x1866 <gpio_read>
			{
				button_status_factory = gpio_read(MANUAL_BTN) ? 0 : 1;
			}
			
			button_status_factory2 = gpio_read(AC_STAT) ? 0 : 1;
			button_status_factory3 = gpio_read(INPUT_LED_CH1) ? 0 : 1;
    6342:	21 e0       	ldi	r18, 0x01	; 1
    6344:	d1 10       	cpse	r13, r1
    6346:	20 e0       	ldi	r18, 0x00	; 0
			while(button_status_factory != 1)
			{
				button_status_factory = gpio_read(MANUAL_BTN) ? 0 : 1;
			}
			
			button_status_factory2 = gpio_read(AC_STAT) ? 0 : 1;
    6348:	91 e0       	ldi	r25, 0x01	; 1
    634a:	e1 10       	cpse	r14, r1
    634c:	90 e0       	ldi	r25, 0x00	; 0
			button_status_factory6 = gpio_read(INPUT_LED_DRV1) ? 0 : 1;
			button_status_factory7 = gpio_read(INPUT_LED_DRV2) ? 0 : 1;
			button_status_factory8 = gpio_read(WPS_BTN) ? 0 : 1;
			button_status_factory9 = gpio_read(VCHARGE_STAT) ? 0 : 1;
			
			if ((button_status_factory2 | button_status_factory3 | button_status_factory4 | button_status_factory5 | button_status_factory6 | button_status_factory7 | button_status_factory8 | button_status_factory9) != 0)
    634e:	29 2b       	or	r18, r25
				button_status_factory = gpio_read(MANUAL_BTN) ? 0 : 1;
			}
			
			button_status_factory2 = gpio_read(AC_STAT) ? 0 : 1;
			button_status_factory3 = gpio_read(INPUT_LED_CH1) ? 0 : 1;
			button_status_factory4 = gpio_read(INPUT_LED_CH2) ? 0 : 1;
    6350:	91 e0       	ldi	r25, 0x01	; 1
    6352:	f1 10       	cpse	r15, r1
    6354:	90 e0       	ldi	r25, 0x00	; 0
			button_status_factory6 = gpio_read(INPUT_LED_DRV1) ? 0 : 1;
			button_status_factory7 = gpio_read(INPUT_LED_DRV2) ? 0 : 1;
			button_status_factory8 = gpio_read(WPS_BTN) ? 0 : 1;
			button_status_factory9 = gpio_read(VCHARGE_STAT) ? 0 : 1;
			
			if ((button_status_factory2 | button_status_factory3 | button_status_factory4 | button_status_factory5 | button_status_factory6 | button_status_factory7 | button_status_factory8 | button_status_factory9) != 0)
    6356:	92 2b       	or	r25, r18
			}
			
			button_status_factory2 = gpio_read(AC_STAT) ? 0 : 1;
			button_status_factory3 = gpio_read(INPUT_LED_CH1) ? 0 : 1;
			button_status_factory4 = gpio_read(INPUT_LED_CH2) ? 0 : 1;
			button_status_factory5 = gpio_read(INPUT_LED_DRV0) ? 0 : 1;
    6358:	21 e0       	ldi	r18, 0x01	; 1
    635a:	01 11       	cpse	r16, r1
    635c:	20 e0       	ldi	r18, 0x00	; 0
			button_status_factory6 = gpio_read(INPUT_LED_DRV1) ? 0 : 1;
			button_status_factory7 = gpio_read(INPUT_LED_DRV2) ? 0 : 1;
			button_status_factory8 = gpio_read(WPS_BTN) ? 0 : 1;
			button_status_factory9 = gpio_read(VCHARGE_STAT) ? 0 : 1;
			
			if ((button_status_factory2 | button_status_factory3 | button_status_factory4 | button_status_factory5 | button_status_factory6 | button_status_factory7 | button_status_factory8 | button_status_factory9) != 0)
    635e:	29 2b       	or	r18, r25
			
			button_status_factory2 = gpio_read(AC_STAT) ? 0 : 1;
			button_status_factory3 = gpio_read(INPUT_LED_CH1) ? 0 : 1;
			button_status_factory4 = gpio_read(INPUT_LED_CH2) ? 0 : 1;
			button_status_factory5 = gpio_read(INPUT_LED_DRV0) ? 0 : 1;
			button_status_factory6 = gpio_read(INPUT_LED_DRV1) ? 0 : 1;
    6360:	91 e0       	ldi	r25, 0x01	; 1
    6362:	11 11       	cpse	r17, r1
    6364:	90 e0       	ldi	r25, 0x00	; 0
			button_status_factory7 = gpio_read(INPUT_LED_DRV2) ? 0 : 1;
			button_status_factory8 = gpio_read(WPS_BTN) ? 0 : 1;
			button_status_factory9 = gpio_read(VCHARGE_STAT) ? 0 : 1;
			
			if ((button_status_factory2 | button_status_factory3 | button_status_factory4 | button_status_factory5 | button_status_factory6 | button_status_factory7 | button_status_factory8 | button_status_factory9) != 0)
    6366:	92 2b       	or	r25, r18
			button_status_factory2 = gpio_read(AC_STAT) ? 0 : 1;
			button_status_factory3 = gpio_read(INPUT_LED_CH1) ? 0 : 1;
			button_status_factory4 = gpio_read(INPUT_LED_CH2) ? 0 : 1;
			button_status_factory5 = gpio_read(INPUT_LED_DRV0) ? 0 : 1;
			button_status_factory6 = gpio_read(INPUT_LED_DRV1) ? 0 : 1;
			button_status_factory7 = gpio_read(INPUT_LED_DRV2) ? 0 : 1;
    6368:	21 e0       	ldi	r18, 0x01	; 1
    636a:	d1 11       	cpse	r29, r1
    636c:	20 e0       	ldi	r18, 0x00	; 0
			button_status_factory8 = gpio_read(WPS_BTN) ? 0 : 1;
			button_status_factory9 = gpio_read(VCHARGE_STAT) ? 0 : 1;
			
			if ((button_status_factory2 | button_status_factory3 | button_status_factory4 | button_status_factory5 | button_status_factory6 | button_status_factory7 | button_status_factory8 | button_status_factory9) != 0)
    636e:	29 2b       	or	r18, r25
			button_status_factory3 = gpio_read(INPUT_LED_CH1) ? 0 : 1;
			button_status_factory4 = gpio_read(INPUT_LED_CH2) ? 0 : 1;
			button_status_factory5 = gpio_read(INPUT_LED_DRV0) ? 0 : 1;
			button_status_factory6 = gpio_read(INPUT_LED_DRV1) ? 0 : 1;
			button_status_factory7 = gpio_read(INPUT_LED_DRV2) ? 0 : 1;
			button_status_factory8 = gpio_read(WPS_BTN) ? 0 : 1;
    6370:	91 e0       	ldi	r25, 0x01	; 1
    6372:	c1 11       	cpse	r28, r1
    6374:	90 e0       	ldi	r25, 0x00	; 0
			button_status_factory9 = gpio_read(VCHARGE_STAT) ? 0 : 1;
			
			if ((button_status_factory2 | button_status_factory3 | button_status_factory4 | button_status_factory5 | button_status_factory6 | button_status_factory7 | button_status_factory8 | button_status_factory9) != 0)
    6376:	92 2b       	or	r25, r18
    6378:	29 f4       	brne	.+10     	; 0x6384 <testMode+0xb5e>
			button_status_factory4 = gpio_read(INPUT_LED_CH2) ? 0 : 1;
			button_status_factory5 = gpio_read(INPUT_LED_DRV0) ? 0 : 1;
			button_status_factory6 = gpio_read(INPUT_LED_DRV1) ? 0 : 1;
			button_status_factory7 = gpio_read(INPUT_LED_DRV2) ? 0 : 1;
			button_status_factory8 = gpio_read(WPS_BTN) ? 0 : 1;
			button_status_factory9 = gpio_read(VCHARGE_STAT) ? 0 : 1;
    637a:	91 e0       	ldi	r25, 0x01	; 1
    637c:	81 11       	cpse	r24, r1
    637e:	90 e0       	ldi	r25, 0x00	; 0
			
			if ((button_status_factory2 | button_status_factory3 | button_status_factory4 | button_status_factory5 | button_status_factory6 | button_status_factory7 | button_status_factory8 | button_status_factory9) != 0)
    6380:	99 23       	and	r25, r25
    6382:	49 f0       	breq	.+18     	; 0x6396 <testMode+0xb70>
			{
				send_usart_char(" ------FAIL");
    6384:	89 e8       	ldi	r24, 0x89	; 137
    6386:	94 e0       	ldi	r25, 0x04	; 4
    6388:	7e d8       	rcall	.-3844   	; 0x5486 <send_usart_char>
				send_usart_char("\r\nMultiple Input Turn On ...");
    638a:	85 e9       	ldi	r24, 0x95	; 149
    638c:	94 e0       	ldi	r25, 0x04	; 4
    638e:	7b d8       	rcall	.-3850   	; 0x5486 <send_usart_char>
				button = button1;
    6390:	10 92 59 20 	sts	0x2059, r1
    6394:	45 c0       	rjmp	.+138    	; 0x6420 <testMode+0xbfa>
			}
			else
			{
				gpio_clr(STATUS_LED_1);
    6396:	60 91 5f 20 	lds	r22, 0x205F
    639a:	70 91 60 20 	lds	r23, 0x2060
    639e:	80 91 61 20 	lds	r24, 0x2061
    63a2:	0e 94 c0 0a 	call	0x1580	; 0x1580 <gpio_clr>
				gpio_clr(STATUS_LED_2);
    63a6:	60 91 81 20 	lds	r22, 0x2081
    63aa:	70 91 82 20 	lds	r23, 0x2082
    63ae:	80 91 83 20 	lds	r24, 0x2083
    63b2:	0e 94 c0 0a 	call	0x1580	; 0x1580 <gpio_clr>
				gpio_clr(CHARGING_DISABLE);
    63b6:	60 91 93 20 	lds	r22, 0x2093
    63ba:	70 91 94 20 	lds	r23, 0x2094
    63be:	80 91 95 20 	lds	r24, 0x2095
    63c2:	0e 94 c0 0a 	call	0x1580	; 0x1580 <gpio_clr>
				gpio_clr(EMER_LIGHT_EN);
    63c6:	60 91 63 20 	lds	r22, 0x2063
    63ca:	70 91 64 20 	lds	r23, 0x2064
    63ce:	80 91 65 20 	lds	r24, 0x2065
    63d2:	0e 94 c0 0a 	call	0x1580	; 0x1580 <gpio_clr>
				gpio_set(OUT_LED_CH0);
    63d6:	60 91 40 20 	lds	r22, 0x2040
    63da:	70 91 41 20 	lds	r23, 0x2041
    63de:	80 91 42 20 	lds	r24, 0x2042
    63e2:	0e 94 7c 0a 	call	0x14f8	; 0x14f8 <gpio_set>
				gpio_set(OUT_LED_CH1);
    63e6:	60 91 14 21 	lds	r22, 0x2114
    63ea:	70 91 15 21 	lds	r23, 0x2115
    63ee:	80 91 16 21 	lds	r24, 0x2116
    63f2:	0e 94 7c 0a 	call	0x14f8	; 0x14f8 <gpio_set>
				gpio_set(OUT_LED_CH2);
    63f6:	60 91 1a 21 	lds	r22, 0x211A
    63fa:	70 91 1b 21 	lds	r23, 0x211B
    63fe:	80 91 1c 21 	lds	r24, 0x211C
    6402:	0e 94 7c 0a 	call	0x14f8	; 0x14f8 <gpio_set>
				send_usart_char(" ------PASS");
    6406:	82 eb       	ldi	r24, 0xB2	; 178
    6408:	94 e0       	ldi	r25, 0x04	; 4
    640a:	3d d8       	rcall	.-3974   	; 0x5486 <send_usart_char>
				send_usart_char("\r\n------ Test Finished ------\r\n------ Successful ------");
    640c:	8a ec       	ldi	r24, 0xCA	; 202
    640e:	94 e0       	ldi	r25, 0x04	; 4
    6410:	3a d8       	rcall	.-3980   	; 0x5486 <send_usart_char>
				button = button10;
    6412:	89 e0       	ldi	r24, 0x09	; 9
    6414:	80 93 59 20 	sts	0x2059, r24
    6418:	03 c0       	rjmp	.+6      	; 0x6420 <testMode+0xbfa>
		}
		break;
		
		case button10:
		{
			option_select = option_message;
    641a:	89 e0       	ldi	r24, 0x09	; 9
    641c:	80 93 6d 20 	sts	0x206D, r24
		}
		break;
	}

}
    6420:	df 91       	pop	r29
    6422:	cf 91       	pop	r28
    6424:	1f 91       	pop	r17
    6426:	0f 91       	pop	r16
    6428:	ff 90       	pop	r15
    642a:	ef 90       	pop	r14
    642c:	df 90       	pop	r13
    642e:	08 95       	ret

00006430 <dump_eeprom>:

void dump_eeprom()
{
    6430:	0f 93       	push	r16
    6432:	1f 93       	push	r17
    6434:	cf 93       	push	r28
    6436:	df 93       	push	r29
	uint8_t block = 0;
	uint8_t memory_address_high = 0;
	uint8_t memory_address_low = 0;
	
	for (uint16_t tmpi=0; tmpi<8192; tmpi++)
    6438:	c0 e0       	ldi	r28, 0x00	; 0
    643a:	d0 e0       	ldi	r29, 0x00	; 0

}

void dump_eeprom()
{
	uint8_t block = 0;
    643c:	10 e0       	ldi	r17, 0x00	; 0
	for (uint16_t tmpi=0; tmpi<8192; tmpi++)
	{
		if(block == 32)
		{
			send_usart_char("\r\n");
			block = 0;
    643e:	00 e0       	ldi	r16, 0x00	; 0
    6440:	06 c0       	rjmp	.+12     	; 0x644e <dump_eeprom+0x1e>
	uint8_t memory_address_high = 0;
	uint8_t memory_address_low = 0;
	
	for (uint16_t tmpi=0; tmpi<8192; tmpi++)
	{
		if(block == 32)
    6442:	10 32       	cpi	r17, 0x20	; 32
    6444:	21 f4       	brne	.+8      	; 0x644e <dump_eeprom+0x1e>
		{
			send_usart_char("\r\n");
    6446:	87 e9       	ldi	r24, 0x97	; 151
    6448:	96 e0       	ldi	r25, 0x06	; 6
    644a:	1d d8       	rcall	.-4038   	; 0x5486 <send_usart_char>
			block = 0;
    644c:	10 2f       	mov	r17, r16
		}
		memory_address_low = (tmpi & 0xFF);
		memory_address_high = ((tmpi >> 8) & 0xFF);
		int_to_ascii(PNEWELSE2promRead(0xAF, 'E', memory_address_low, memory_address_high));
    644e:	2d 2f       	mov	r18, r29
    6450:	4c 2f       	mov	r20, r28
    6452:	65 e4       	ldi	r22, 0x45	; 69
    6454:	8f ea       	ldi	r24, 0xAF	; 175
    6456:	0e 94 f9 24 	call	0x49f2	; 0x49f2 <PNEWELSE2promRead>
    645a:	69 d8       	rcall	.-3886   	; 0x552e <int_to_ascii>
		send_usart_char(" ");
    645c:	89 e2       	ldi	r24, 0x29	; 41
    645e:	95 e0       	ldi	r25, 0x05	; 5
    6460:	12 d8       	rcall	.-4060   	; 0x5486 <send_usart_char>
		pne_delayms(5);
    6462:	85 e0       	ldi	r24, 0x05	; 5
    6464:	90 e0       	ldi	r25, 0x00	; 0
    6466:	0e 94 e1 23 	call	0x47c2	; 0x47c2 <pne_delayms>
		block++;
    646a:	1f 5f       	subi	r17, 0xFF	; 255
{
	uint8_t block = 0;
	uint8_t memory_address_high = 0;
	uint8_t memory_address_low = 0;
	
	for (uint16_t tmpi=0; tmpi<8192; tmpi++)
    646c:	21 96       	adiw	r28, 0x01	; 1
    646e:	c1 15       	cp	r28, r1
    6470:	80 e2       	ldi	r24, 0x20	; 32
    6472:	d8 07       	cpc	r29, r24
    6474:	31 f7       	brne	.-52     	; 0x6442 <dump_eeprom+0x12>
		send_usart_char(" ");
		pne_delayms(5);
		block++;
		
	}
	option_select = option_message;
    6476:	89 e0       	ldi	r24, 0x09	; 9
    6478:	80 93 6d 20 	sts	0x206D, r24
}
    647c:	df 91       	pop	r29
    647e:	cf 91       	pop	r28
    6480:	1f 91       	pop	r17
    6482:	0f 91       	pop	r16
    6484:	08 95       	ret

00006486 <readE2prom>:
uint8_t readE2prom(uint16_t address)
{
	uint8_t cache = 0;
	uint8_t memory_address_low = (address & 0xFF);
	uint8_t memory_address_high = ((address >> 8) & 0xFF);
	cache = PNEWELSE2promRead(0xAF, 'E', memory_address_low, memory_address_high);
    6486:	29 2f       	mov	r18, r25
    6488:	48 2f       	mov	r20, r24
    648a:	65 e4       	ldi	r22, 0x45	; 69
    648c:	8f ea       	ldi	r24, 0xAF	; 175
    648e:	0c 94 f9 24 	jmp	0x49f2	; 0x49f2 <PNEWELSE2promRead>
	return cache;
}
    6492:	08 95       	ret

00006494 <pneDisplayInfo>:
	}
		return idle;
}

void pneDisplayInfo()
{
    6494:	ef 92       	push	r14
    6496:	ff 92       	push	r15
    6498:	0f 93       	push	r16
    649a:	1f 93       	push	r17
    649c:	cf 93       	push	r28
    649e:	df 93       	push	r29
    64a0:	cd b7       	in	r28, 0x3d	; 61
    64a2:	de b7       	in	r29, 0x3e	; 62
    64a4:	62 97       	sbiw	r28, 0x12	; 18
    64a6:	0f b6       	in	r0, 0x3f	; 63
    64a8:	f8 94       	cli
    64aa:	de bf       	out	0x3e, r29	; 62
    64ac:	0f be       	out	0x3f, r0	; 63
    64ae:	cd bf       	out	0x3d, r28	; 61
	uint8_t cache[2]={0};
		
	send_usart_char("Device information:\r\n");
    64b0:	82 e0       	ldi	r24, 0x02	; 2
    64b2:	95 e0       	ldi	r25, 0x05	; 5
    64b4:	0e 94 43 2a 	call	0x5486	; 0x5486 <send_usart_char>
	send_usart_char("\r\nPAN ID (Zone)\t: ");
    64b8:	88 e1       	ldi	r24, 0x18	; 24
    64ba:	95 e0       	ldi	r25, 0x05	; 5
    64bc:	0e 94 43 2a 	call	0x5486	; 0x5486 <send_usart_char>
	cache[0] = readE2prom(DEVICE_PAN_H);
    64c0:	81 e0       	ldi	r24, 0x01	; 1
    64c2:	90 e1       	ldi	r25, 0x10	; 16
    64c4:	e0 df       	rcall	.-64     	; 0x6486 <readE2prom>
    64c6:	18 2f       	mov	r17, r24
	cache[1] = readE2prom(DEVICE_PAN_L);
    64c8:	80 e0       	ldi	r24, 0x00	; 0
    64ca:	90 e1       	ldi	r25, 0x10	; 16
    64cc:	dc df       	rcall	.-72     	; 0x6486 <readE2prom>
	PNEWELS_Buffer.devicePAN = cache[0];
    64ce:	21 2f       	mov	r18, r17
    64d0:	30 e0       	ldi	r19, 0x00	; 0
	PNEWELS_Buffer.devicePAN = PNEWELS_Buffer.devicePAN << 8;
    64d2:	32 2f       	mov	r19, r18
    64d4:	22 27       	eor	r18, r18
	PNEWELS_Buffer.devicePAN |= cache[1];
    64d6:	a9 01       	movw	r20, r18
    64d8:	48 2b       	or	r20, r24
    64da:	ca 01       	movw	r24, r20
    64dc:	0f 2e       	mov	r0, r31
    64de:	f6 e1       	ldi	r31, 0x16	; 22
    64e0:	ef 2e       	mov	r14, r31
    64e2:	f0 e2       	ldi	r31, 0x20	; 32
    64e4:	ff 2e       	mov	r15, r31
    64e6:	f0 2d       	mov	r31, r0
    64e8:	f7 01       	movw	r30, r14
    64ea:	96 8f       	std	Z+30, r25	; 0x1e
    64ec:	85 8f       	std	Z+29, r24	; 0x1d
	int_to_ascii((uint8_t)(PNEWELS_Buffer.devicePAN>>8));
    64ee:	89 2f       	mov	r24, r25
    64f0:	1e d8       	rcall	.-4036   	; 0x552e <int_to_ascii>
	int_to_ascii((uint8_t)PNEWELS_Buffer.devicePAN);
    64f2:	f7 01       	movw	r30, r14
    64f4:	85 8d       	ldd	r24, Z+29	; 0x1d
    64f6:	1b d8       	rcall	.-4042   	; 0x552e <int_to_ascii>
	
// 	send_usart_char("\r\nNode ID\t\t: ");
// 	PNEWELS_Buffer.nodeID = readE2prom(NODE_ID);
// 	int_to_ascii(PNEWELS_Buffer.nodeID);
	
	send_usart_char("\r\nDevice address\t: ");
    64f8:	8b e2       	ldi	r24, 0x2B	; 43
    64fa:	95 e0       	ldi	r25, 0x05	; 5
    64fc:	0e 94 43 2a 	call	0x5486	; 0x5486 <send_usart_char>
	cache[0] = readE2prom(DEVICE_ADDRESS_H);
    6500:	8d ef       	ldi	r24, 0xFD	; 253
    6502:	9f e0       	ldi	r25, 0x0F	; 15
    6504:	c0 df       	rcall	.-128    	; 0x6486 <readE2prom>
    6506:	18 2f       	mov	r17, r24
	cache[1] = readE2prom(DEVICE_ADDRESS_L);
    6508:	8c ef       	ldi	r24, 0xFC	; 252
    650a:	9f e0       	ldi	r25, 0x0F	; 15
    650c:	bc df       	rcall	.-136    	; 0x6486 <readE2prom>
	PNEWELS_Buffer.deviceAddress = cache[0];
    650e:	21 2f       	mov	r18, r17
    6510:	30 e0       	ldi	r19, 0x00	; 0
	PNEWELS_Buffer.deviceAddress = PNEWELS_Buffer.deviceAddress << 8;
    6512:	32 2f       	mov	r19, r18
    6514:	22 27       	eor	r18, r18
	PNEWELS_Buffer.deviceAddress |= cache[1];
    6516:	a9 01       	movw	r20, r18
    6518:	48 2b       	or	r20, r24
    651a:	ca 01       	movw	r24, r20
    651c:	f7 01       	movw	r30, r14
    651e:	94 8f       	std	Z+28, r25	; 0x1c
    6520:	83 8f       	std	Z+27, r24	; 0x1b
	int_to_ascii((uint8_t)(PNEWELS_Buffer.deviceAddress>>8));
    6522:	89 2f       	mov	r24, r25
    6524:	04 d8       	rcall	.-4088   	; 0x552e <int_to_ascii>
	int_to_ascii((uint8_t)(PNEWELS_Buffer.deviceAddress));
    6526:	f7 01       	movw	r30, r14
    6528:	83 8d       	ldd	r24, Z+27	; 0x1b
    652a:	01 d8       	rcall	.-4094   	; 0x552e <int_to_ascii>
	
	send_usart_char("\r\nDevice channel\t: ");
    652c:	8f e3       	ldi	r24, 0x3F	; 63
    652e:	95 e0       	ldi	r25, 0x05	; 5
    6530:	0e 94 43 2a 	call	0x5486	; 0x5486 <send_usart_char>
	cache[0] = readE2prom(DEVICE_CHANNEL_H);
    6534:	8f ef       	ldi	r24, 0xFF	; 255
    6536:	9f e0       	ldi	r25, 0x0F	; 15
    6538:	a6 df       	rcall	.-180    	; 0x6486 <readE2prom>
    653a:	18 2f       	mov	r17, r24
	cache[1] = readE2prom(DEVICE_CHANNEL_L);
    653c:	8e ef       	ldi	r24, 0xFE	; 254
    653e:	9f e0       	ldi	r25, 0x0F	; 15
    6540:	a2 df       	rcall	.-188    	; 0x6486 <readE2prom>
	PNEWELS_Buffer.deviceAddress = cache[0];
    6542:	21 2f       	mov	r18, r17
    6544:	30 e0       	ldi	r19, 0x00	; 0
	PNEWELS_Buffer.deviceAddress = PNEWELS_Buffer.deviceAddress << 8;
    6546:	32 2f       	mov	r19, r18
    6548:	22 27       	eor	r18, r18
	PNEWELS_Buffer.deviceAddress |= cache[1];
    654a:	a9 01       	movw	r20, r18
    654c:	48 2b       	or	r20, r24
    654e:	ca 01       	movw	r24, r20
    6550:	f7 01       	movw	r30, r14
    6552:	94 8f       	std	Z+28, r25	; 0x1c
    6554:	83 8f       	std	Z+27, r24	; 0x1b
	int_to_ascii((uint8_t)(PNEWELS_Buffer.deviceAddress>>8));
    6556:	89 2f       	mov	r24, r25
    6558:	0e 94 97 2a 	call	0x552e	; 0x552e <int_to_ascii>
	int_to_ascii((uint8_t)(PNEWELS_Buffer.deviceAddress));
    655c:	f7 01       	movw	r30, r14
    655e:	83 8d       	ldd	r24, Z+27	; 0x1b
    6560:	0e 94 97 2a 	call	0x552e	; 0x552e <int_to_ascii>
	
	//Read EEPROM and display serial number
	uint8_t serial_addr[2] = {0x00, 0x08};
    6564:	19 82       	std	Y+1, r1	; 0x01
    6566:	88 e0       	ldi	r24, 0x08	; 8
    6568:	8a 83       	std	Y+2, r24	; 0x02
	uint8_t serial_no[16] = {0};
    656a:	7e 01       	movw	r14, r28
    656c:	f3 e0       	ldi	r31, 0x03	; 3
    656e:	ef 0e       	add	r14, r31
    6570:	f1 1c       	adc	r15, r1
    6572:	80 e1       	ldi	r24, 0x10	; 16
    6574:	f7 01       	movw	r30, r14
    6576:	11 92       	st	Z+, r1
    6578:	8a 95       	dec	r24
    657a:	e9 f7       	brne	.-6      	; 0x6576 <pneDisplayInfo+0xe2>
								
	pne_APP_TwiInit(0xBF);
    657c:	8f eb       	ldi	r24, 0xBF	; 191
    657e:	0e 94 f5 23 	call	0x47ea	; 0x47ea <pne_APP_TwiInit>
	pne_APP_TwiReceive(serial_addr, 2, 0xBF, serial_no, 16);
    6582:	00 e1       	ldi	r16, 0x10	; 16
    6584:	97 01       	movw	r18, r14
    6586:	4f eb       	ldi	r20, 0xBF	; 191
    6588:	62 e0       	ldi	r22, 0x02	; 2
    658a:	ce 01       	movw	r24, r28
    658c:	01 96       	adiw	r24, 0x01	; 1
    658e:	0e 94 76 24 	call	0x48ec	; 0x48ec <pne_APP_TwiReceive>
	send_usart_char("\r\nSerial Number   : ");
    6592:	83 e5       	ldi	r24, 0x53	; 83
    6594:	95 e0       	ldi	r25, 0x05	; 5
    6596:	0e 94 43 2a 	call	0x5486	; 0x5486 <send_usart_char>
    659a:	87 01       	movw	r16, r14
    659c:	7e 01       	movw	r14, r28
    659e:	f2 e1       	ldi	r31, 0x12	; 18
    65a0:	ef 0e       	add	r14, r31
    65a2:	f1 1c       	adc	r15, r1
							
	uint8_t compare = 0;
							
	for (compare=0; compare<15; compare++)
	{
		int_to_ascii(serial_no[compare]);
    65a4:	f8 01       	movw	r30, r16
    65a6:	81 91       	ld	r24, Z+
    65a8:	8f 01       	movw	r16, r30
    65aa:	0e 94 97 2a 	call	0x552e	; 0x552e <int_to_ascii>
		usart_putchar(USART_SERIAL_EXAMPLE, 0x2E);
    65ae:	6e e2       	ldi	r22, 0x2E	; 46
    65b0:	88 ec       	ldi	r24, 0xC8	; 200
    65b2:	90 e0       	ldi	r25, 0x00	; 0
    65b4:	0e 94 e1 06 	call	0xdc2	; 0xdc2 <usart_putchar>
	pne_APP_TwiReceive(serial_addr, 2, 0xBF, serial_no, 16);
	send_usart_char("\r\nSerial Number   : ");
							
	uint8_t compare = 0;
							
	for (compare=0; compare<15; compare++)
    65b8:	0e 15       	cp	r16, r14
    65ba:	1f 05       	cpc	r17, r15
    65bc:	99 f7       	brne	.-26     	; 0x65a4 <pneDisplayInfo+0x110>
	{
		int_to_ascii(serial_no[compare]);
		usart_putchar(USART_SERIAL_EXAMPLE, 0x2E);
	}
							
	int_to_ascii(serial_no[15]);
    65be:	8a 89       	ldd	r24, Y+18	; 0x12
    65c0:	0e 94 97 2a 	call	0x552e	; 0x552e <int_to_ascii>
							
	//Read ADC
	uint8_t battery_voltage = pneBatteryAverage();
    65c4:	0e 94 4e 3b 	call	0x769c	; 0x769c <pneBatteryAverage>
    65c8:	08 2f       	mov	r16, r24
#if defined(MUX5)
	/* if bit 6 (MUX5) is set: */
	if (input & (1 << 5)) {
		ADCSRB = (1 << MUX5);
	} else {
		ADCSRB &= ~(1 << MUX5);
    65ca:	eb e7       	ldi	r30, 0x7B	; 123
    65cc:	f0 e0       	ldi	r31, 0x00	; 0
    65ce:	90 81       	ld	r25, Z
    65d0:	97 7f       	andi	r25, 0xF7	; 247
    65d2:	90 83       	st	Z, r25
	}

	ADMUX
		= ((uint8_t)input &
    65d4:	81 e6       	ldi	r24, 0x61	; 97
    65d6:	80 93 7c 00 	sts	0x007C, r24
			ADC_MUX_MASK) | (uint8_t)vref | ADC_ADJUSTMENT_LEFT;
#else
	ADMUX = (uint8_t)input | (uint8_t)vref | ADC_ADJUSTMENT_LEFT;
#endif
	ADCSRA |= (1 << ADSC);
    65da:	ea e7       	ldi	r30, 0x7A	; 122
    65dc:	f0 e0       	ldi	r31, 0x00	; 0
    65de:	90 81       	ld	r25, Z
    65e0:	90 64       	ori	r25, 0x40	; 64
    65e2:	90 83       	st	Z, r25

	while ((ADCSRA & (1 << ADSC))) {
    65e4:	90 81       	ld	r25, Z
    65e6:	96 fd       	sbrc	r25, 6
    65e8:	fd cf       	rjmp	.-6      	; 0x65e4 <pneDisplayInfo+0x150>
			//fatal_error_to_rf(adc_fatal_error);
			//break;
		//}
	}

	return ADCH;
    65ea:	10 91 79 00 	lds	r17, 0x0079
	uint8_t battery_capacity = adc_read_8bit(ADC_EMER_LIGHT_INPUT, ADC_VREF);
							
	send_usart_char("\r\nBattery Voltage : ");
    65ee:	88 e6       	ldi	r24, 0x68	; 104
    65f0:	95 e0       	ldi	r25, 0x05	; 5
    65f2:	0e 94 43 2a 	call	0x5486	; 0x5486 <send_usart_char>
	int_to_ascii(battery_voltage);
    65f6:	80 2f       	mov	r24, r16
    65f8:	0e 94 97 2a 	call	0x552e	; 0x552e <int_to_ascii>
	send_usart_char("\r\nBattery Capacity: ");
    65fc:	8d e7       	ldi	r24, 0x7D	; 125
    65fe:	95 e0       	ldi	r25, 0x05	; 5
    6600:	0e 94 43 2a 	call	0x5486	; 0x5486 <send_usart_char>
	int_to_ascii(battery_capacity);
    6604:	81 2f       	mov	r24, r17
    6606:	0e 94 97 2a 	call	0x552e	; 0x552e <int_to_ascii>
	
	option_select = option_message;
    660a:	89 e0       	ldi	r24, 0x09	; 9
    660c:	80 93 6d 20 	sts	0x206D, r24
}
    6610:	62 96       	adiw	r28, 0x12	; 18
    6612:	0f b6       	in	r0, 0x3f	; 63
    6614:	f8 94       	cli
    6616:	de bf       	out	0x3e, r29	; 62
    6618:	0f be       	out	0x3f, r0	; 63
    661a:	cd bf       	out	0x3d, r28	; 61
    661c:	df 91       	pop	r29
    661e:	cf 91       	pop	r28
    6620:	1f 91       	pop	r17
    6622:	0f 91       	pop	r16
    6624:	ff 90       	pop	r15
    6626:	ef 90       	pop	r14
    6628:	08 95       	ret

0000662a <resetFlag>:
	int_to_ascii(data);
	/*send_usart_char("\r\n");*/
}

void resetFlag()
{
    662a:	0f 93       	push	r16
	
	uint8_t memory_address_low = (FLAG & 0xFF);
	uint8_t memory_address_high = ((FLAG >> 8) & 0xFF);
	
	switch(reset_state)
    662c:	80 91 e8 20 	lds	r24, 0x20E8
    6630:	90 e0       	ldi	r25, 0x00	; 0
    6632:	88 30       	cpi	r24, 0x08	; 8
    6634:	91 05       	cpc	r25, r1
    6636:	08 f0       	brcs	.+2      	; 0x663a <resetFlag+0x10>
    6638:	73 c0       	rjmp	.+230    	; 0x6720 <resetFlag+0xf6>
    663a:	fc 01       	movw	r30, r24
    663c:	88 27       	eor	r24, r24
    663e:	e3 58       	subi	r30, 0x83	; 131
    6640:	fe 4f       	sbci	r31, 0xFE	; 254
    6642:	8f 4f       	sbci	r24, 0xFF	; 255
    6644:	0c 94 c4 50 	jmp	0xa188	; 0xa188 <__tablejump2__>
	{
		case reset_startup_message:
		{
			send_usart_char("\r\n\r\nFlag reset mode. Select an option:\r\n\r\n");
    6648:	82 e9       	ldi	r24, 0x92	; 146
    664a:	95 e0       	ldi	r25, 0x05	; 5
    664c:	0e 94 43 2a 	call	0x5486	; 0x5486 <send_usart_char>
			send_usart_char("1. Reset all flag\r\n2. Reset Factory flag (bit0)\r\n3. Reset AC Power flag (bit1)\r\n");
    6650:	8d eb       	ldi	r24, 0xBD	; 189
    6652:	95 e0       	ldi	r25, 0x05	; 5
    6654:	0e 94 43 2a 	call	0x5486	; 0x5486 <send_usart_char>
			send_usart_char("4. Read system flag status\r\n5. Set flag\r\n0. Exit configuration mode\r\n");
    6658:	8e e0       	ldi	r24, 0x0E	; 14
    665a:	96 e0       	ldi	r25, 0x06	; 6
    665c:	0e 94 43 2a 	call	0x5486	; 0x5486 <send_usart_char>
			reset_option_flag = 1;
    6660:	81 e0       	ldi	r24, 0x01	; 1
    6662:	80 93 5b 20 	sts	0x205B, r24
			reset_state = reset_idle;
    6666:	86 e0       	ldi	r24, 0x06	; 6
    6668:	80 93 e8 20 	sts	0x20E8, r24
		}
		break;
    666c:	60 c0       	rjmp	.+192    	; 0x672e <resetFlag+0x104>
		
		case reset_all:
		{
 			PNEWELSE2promWrite(0xAE,'E',memory_address_low,memory_address_high,0xFF);
    666e:	0f ef       	ldi	r16, 0xFF	; 255
    6670:	20 e1       	ldi	r18, 0x10	; 16
    6672:	42 e0       	ldi	r20, 0x02	; 2
    6674:	65 e4       	ldi	r22, 0x45	; 69
    6676:	8e ea       	ldi	r24, 0xAE	; 174
    6678:	0e 94 ce 24 	call	0x499c	; 0x499c <PNEWELSE2promWrite>
			pne_delayms(10);
    667c:	8a e0       	ldi	r24, 0x0A	; 10
    667e:	90 e0       	ldi	r25, 0x00	; 0
    6680:	0e 94 e1 23 	call	0x47c2	; 0x47c2 <pne_delayms>
			reset_state = reset_startup_message;
    6684:	10 92 e8 20 	sts	0x20E8, r1
		}
		break;
    6688:	52 c0       	rjmp	.+164    	; 0x672e <resetFlag+0x104>
		
		case reset_bit0:
		{
			reset_cache = readE2prom(FLAG);
    668a:	82 e0       	ldi	r24, 0x02	; 2
    668c:	90 e1       	ldi	r25, 0x10	; 16
    668e:	fb de       	rcall	.-522    	; 0x6486 <readE2prom>
			reset_cache = (reset_cache | 0x01); 
    6690:	08 2f       	mov	r16, r24
    6692:	01 60       	ori	r16, 0x01	; 1
    6694:	00 93 15 20 	sts	0x2015, r16
			PNEWELSE2promWrite(0xAE,'E',memory_address_low,memory_address_high,reset_cache);
    6698:	20 e1       	ldi	r18, 0x10	; 16
    669a:	42 e0       	ldi	r20, 0x02	; 2
    669c:	65 e4       	ldi	r22, 0x45	; 69
    669e:	8e ea       	ldi	r24, 0xAE	; 174
    66a0:	0e 94 ce 24 	call	0x499c	; 0x499c <PNEWELSE2promWrite>
			reset_state = reset_startup_message;
    66a4:	10 92 e8 20 	sts	0x20E8, r1
		}
		break;
    66a8:	42 c0       	rjmp	.+132    	; 0x672e <resetFlag+0x104>
		
		case reset_bit1:
		{
			reset_cache = readE2prom(FLAG);
    66aa:	82 e0       	ldi	r24, 0x02	; 2
    66ac:	90 e1       	ldi	r25, 0x10	; 16
    66ae:	eb de       	rcall	.-554    	; 0x6486 <readE2prom>
			reset_cache = (reset_cache | 0x02); 
    66b0:	08 2f       	mov	r16, r24
    66b2:	02 60       	ori	r16, 0x02	; 2
    66b4:	00 93 15 20 	sts	0x2015, r16
			PNEWELSE2promWrite(0xAE,'E',memory_address_low,memory_address_high,reset_cache);
    66b8:	20 e1       	ldi	r18, 0x10	; 16
    66ba:	42 e0       	ldi	r20, 0x02	; 2
    66bc:	65 e4       	ldi	r22, 0x45	; 69
    66be:	8e ea       	ldi	r24, 0xAE	; 174
    66c0:	0e 94 ce 24 	call	0x499c	; 0x499c <PNEWELSE2promWrite>
			reset_state = reset_startup_message;
    66c4:	10 92 e8 20 	sts	0x20E8, r1
		}
		break;
    66c8:	32 c0       	rjmp	.+100    	; 0x672e <resetFlag+0x104>
		
		case reset_read_status:
		{
			reset_cache = readE2prom(FLAG);
    66ca:	82 e0       	ldi	r24, 0x02	; 2
    66cc:	90 e1       	ldi	r25, 0x10	; 16
    66ce:	db de       	rcall	.-586    	; 0x6486 <readE2prom>
    66d0:	80 93 15 20 	sts	0x2015, r24
			send_usart_char("\r\nSystem Flag: ");
    66d4:	84 e5       	ldi	r24, 0x54	; 84
    66d6:	96 e0       	ldi	r25, 0x06	; 6
    66d8:	0e 94 43 2a 	call	0x5486	; 0x5486 <send_usart_char>
			int_to_ascii(reset_cache);
    66dc:	80 91 15 20 	lds	r24, 0x2015
    66e0:	0e 94 97 2a 	call	0x552e	; 0x552e <int_to_ascii>
			send_usart_char("\r\n");
    66e4:	87 e9       	ldi	r24, 0x97	; 151
    66e6:	96 e0       	ldi	r25, 0x06	; 6
    66e8:	0e 94 43 2a 	call	0x5486	; 0x5486 <send_usart_char>
			reset_state = reset_startup_message;
    66ec:	10 92 e8 20 	sts	0x20E8, r1
		}
		break;
    66f0:	1e c0       	rjmp	.+60     	; 0x672e <resetFlag+0x104>

		case reset_set_flag:
		{
			reset_cache = 0xFC;
    66f2:	8c ef       	ldi	r24, 0xFC	; 252
    66f4:	80 93 15 20 	sts	0x2015, r24
			PNEWELSE2promWrite(0xAE,'E',memory_address_low,memory_address_high,reset_cache);
    66f8:	0c ef       	ldi	r16, 0xFC	; 252
    66fa:	20 e1       	ldi	r18, 0x10	; 16
    66fc:	42 e0       	ldi	r20, 0x02	; 2
    66fe:	65 e4       	ldi	r22, 0x45	; 69
    6700:	8e ea       	ldi	r24, 0xAE	; 174
    6702:	0e 94 ce 24 	call	0x499c	; 0x499c <PNEWELSE2promWrite>
			reset_state = reset_startup_message;
    6706:	10 92 e8 20 	sts	0x20E8, r1
		}
		break;
    670a:	11 c0       	rjmp	.+34     	; 0x672e <resetFlag+0x104>
		case reset_idle:
		break;
		
		case reset_exit:
		{
			reset_option_flag = 0;
    670c:	10 92 5b 20 	sts	0x205B, r1
			option_select = option_message;
    6710:	89 e0       	ldi	r24, 0x09	; 9
    6712:	80 93 6d 20 	sts	0x206D, r24
			config_state = config_startup_message;
    6716:	10 92 58 20 	sts	0x2058, r1
			reset_state = reset_startup_message;
    671a:	10 92 e8 20 	sts	0x20E8, r1
			break;
    671e:	07 c0       	rjmp	.+14     	; 0x672e <resetFlag+0x104>
		}
		default:
		option_select = option_message;
    6720:	89 e0       	ldi	r24, 0x09	; 9
    6722:	80 93 6d 20 	sts	0x206D, r24
		config_state = config_startup_message;
    6726:	10 92 58 20 	sts	0x2058, r1
		reset_state = reset_startup_message;
    672a:	10 92 e8 20 	sts	0x20E8, r1
		break;
		
	}
}
    672e:	0f 91       	pop	r16
    6730:	08 95       	ret

00006732 <dump_log_file>:
	cache = PNEWELSE2promRead(0xAF, 'E', memory_address_low, memory_address_high);
	return cache;
}

void dump_log_file()
{
    6732:	0f 93       	push	r16
    6734:	1f 93       	push	r17
    6736:	cf 93       	push	r28
    6738:	df 93       	push	r29
	uint8_t block = 0;
	uint8_t memory_address_high = 0;
	uint8_t memory_address_low = 0;
	
	for (uint16_t tmpi=0; tmpi<4092; tmpi++)
    673a:	c0 e0       	ldi	r28, 0x00	; 0
    673c:	d0 e0       	ldi	r29, 0x00	; 0
	return cache;
}

void dump_log_file()
{
	uint8_t block = 0;
    673e:	10 e0       	ldi	r17, 0x00	; 0
	for (uint16_t tmpi=0; tmpi<4092; tmpi++)
	{
		if(block == 11)
		{
			send_usart_char("\r\n");
			block = 0;
    6740:	00 e0       	ldi	r16, 0x00	; 0
    6742:	07 c0       	rjmp	.+14     	; 0x6752 <dump_log_file+0x20>
	uint8_t memory_address_high = 0;
	uint8_t memory_address_low = 0;
	
	for (uint16_t tmpi=0; tmpi<4092; tmpi++)
	{
		if(block == 11)
    6744:	1b 30       	cpi	r17, 0x0B	; 11
    6746:	29 f4       	brne	.+10     	; 0x6752 <dump_log_file+0x20>
		{
			send_usart_char("\r\n");
    6748:	87 e9       	ldi	r24, 0x97	; 151
    674a:	96 e0       	ldi	r25, 0x06	; 6
    674c:	0e 94 43 2a 	call	0x5486	; 0x5486 <send_usart_char>
			block = 0;
    6750:	10 2f       	mov	r17, r16
		}
		memory_address_low = (tmpi & 0xFF);
		memory_address_high = ((tmpi >> 8) & 0xFF);
		int_to_ascii(PNEWELSE2promRead(0xAF, 'E', memory_address_low, memory_address_high));
    6752:	2d 2f       	mov	r18, r29
    6754:	4c 2f       	mov	r20, r28
    6756:	65 e4       	ldi	r22, 0x45	; 69
    6758:	8f ea       	ldi	r24, 0xAF	; 175
    675a:	0e 94 f9 24 	call	0x49f2	; 0x49f2 <PNEWELSE2promRead>
    675e:	0e 94 97 2a 	call	0x552e	; 0x552e <int_to_ascii>
		send_usart_char(" ");
    6762:	89 e2       	ldi	r24, 0x29	; 41
    6764:	95 e0       	ldi	r25, 0x05	; 5
    6766:	0e 94 43 2a 	call	0x5486	; 0x5486 <send_usart_char>
		pne_delayms(5);
    676a:	85 e0       	ldi	r24, 0x05	; 5
    676c:	90 e0       	ldi	r25, 0x00	; 0
    676e:	0e 94 e1 23 	call	0x47c2	; 0x47c2 <pne_delayms>
		block++;
    6772:	1f 5f       	subi	r17, 0xFF	; 255
{
	uint8_t block = 0;
	uint8_t memory_address_high = 0;
	uint8_t memory_address_low = 0;
	
	for (uint16_t tmpi=0; tmpi<4092; tmpi++)
    6774:	21 96       	adiw	r28, 0x01	; 1
    6776:	cc 3f       	cpi	r28, 0xFC	; 252
    6778:	8f e0       	ldi	r24, 0x0F	; 15
    677a:	d8 07       	cpc	r29, r24
    677c:	19 f7       	brne	.-58     	; 0x6744 <dump_log_file+0x12>
		send_usart_char(" ");
		pne_delayms(5);
		block++;
		
	}
	option_select = option_message;
    677e:	89 e0       	ldi	r24, 0x09	; 9
    6780:	80 93 6d 20 	sts	0x206D, r24
}
    6784:	df 91       	pop	r29
    6786:	cf 91       	pop	r28
    6788:	1f 91       	pop	r17
    678a:	0f 91       	pop	r16
    678c:	08 95       	ret

0000678e <erase_memory>:

void erase_memory()
{
	clre2prom();
    678e:	0e 94 53 25 	call	0x4aa6	; 0x4aa6 <clre2prom>
	option_select = option_message;
    6792:	89 e0       	ldi	r24, 0x09	; 9
    6794:	80 93 6d 20 	sts	0x206D, r24
    6798:	08 95       	ret

0000679a <writeE2prom>:
}

void writeE2prom(uint16_t address, uint8_t data)
{
    679a:	0f 93       	push	r16
	uint8_t memory_address_low = (address & 0xFF);
	uint8_t memory_address_high = ((address >> 8) & 0xFF);
	PNEWELSE2promWrite(0xAE, 'E', memory_address_low, memory_address_high, data);
    679c:	06 2f       	mov	r16, r22
    679e:	29 2f       	mov	r18, r25
    67a0:	48 2f       	mov	r20, r24
    67a2:	65 e4       	ldi	r22, 0x45	; 69
    67a4:	8e ea       	ldi	r24, 0xAE	; 174
    67a6:	0e 94 ce 24 	call	0x499c	; 0x499c <PNEWELSE2promWrite>
	pne_delayms(10);
    67aa:	8a e0       	ldi	r24, 0x0A	; 10
    67ac:	90 e0       	ldi	r25, 0x00	; 0
    67ae:	0e 94 e1 23 	call	0x47c2	; 0x47c2 <pne_delayms>
}
    67b2:	0f 91       	pop	r16
    67b4:	08 95       	ret

000067b6 <battery_config>:

void battery_config()
{	
	switch(battery_state)
    67b6:	80 91 13 21 	lds	r24, 0x2113
    67ba:	82 30       	cpi	r24, 0x02	; 2
    67bc:	79 f1       	breq	.+94     	; 0x681c <battery_config+0x66>
    67be:	28 f4       	brcc	.+10     	; 0x67ca <battery_config+0x14>
    67c0:	88 23       	and	r24, r24
    67c2:	59 f0       	breq	.+22     	; 0x67da <battery_config+0x24>
    67c4:	81 30       	cpi	r24, 0x01	; 1
    67c6:	e1 f0       	breq	.+56     	; 0x6800 <battery_config+0x4a>
    67c8:	66 c0       	rjmp	.+204    	; 0x6896 <battery_config+0xe0>
    67ca:	84 30       	cpi	r24, 0x04	; 4
    67cc:	09 f4       	brne	.+2      	; 0x67d0 <battery_config+0x1a>
    67ce:	6a c0       	rjmp	.+212    	; 0x68a4 <battery_config+0xee>
    67d0:	98 f1       	brcs	.+102    	; 0x6838 <battery_config+0x82>
    67d2:	85 30       	cpi	r24, 0x05	; 5
    67d4:	09 f4       	brne	.+2      	; 0x67d8 <battery_config+0x22>
    67d6:	55 c0       	rjmp	.+170    	; 0x6882 <battery_config+0xcc>
    67d8:	5e c0       	rjmp	.+188    	; 0x6896 <battery_config+0xe0>
	{
		case battery_startup_message:
		{
			send_usart_char("\r\n\r\nBattery Configuration Mode. Select an option:\r\n\r\n");
    67da:	84 e6       	ldi	r24, 0x64	; 100
    67dc:	96 e0       	ldi	r25, 0x06	; 6
    67de:	0e 94 43 2a 	call	0x5486	; 0x5486 <send_usart_char>
			send_usart_char("1. Set Battery Low Threshold\r\n2. Set Battery Max Threshold\r\n");
    67e2:	8a e9       	ldi	r24, 0x9A	; 154
    67e4:	96 e0       	ldi	r25, 0x06	; 6
    67e6:	0e 94 43 2a 	call	0x5486	; 0x5486 <send_usart_char>
			send_usart_char("3. Display Battery Threshold\r\n0. Exit\r\n");
    67ea:	87 ed       	ldi	r24, 0xD7	; 215
    67ec:	96 e0       	ldi	r25, 0x06	; 6
    67ee:	0e 94 43 2a 	call	0x5486	; 0x5486 <send_usart_char>
			battery_option_flag = 1;
    67f2:	81 e0       	ldi	r24, 0x01	; 1
    67f4:	80 93 5a 20 	sts	0x205A, r24
			battery_state = battery_idle;
    67f8:	84 e0       	ldi	r24, 0x04	; 4
    67fa:	80 93 13 21 	sts	0x2113, r24
		}
		break;
    67fe:	08 95       	ret
		
		case batteryLow:
		{
			send_usart_char("Enter battery low threshold value (00-FF): \r\n");
    6800:	8f ef       	ldi	r24, 0xFF	; 255
    6802:	96 e0       	ldi	r25, 0x06	; 6
    6804:	0e 94 43 2a 	call	0x5486	; 0x5486 <send_usart_char>
			config_read_input(BATTERY_LOW, '1', batteryLOW_display);
    6808:	40 e6       	ldi	r20, 0x60	; 96
    680a:	58 e0       	ldi	r21, 0x08	; 8
    680c:	61 e3       	ldi	r22, 0x31	; 49
    680e:	84 e0       	ldi	r24, 0x04	; 4
    6810:	90 e1       	ldi	r25, 0x10	; 16
    6812:	0e 94 19 2b 	call	0x5632	; 0x5632 <config_read_input>
			battery_state = battery_startup_message;
    6816:	10 92 13 21 	sts	0x2113, r1
		}
		break;
    681a:	08 95       	ret
		
		case batteryMax:
		{
			send_usart_char("Enter battery max threshold value (00-FF): \r\n");
    681c:	8d e2       	ldi	r24, 0x2D	; 45
    681e:	97 e0       	ldi	r25, 0x07	; 7
    6820:	0e 94 43 2a 	call	0x5486	; 0x5486 <send_usart_char>
			config_read_input(BATTERY_MAX, '1', batteryMAX_display);
    6824:	4a e4       	ldi	r20, 0x4A	; 74
    6826:	58 e0       	ldi	r21, 0x08	; 8
    6828:	61 e3       	ldi	r22, 0x31	; 49
    682a:	83 e0       	ldi	r24, 0x03	; 3
    682c:	90 e1       	ldi	r25, 0x10	; 16
    682e:	0e 94 19 2b 	call	0x5632	; 0x5632 <config_read_input>
			battery_state = battery_startup_message;
    6832:	10 92 13 21 	sts	0x2113, r1
		}
		break;
    6836:	08 95       	ret
		
		case batteryStatus:
		{
			battery_cache = readE2prom(BATTERY_LOW);
    6838:	84 e0       	ldi	r24, 0x04	; 4
    683a:	90 e1       	ldi	r25, 0x10	; 16
    683c:	24 de       	rcall	.-952    	; 0x6486 <readE2prom>
    683e:	80 93 18 21 	sts	0x2118, r24
			send_usart_char("\r\nBattery Low Threshold: ");
    6842:	8b e5       	ldi	r24, 0x5B	; 91
    6844:	97 e0       	ldi	r25, 0x07	; 7
    6846:	0e 94 43 2a 	call	0x5486	; 0x5486 <send_usart_char>
			int_to_ascii(battery_cache);
    684a:	80 91 18 21 	lds	r24, 0x2118
    684e:	0e 94 97 2a 	call	0x552e	; 0x552e <int_to_ascii>
			send_usart_char("\r\n");
    6852:	87 e9       	ldi	r24, 0x97	; 151
    6854:	96 e0       	ldi	r25, 0x06	; 6
    6856:	0e 94 43 2a 	call	0x5486	; 0x5486 <send_usart_char>
			battery_cache = readE2prom(BATTERY_MAX);
    685a:	83 e0       	ldi	r24, 0x03	; 3
    685c:	90 e1       	ldi	r25, 0x10	; 16
    685e:	13 de       	rcall	.-986    	; 0x6486 <readE2prom>
    6860:	80 93 18 21 	sts	0x2118, r24
			send_usart_char("\r\nBattery MAX Threshold: ");
    6864:	85 e7       	ldi	r24, 0x75	; 117
    6866:	97 e0       	ldi	r25, 0x07	; 7
    6868:	0e 94 43 2a 	call	0x5486	; 0x5486 <send_usart_char>
			int_to_ascii(battery_cache);
    686c:	80 91 18 21 	lds	r24, 0x2118
    6870:	0e 94 97 2a 	call	0x552e	; 0x552e <int_to_ascii>
			send_usart_char("\r\n");
    6874:	87 e9       	ldi	r24, 0x97	; 151
    6876:	96 e0       	ldi	r25, 0x06	; 6
    6878:	0e 94 43 2a 	call	0x5486	; 0x5486 <send_usart_char>
			battery_state = battery_startup_message;
    687c:	10 92 13 21 	sts	0x2113, r1
		}
		break;
    6880:	08 95       	ret
		case battery_idle:
		break;
		
		case battery_exit:
		{
			battery_option_flag = 0;
    6882:	10 92 5a 20 	sts	0x205A, r1
			option_select = option_message;
    6886:	89 e0       	ldi	r24, 0x09	; 9
    6888:	80 93 6d 20 	sts	0x206D, r24
			config_state = config_startup_message;
    688c:	10 92 58 20 	sts	0x2058, r1
			battery_state = battery_startup_message;
    6890:	10 92 13 21 	sts	0x2113, r1
			break;
    6894:	08 95       	ret
		}
		default:
		option_select = option_message;
    6896:	89 e0       	ldi	r24, 0x09	; 9
    6898:	80 93 6d 20 	sts	0x206D, r24
		config_state = config_startup_message;
    689c:	10 92 58 20 	sts	0x2058, r1
		battery_state = battery_startup_message;
    68a0:	10 92 13 21 	sts	0x2113, r1
    68a4:	08 95       	ret

000068a6 <batterySelect>:


uint8_t batterySelect()
{
	//uint8_t real_command[6] = "123456";
	flag = 0;
    68a6:	10 92 57 20 	sts	0x2057, r1
	
	switch(commamd[0])
    68aa:	80 91 98 20 	lds	r24, 0x2098
    68ae:	81 33       	cpi	r24, 0x31	; 49
    68b0:	a9 f0       	breq	.+42     	; 0x68dc <batterySelect+0x36>
    68b2:	18 f4       	brcc	.+6      	; 0x68ba <batterySelect+0x14>
    68b4:	80 33       	cpi	r24, 0x30	; 48
    68b6:	51 f0       	breq	.+20     	; 0x68cc <batterySelect+0x26>
    68b8:	0b c0       	rjmp	.+22     	; 0x68d0 <batterySelect+0x2a>
    68ba:	82 33       	cpi	r24, 0x32	; 50
    68bc:	19 f0       	breq	.+6      	; 0x68c4 <batterySelect+0x1e>
    68be:	83 33       	cpi	r24, 0x33	; 51
    68c0:	19 f0       	breq	.+6      	; 0x68c8 <batterySelect+0x22>
    68c2:	06 c0       	rjmp	.+12     	; 0x68d0 <batterySelect+0x2a>
		case '1':
		return batteryLow;
		break;
		
		case '2':
		return batteryMax;
    68c4:	82 e0       	ldi	r24, 0x02	; 2
    68c6:	08 95       	ret
		break;
		
		case '3':
		return batteryStatus;
    68c8:	83 e0       	ldi	r24, 0x03	; 3
    68ca:	08 95       	ret
		break;
		
		case '0':
		return battery_exit;
    68cc:	85 e0       	ldi	r24, 0x05	; 5
    68ce:	08 95       	ret
		break;
		
		default:
		{
			send_usart_char("Invalid command\r\n");
    68d0:	8a e4       	ldi	r24, 0x4A	; 74
    68d2:	93 e0       	ldi	r25, 0x03	; 3
    68d4:	0e 94 43 2a 	call	0x5486	; 0x5486 <send_usart_char>
			return  battery_idle;
    68d8:	84 e0       	ldi	r24, 0x04	; 4
    68da:	08 95       	ret
	flag = 0;
	
	switch(commamd[0])
	{
		case '1':
		return batteryLow;
    68dc:	81 e0       	ldi	r24, 0x01	; 1
			return  battery_idle;
		}
		break;
		
	}
    68de:	08 95       	ret

000068e0 <factory_mode>:
#include "appBattery.h"

//---------- main routine for factory mode ----------//
void factory_mode(void)
{
	configuration_flag = 0; 
    68e0:	10 92 91 20 	sts	0x2091, r1
	reset_option_flag = 0;
    68e4:	10 92 5b 20 	sts	0x205B, r1
	config_waiting_input = 0;
    68e8:	10 92 bd 20 	sts	0x20BD, r1
	flag = 0;
    68ec:	10 92 57 20 	sts	0x2057, r1
	count_usart = 0;
    68f0:	10 92 7b 20 	sts	0x207B, r1
	usart_state = Usart_start;
    68f4:	10 92 ea 20 	sts	0x20EA, r1
	factory_state = factory_startup_message;
    68f8:	10 92 11 21 	sts	0x2111, r1
	factory_command = groupID_command;
    68fc:	10 92 56 20 	sts	0x2056, r1
	config_state = config_startup_message;
    6900:	10 92 58 20 	sts	0x2058, r1
	reset_state = reset_startup_message;
    6904:	10 92 e8 20 	sts	0x20E8, r1
	config_command = groupID_config;
    6908:	10 92 19 21 	sts	0x2119, r1
	button = button1;
    690c:	10 92 59 20 	sts	0x2059, r1
	option_select = option_message;
    6910:	89 e0       	ldi	r24, 0x09	; 9
    6912:	80 93 6d 20 	sts	0x206D, r24
	battery_option_flag = 0;
    6916:	10 92 5a 20 	sts	0x205A, r1
	battery_state = battery_startup_message;
    691a:	10 92 13 21 	sts	0x2113, r1
    691e:	e8 e9       	ldi	r30, 0x98	; 152
    6920:	f0 e2       	ldi	r31, 0x20	; 32
    6922:	85 ea       	ldi	r24, 0xA5	; 165
    6924:	90 e2       	ldi	r25, 0x20	; 32
	
	for (uint8_t i=0; i<max_command_length; i++)
	{
		commamd[i] = 0;
    6926:	11 92       	st	Z+, r1
	button = button1;
	option_select = option_message;
	battery_option_flag = 0;
	battery_state = battery_startup_message;
	
	for (uint8_t i=0; i<max_command_length; i++)
    6928:	e8 17       	cp	r30, r24
    692a:	f9 07       	cpc	r31, r25
    692c:	e1 f7       	brne	.-8      	; 0x6926 <factory_mode+0x46>
	}


	while (1)
	{
		if(flag == 1)
    692e:	80 91 57 20 	lds	r24, 0x2057
    6932:	81 30       	cpi	r24, 0x01	; 1
    6934:	f1 f4       	brne	.+60     	; 0x6972 <factory_mode+0x92>
		{
			if(configuration_flag == 1)
    6936:	80 91 91 20 	lds	r24, 0x2091
    693a:	81 30       	cpi	r24, 0x01	; 1
    693c:	29 f4       	brne	.+10     	; 0x6948 <factory_mode+0x68>
				config_state = configSelect();
    693e:	0e 94 db 2a 	call	0x55b6	; 0x55b6 <configSelect>
    6942:	80 93 58 20 	sts	0x2058, r24
    6946:	15 c0       	rjmp	.+42     	; 0x6972 <factory_mode+0x92>
			else if(reset_option_flag == 1)
    6948:	80 91 5b 20 	lds	r24, 0x205B
    694c:	81 30       	cpi	r24, 0x01	; 1
    694e:	29 f4       	brne	.+10     	; 0x695a <factory_mode+0x7a>
				reset_state = resetSelect();
    6950:	0e 94 f0 2b 	call	0x57e0	; 0x57e0 <resetSelect>
    6954:	80 93 e8 20 	sts	0x20E8, r24
    6958:	0c c0       	rjmp	.+24     	; 0x6972 <factory_mode+0x92>
			else if(battery_option_flag == 1)
    695a:	80 91 5a 20 	lds	r24, 0x205A
    695e:	81 30       	cpi	r24, 0x01	; 1
    6960:	21 f4       	brne	.+8      	; 0x696a <factory_mode+0x8a>
				battery_state = batterySelect();
    6962:	a1 df       	rcall	.-190    	; 0x68a6 <batterySelect>
    6964:	80 93 13 21 	sts	0x2113, r24
    6968:	04 c0       	rjmp	.+8      	; 0x6972 <factory_mode+0x92>
			else option_select = optionSelect();
    696a:	0e 94 b3 2a 	call	0x5566	; 0x5566 <optionSelect>
    696e:	80 93 6d 20 	sts	0x206D, r24
		}
		
		switch(option_select)
    6972:	e0 91 6d 20 	lds	r30, 0x206D
    6976:	8e 2f       	mov	r24, r30
    6978:	90 e0       	ldi	r25, 0x00	; 0
    697a:	fc 01       	movw	r30, r24
    697c:	31 97       	sbiw	r30, 0x01	; 1
    697e:	e9 30       	cpi	r30, 0x09	; 9
    6980:	f1 05       	cpc	r31, r1
    6982:	a8 f6       	brcc	.-86     	; 0x692e <factory_mode+0x4e>
    6984:	88 27       	eor	r24, r24
    6986:	eb 57       	subi	r30, 0x7B	; 123
    6988:	fe 4f       	sbci	r31, 0xFE	; 254
    698a:	8f 4f       	sbci	r24, 0xFF	; 255
    698c:	0c 94 c4 50 	jmp	0xa188	; 0xa188 <__tablejump2__>
		{
			case config:
				pneConfiguration();
    6990:	0e 94 9f 2b 	call	0x573e	; 0x573e <pneConfiguration>
			break;
    6994:	cc cf       	rjmp	.-104    	; 0x692e <factory_mode+0x4e>
			
			case display_info:
				pneDisplayInfo();
    6996:	7e dd       	rcall	.-1284   	; 0x6494 <pneDisplayInfo>
			break;
    6998:	ca cf       	rjmp	.-108    	; 0x692e <factory_mode+0x4e>
			
			case reset_flag:
				resetFlag();
    699a:	47 de       	rcall	.-882    	; 0x662a <resetFlag>
			break;
    699c:	c8 cf       	rjmp	.-112    	; 0x692e <factory_mode+0x4e>
			
			case option_message:
			{
				//Welcome Message	
				send_usart_char("\r\n\r\n\r\nPNEWELS ");
    699e:	8f e8       	ldi	r24, 0x8F	; 143
    69a0:	97 e0       	ldi	r25, 0x07	; 7
    69a2:	0e 94 43 2a 	call	0x5486	; 0x5486 <send_usart_char>
				send_usart_char(version);
    69a6:	8e e9       	ldi	r24, 0x9E	; 158
    69a8:	97 e0       	ldi	r25, 0x07	; 7
    69aa:	0e 94 43 2a 	call	0x5486	; 0x5486 <send_usart_char>
				send_usart_char(" ");
    69ae:	89 e2       	ldi	r24, 0x29	; 41
    69b0:	95 e0       	ldi	r25, 0x05	; 5
    69b2:	0e 94 43 2a 	call	0x5486	; 0x5486 <send_usart_char>
				send_usart_char(version_date);
    69b6:	8d ea       	ldi	r24, 0xAD	; 173
    69b8:	97 e0       	ldi	r25, 0x07	; 7
    69ba:	0e 94 43 2a 	call	0x5486	; 0x5486 <send_usart_char>
				send_usart_char("\r\n");
    69be:	87 e9       	ldi	r24, 0x97	; 151
    69c0:	96 e0       	ldi	r25, 0x06	; 6
    69c2:	0e 94 43 2a 	call	0x5486	; 0x5486 <send_usart_char>
				send_usart_char("1. Configuration\r\n2. Display info\r\n3. Test mode\r\n4. Reset device flag\r\n");
    69c6:	82 eb       	ldi	r24, 0xB2	; 178
    69c8:	97 e0       	ldi	r25, 0x07	; 7
    69ca:	0e 94 43 2a 	call	0x5486	; 0x5486 <send_usart_char>
				send_usart_char("5. Dump Memory\r\n6. Dump Log Files\r\n7. Format Memory\r\n8. Battery Configuration\r\n");
    69ce:	8a ef       	ldi	r24, 0xFA	; 250
    69d0:	97 e0       	ldi	r25, 0x07	; 7
    69d2:	0e 94 43 2a 	call	0x5486	; 0x5486 <send_usart_char>
				option_select = idle;
    69d6:	10 92 6d 20 	sts	0x206D, r1
			}
			break;
    69da:	a9 cf       	rjmp	.-174    	; 0x692e <factory_mode+0x4e>
			
			case test_mode:
				testMode();
    69dc:	0e 94 13 2c 	call	0x5826	; 0x5826 <testMode>
			break;
    69e0:	a6 cf       	rjmp	.-180    	; 0x692e <factory_mode+0x4e>
			
			case dump_memory:
				dump_eeprom();
    69e2:	26 dd       	rcall	.-1460   	; 0x6430 <dump_eeprom>
			break;
    69e4:	a4 cf       	rjmp	.-184    	; 0x692e <factory_mode+0x4e>
			
			case dump_log:
				dump_log_file();
    69e6:	a5 de       	rcall	.-694    	; 0x6732 <dump_log_file>
			break;
    69e8:	a2 cf       	rjmp	.-188    	; 0x692e <factory_mode+0x4e>

			case wipe_memory:
				erase_memory();
    69ea:	d1 de       	rcall	.-606    	; 0x678e <erase_memory>
			break;
    69ec:	a0 cf       	rjmp	.-192    	; 0x692e <factory_mode+0x4e>
			
			case battery_set:
				battery_config();
    69ee:	e3 de       	rcall	.-570    	; 0x67b6 <battery_config>
			break;	
    69f0:	9e cf       	rjmp	.-196    	; 0x692e <factory_mode+0x4e>

000069f2 <packet_data>:
void charge_to_rf()
{
	uint16_t address = memory_address_incr - 11;
	eeprom_to_rf(address);
	address = memory_address_incr - 22;
	eeprom_to_rf(address);
    69f2:	2f 92       	push	r2
    69f4:	3f 92       	push	r3
    69f6:	4f 92       	push	r4
    69f8:	5f 92       	push	r5
    69fa:	6f 92       	push	r6
    69fc:	7f 92       	push	r7
    69fe:	8f 92       	push	r8
    6a00:	9f 92       	push	r9
    6a02:	af 92       	push	r10
    6a04:	bf 92       	push	r11
    6a06:	cf 92       	push	r12
    6a08:	df 92       	push	r13
    6a0a:	ef 92       	push	r14
    6a0c:	ff 92       	push	r15
    6a0e:	0f 93       	push	r16
    6a10:	1f 93       	push	r17
    6a12:	cf 93       	push	r28
    6a14:	df 93       	push	r29
    6a16:	cd b7       	in	r28, 0x3d	; 61
    6a18:	de b7       	in	r29, 0x3e	; 62
    6a1a:	28 97       	sbiw	r28, 0x08	; 8
    6a1c:	0f b6       	in	r0, 0x3f	; 63
    6a1e:	f8 94       	cli
    6a20:	de bf       	out	0x3e, r29	; 62
    6a22:	0f be       	out	0x3f, r0	; 63
    6a24:	cd bf       	out	0x3d, r28	; 61
    6a26:	e6 e1       	ldi	r30, 0x16	; 22
    6a28:	f0 e2       	ldi	r31, 0x20	; 32
    6a2a:	c7 8c       	ldd	r12, Z+31	; 0x1f
    6a2c:	20 e8       	ldi	r18, 0x80	; 128
    6a2e:	c2 9e       	mul	r12, r18
    6a30:	60 01       	movw	r12, r0
    6a32:	11 24       	eor	r1, r1
    6a34:	d4 80       	ldd	r13, Z+4	; 0x04
    6a36:	8d 2d       	mov	r24, r13
    6a38:	81 70       	andi	r24, 0x01	; 1
    6a3a:	c8 2a       	or	r12, r24
    6a3c:	d3 80       	ldd	r13, Z+3	; 0x03
    6a3e:	d0 fa       	bst	r13, 0
    6a40:	ee 24       	eor	r14, r14
    6a42:	e0 f8       	bld	r14, 0
    6a44:	f1 2c       	mov	r15, r1
    6a46:	ee 0c       	add	r14, r14
    6a48:	ff 1c       	adc	r15, r15
    6a4a:	ec 28       	or	r14, r12
    6a4c:	f7 80       	ldd	r15, Z+7	; 0x07
    6a4e:	0f 2d       	mov	r16, r15
    6a50:	01 70       	andi	r16, 0x01	; 1
    6a52:	10 e0       	ldi	r17, 0x00	; 0
    6a54:	00 0f       	add	r16, r16
    6a56:	11 1f       	adc	r17, r17
    6a58:	00 0f       	add	r16, r16
    6a5a:	11 1f       	adc	r17, r17
    6a5c:	e0 2a       	or	r14, r16
    6a5e:	10 81       	ld	r17, Z
    6a60:	11 70       	andi	r17, 0x01	; 1
    6a62:	1f 83       	std	Y+7, r17	; 0x07
    6a64:	18 86       	std	Y+8, r1	; 0x08
    6a66:	0f 81       	ldd	r16, Y+7	; 0x07
    6a68:	18 85       	ldd	r17, Y+8	; 0x08
    6a6a:	00 0f       	add	r16, r16
    6a6c:	11 1f       	adc	r17, r17
    6a6e:	00 0f       	add	r16, r16
    6a70:	11 1f       	adc	r17, r17
    6a72:	00 0f       	add	r16, r16
    6a74:	11 1f       	adc	r17, r17
    6a76:	e0 2a       	or	r14, r16
    6a78:	15 81       	ldd	r17, Z+5	; 0x05
    6a7a:	a1 2f       	mov	r26, r17
    6a7c:	a1 70       	andi	r26, 0x01	; 1
    6a7e:	b0 e0       	ldi	r27, 0x00	; 0
    6a80:	a2 95       	swap	r26
    6a82:	b2 95       	swap	r27
    6a84:	b0 7f       	andi	r27, 0xF0	; 240
    6a86:	ba 27       	eor	r27, r26
    6a88:	a0 7f       	andi	r26, 0xF0	; 240
    6a8a:	ba 27       	eor	r27, r26
    6a8c:	ea 2a       	or	r14, r26
    6a8e:	a0 89       	ldd	r26, Z+16	; 0x10
    6a90:	6a 2f       	mov	r22, r26
    6a92:	61 70       	andi	r22, 0x01	; 1
    6a94:	70 e0       	ldi	r23, 0x00	; 0
    6a96:	66 0f       	add	r22, r22
    6a98:	77 1f       	adc	r23, r23
    6a9a:	62 95       	swap	r22
    6a9c:	72 95       	swap	r23
    6a9e:	70 7f       	andi	r23, 0xF0	; 240
    6aa0:	76 27       	eor	r23, r22
    6aa2:	60 7f       	andi	r22, 0xF0	; 240
    6aa4:	76 27       	eor	r23, r22
    6aa6:	6e 29       	or	r22, r14
    6aa8:	70 85       	ldd	r23, Z+8	; 0x08
    6aaa:	47 2f       	mov	r20, r23
    6aac:	41 70       	andi	r20, 0x01	; 1
    6aae:	50 e0       	ldi	r21, 0x00	; 0
    6ab0:	00 24       	eor	r0, r0
    6ab2:	56 95       	lsr	r21
    6ab4:	47 95       	ror	r20
    6ab6:	07 94       	ror	r0
    6ab8:	56 95       	lsr	r21
    6aba:	47 95       	ror	r20
    6abc:	07 94       	ror	r0
    6abe:	54 2f       	mov	r21, r20
    6ac0:	40 2d       	mov	r20, r0
    6ac2:	46 2b       	or	r20, r22
    6ac4:	40 93 0a 20 	sts	0x200A, r20
    6ac8:	47 a1       	ldd	r20, Z+39	; 0x27
    6aca:	90 e8       	ldi	r25, 0x80	; 128
    6acc:	49 9f       	mul	r20, r25
    6ace:	a0 01       	movw	r20, r0
    6ad0:	11 24       	eor	r1, r1
    6ad2:	52 89       	ldd	r21, Z+18	; 0x12
    6ad4:	57 70       	andi	r21, 0x07	; 7
    6ad6:	45 2b       	or	r20, r21
    6ad8:	53 85       	ldd	r21, Z+11	; 0x0b
    6ada:	25 2f       	mov	r18, r21
    6adc:	21 70       	andi	r18, 0x01	; 1
    6ade:	30 e0       	ldi	r19, 0x00	; 0
    6ae0:	22 0f       	add	r18, r18
    6ae2:	33 1f       	adc	r19, r19
    6ae4:	22 0f       	add	r18, r18
    6ae6:	33 1f       	adc	r19, r19
    6ae8:	22 0f       	add	r18, r18
    6aea:	33 1f       	adc	r19, r19
    6aec:	24 2b       	or	r18, r20
    6aee:	36 85       	ldd	r19, Z+14	; 0x0e
    6af0:	83 2f       	mov	r24, r19
    6af2:	81 70       	andi	r24, 0x01	; 1
    6af4:	90 e0       	ldi	r25, 0x00	; 0
    6af6:	82 95       	swap	r24
    6af8:	92 95       	swap	r25
    6afa:	90 7f       	andi	r25, 0xF0	; 240
    6afc:	98 27       	eor	r25, r24
    6afe:	80 7f       	andi	r24, 0xF0	; 240
    6b00:	98 27       	eor	r25, r24
    6b02:	82 2b       	or	r24, r18
    6b04:	95 a1       	ldd	r25, Z+37	; 0x25
    6b06:	90 fb       	bst	r25, 0
    6b08:	aa 24       	eor	r10, r10
    6b0a:	a0 f8       	bld	r10, 0
    6b0c:	b1 2c       	mov	r11, r1
    6b0e:	aa 0c       	add	r10, r10
    6b10:	bb 1c       	adc	r11, r11
    6b12:	aa 0c       	add	r10, r10
    6b14:	bb 1c       	adc	r11, r11
    6b16:	aa 0c       	add	r10, r10
    6b18:	bb 1c       	adc	r11, r11
    6b1a:	aa 0c       	add	r10, r10
    6b1c:	bb 1c       	adc	r11, r11
    6b1e:	aa 0c       	add	r10, r10
    6b20:	bb 1c       	adc	r11, r11
    6b22:	a8 2a       	or	r10, r24
    6b24:	86 a1       	ldd	r24, Z+38	; 0x26
    6b26:	80 fb       	bst	r24, 0
    6b28:	88 24       	eor	r8, r8
    6b2a:	80 f8       	bld	r8, 0
    6b2c:	91 2c       	mov	r9, r1
    6b2e:	00 24       	eor	r0, r0
    6b30:	96 94       	lsr	r9
    6b32:	87 94       	ror	r8
    6b34:	07 94       	ror	r0
    6b36:	96 94       	lsr	r9
    6b38:	87 94       	ror	r8
    6b3a:	07 94       	ror	r0
    6b3c:	98 2c       	mov	r9, r8
    6b3e:	80 2c       	mov	r8, r0
    6b40:	8a 28       	or	r8, r10
    6b42:	80 92 09 20 	sts	0x2009, r8
    6b46:	81 a1       	ldd	r24, Z+33	; 0x21
    6b48:	80 fb       	bst	r24, 0
    6b4a:	66 24       	eor	r6, r6
    6b4c:	60 f8       	bld	r6, 0
    6b4e:	71 2c       	mov	r7, r1
    6b50:	66 0c       	add	r6, r6
    6b52:	77 1c       	adc	r7, r7
    6b54:	82 a1       	ldd	r24, Z+34	; 0x22
    6b56:	80 fb       	bst	r24, 0
    6b58:	44 24       	eor	r4, r4
    6b5a:	40 f8       	bld	r4, 0
    6b5c:	51 2c       	mov	r5, r1
    6b5e:	44 0c       	add	r4, r4
    6b60:	55 1c       	adc	r5, r5
    6b62:	44 0c       	add	r4, r4
    6b64:	55 1c       	adc	r5, r5
    6b66:	46 28       	or	r4, r6
    6b68:	80 a1       	ldd	r24, Z+32	; 0x20
    6b6a:	81 70       	andi	r24, 0x01	; 1
    6b6c:	48 2a       	or	r4, r24
    6b6e:	83 a1       	ldd	r24, Z+35	; 0x23
    6b70:	80 fb       	bst	r24, 0
    6b72:	22 24       	eor	r2, r2
    6b74:	20 f8       	bld	r2, 0
    6b76:	31 2c       	mov	r3, r1
    6b78:	22 0c       	add	r2, r2
    6b7a:	33 1c       	adc	r3, r3
    6b7c:	22 0c       	add	r2, r2
    6b7e:	33 1c       	adc	r3, r3
    6b80:	22 0c       	add	r2, r2
    6b82:	33 1c       	adc	r3, r3
    6b84:	24 28       	or	r2, r4
    6b86:	84 a1       	ldd	r24, Z+36	; 0x24
    6b88:	81 70       	andi	r24, 0x01	; 1
    6b8a:	89 83       	std	Y+1, r24	; 0x01
    6b8c:	1a 82       	std	Y+2, r1	; 0x02
    6b8e:	49 81       	ldd	r20, Y+1	; 0x01
    6b90:	5a 81       	ldd	r21, Y+2	; 0x02
    6b92:	42 95       	swap	r20
    6b94:	52 95       	swap	r21
    6b96:	50 7f       	andi	r21, 0xF0	; 240
    6b98:	54 27       	eor	r21, r20
    6b9a:	40 7f       	andi	r20, 0xF0	; 240
    6b9c:	54 27       	eor	r21, r20
    6b9e:	82 2d       	mov	r24, r2
    6ba0:	84 2b       	or	r24, r20
    6ba2:	91 85       	ldd	r25, Z+9	; 0x09
    6ba4:	91 70       	andi	r25, 0x01	; 1
    6ba6:	9b 83       	std	Y+3, r25	; 0x03
    6ba8:	1c 82       	std	Y+4, r1	; 0x04
    6baa:	2b 81       	ldd	r18, Y+3	; 0x03
    6bac:	3c 81       	ldd	r19, Y+4	; 0x04
    6bae:	22 0f       	add	r18, r18
    6bb0:	33 1f       	adc	r19, r19
    6bb2:	22 95       	swap	r18
    6bb4:	32 95       	swap	r19
    6bb6:	30 7f       	andi	r19, 0xF0	; 240
    6bb8:	32 27       	eor	r19, r18
    6bba:	20 7f       	andi	r18, 0xF0	; 240
    6bbc:	32 27       	eor	r19, r18
    6bbe:	28 2b       	or	r18, r24
    6bc0:	82 85       	ldd	r24, Z+10	; 0x0a
    6bc2:	81 70       	andi	r24, 0x01	; 1
    6bc4:	8d 83       	std	Y+5, r24	; 0x05
    6bc6:	1e 82       	std	Y+6, r1	; 0x06
    6bc8:	8d 81       	ldd	r24, Y+5	; 0x05
    6bca:	9e 81       	ldd	r25, Y+6	; 0x06
    6bcc:	00 24       	eor	r0, r0
    6bce:	96 95       	lsr	r25
    6bd0:	87 95       	ror	r24
    6bd2:	07 94       	ror	r0
    6bd4:	96 95       	lsr	r25
    6bd6:	87 95       	ror	r24
    6bd8:	07 94       	ror	r0
    6bda:	98 2f       	mov	r25, r24
    6bdc:	80 2d       	mov	r24, r0
    6bde:	82 2b       	or	r24, r18
    6be0:	80 93 08 20 	sts	0x2008, r24
    6be4:	28 96       	adiw	r28, 0x08	; 8
    6be6:	0f b6       	in	r0, 0x3f	; 63
    6be8:	f8 94       	cli
    6bea:	de bf       	out	0x3e, r29	; 62
    6bec:	0f be       	out	0x3f, r0	; 63
    6bee:	cd bf       	out	0x3d, r28	; 61
    6bf0:	df 91       	pop	r29
    6bf2:	cf 91       	pop	r28
    6bf4:	1f 91       	pop	r17
    6bf6:	0f 91       	pop	r16
    6bf8:	ff 90       	pop	r15
    6bfa:	ef 90       	pop	r14
    6bfc:	df 90       	pop	r13
    6bfe:	cf 90       	pop	r12
    6c00:	bf 90       	pop	r11
    6c02:	af 90       	pop	r10
    6c04:	9f 90       	pop	r9
    6c06:	8f 90       	pop	r8
    6c08:	7f 90       	pop	r7
    6c0a:	6f 90       	pop	r6
    6c0c:	5f 90       	pop	r5
    6c0e:	4f 90       	pop	r4
    6c10:	3f 90       	pop	r3
    6c12:	2f 90       	pop	r2
    6c14:	08 95       	ret

00006c16 <reboot_to_rf>:
    6c16:	ff cf       	rjmp	.-2      	; 0x6c16 <reboot_to_rf>

00006c18 <WPS_pairing>:
    6c18:	cf 93       	push	r28
    6c1a:	df 93       	push	r29
    6c1c:	ec 01       	movw	r28, r24
    6c1e:	68 81       	ld	r22, Y
    6c20:	8d ef       	ldi	r24, 0xFD	; 253
    6c22:	9f e0       	ldi	r25, 0x0F	; 15
    6c24:	0e 94 74 23 	call	0x46e8	; 0x46e8 <write_factory_default>
    6c28:	69 81       	ldd	r22, Y+1	; 0x01
    6c2a:	8c ef       	ldi	r24, 0xFC	; 252
    6c2c:	9f e0       	ldi	r25, 0x0F	; 15
    6c2e:	0e 94 74 23 	call	0x46e8	; 0x46e8 <write_factory_default>
    6c32:	6a 81       	ldd	r22, Y+2	; 0x02
    6c34:	8f ef       	ldi	r24, 0xFF	; 255
    6c36:	9f e0       	ldi	r25, 0x0F	; 15
    6c38:	0e 94 74 23 	call	0x46e8	; 0x46e8 <write_factory_default>
    6c3c:	6b 81       	ldd	r22, Y+3	; 0x03
    6c3e:	8e ef       	ldi	r24, 0xFE	; 254
    6c40:	9f e0       	ldi	r25, 0x0F	; 15
    6c42:	0e 94 74 23 	call	0x46e8	; 0x46e8 <write_factory_default>
    6c46:	6c 81       	ldd	r22, Y+4	; 0x04
    6c48:	81 e0       	ldi	r24, 0x01	; 1
    6c4a:	90 e1       	ldi	r25, 0x10	; 16
    6c4c:	0e 94 74 23 	call	0x46e8	; 0x46e8 <write_factory_default>
    6c50:	6d 81       	ldd	r22, Y+5	; 0x05
    6c52:	80 e0       	ldi	r24, 0x00	; 0
    6c54:	90 e1       	ldi	r25, 0x10	; 16
    6c56:	0e 94 74 23 	call	0x46e8	; 0x46e8 <write_factory_default>
    6c5a:	df 91       	pop	r29
    6c5c:	cf 91       	pop	r28
    6c5e:	08 95       	ret

00006c60 <send_to_rf>:
    6c60:	af 92       	push	r10
    6c62:	bf 92       	push	r11
    6c64:	cf 92       	push	r12
    6c66:	df 92       	push	r13
    6c68:	ef 92       	push	r14
    6c6a:	ff 92       	push	r15
    6c6c:	0f 93       	push	r16
    6c6e:	1f 93       	push	r17
    6c70:	cf 93       	push	r28
    6c72:	df 93       	push	r29
    6c74:	6c 01       	movw	r12, r24
    6c76:	f6 2e       	mov	r15, r22
    6c78:	5a 01       	movw	r10, r20
    6c7a:	0e 94 f3 03 	call	0x7e6	; 0x7e6 <APP_NwkGetBuffer>
    6c7e:	ec 01       	movw	r28, r24
    6c80:	00 97       	sbiw	r24, 0x00	; 0
    6c82:	09 f4       	brne	.+2      	; 0x6c86 <send_to_rf+0x26>
    6c84:	86 c0       	rjmp	.+268    	; 0x6d92 <send_to_rf+0x132>
    6c86:	80 58       	subi	r24, 0x80	; 128
    6c88:	9f 4f       	sbci	r25, 0xFF	; 255
    6c8a:	dc 01       	movw	r26, r24
    6c8c:	1c 92       	st	X, r1
    6c8e:	8e 01       	movw	r16, r28
    6c90:	0d 5e       	subi	r16, 0xED	; 237
    6c92:	1f 4f       	sbci	r17, 0xFF	; 255
    6c94:	28 e0       	ldi	r18, 0x08	; 8
    6c96:	f5 01       	movw	r30, r10
    6c98:	d8 01       	movw	r26, r16
    6c9a:	01 90       	ld	r0, Z+
    6c9c:	0d 92       	st	X+, r0
    6c9e:	2a 95       	dec	r18
    6ca0:	e1 f7       	brne	.-8      	; 0x6c9a <send_to_rf+0x3a>
    6ca2:	28 e0       	ldi	r18, 0x08	; 8
    6ca4:	fc 01       	movw	r30, r24
    6ca6:	20 83       	st	Z, r18
    6ca8:	ff 20       	and	r15, r15
    6caa:	89 f1       	breq	.+98     	; 0x6d0e <send_to_rf+0xae>
    6cac:	56 01       	movw	r10, r12
    6cae:	6f ef       	ldi	r22, 0xFF	; 255
    6cb0:	6f 0d       	add	r22, r15
    6cb2:	70 e0       	ldi	r23, 0x00	; 0
    6cb4:	6f 5f       	subi	r22, 0xFF	; 255
    6cb6:	7f 4f       	sbci	r23, 0xFF	; 255
    6cb8:	6c 0d       	add	r22, r12
    6cba:	7d 1d       	adc	r23, r13
    6cbc:	fc 01       	movw	r30, r24
    6cbe:	0f 2e       	mov	r0, r31
    6cc0:	fb e5       	ldi	r31, 0x5B	; 91
    6cc2:	df 2e       	mov	r13, r31
    6cc4:	f0 2d       	mov	r31, r0
    6cc6:	0f 2e       	mov	r0, r31
    6cc8:	fd e5       	ldi	r31, 0x5D	; 93
    6cca:	ef 2e       	mov	r14, r31
    6ccc:	f0 2d       	mov	r31, r0
    6cce:	90 81       	ld	r25, Z
    6cd0:	9e 01       	movw	r18, r28
    6cd2:	29 0f       	add	r18, r25
    6cd4:	31 1d       	adc	r19, r1
    6cd6:	d9 01       	movw	r26, r18
    6cd8:	53 96       	adiw	r26, 0x13	; 19
    6cda:	dc 92       	st	X, r13
    6cdc:	22 e0       	ldi	r18, 0x02	; 2
    6cde:	29 0f       	add	r18, r25
    6ce0:	20 83       	st	Z, r18
    6ce2:	d5 01       	movw	r26, r10
    6ce4:	3d 91       	ld	r19, X+
    6ce6:	5d 01       	movw	r10, r26
    6ce8:	81 e0       	ldi	r24, 0x01	; 1
    6cea:	89 0f       	add	r24, r25
    6cec:	ae 01       	movw	r20, r28
    6cee:	48 0f       	add	r20, r24
    6cf0:	51 1d       	adc	r21, r1
    6cf2:	da 01       	movw	r26, r20
    6cf4:	53 96       	adiw	r26, 0x13	; 19
    6cf6:	3c 93       	st	X, r19
    6cf8:	9d 5f       	subi	r25, 0xFD	; 253
    6cfa:	90 83       	st	Z, r25
    6cfc:	ce 01       	movw	r24, r28
    6cfe:	82 0f       	add	r24, r18
    6d00:	91 1d       	adc	r25, r1
    6d02:	dc 01       	movw	r26, r24
    6d04:	53 96       	adiw	r26, 0x13	; 19
    6d06:	ec 92       	st	X, r14
    6d08:	a6 16       	cp	r10, r22
    6d0a:	b7 06       	cpc	r11, r23
    6d0c:	01 f7       	brne	.-64     	; 0x6cce <send_to_rf+0x6e>
    6d0e:	3e d5       	rcall	.+2684   	; 0x778c <crcInit>
    6d10:	6e 01       	movw	r12, r28
    6d12:	b0 e8       	ldi	r27, 0x80	; 128
    6d14:	cb 0e       	add	r12, r27
    6d16:	d1 1c       	adc	r13, r1
    6d18:	f6 01       	movw	r30, r12
    6d1a:	b0 80       	ld	r11, Z
    6d1c:	81 e0       	ldi	r24, 0x01	; 1
    6d1e:	8b 0d       	add	r24, r11
    6d20:	80 83       	st	Z, r24
    6d22:	8f 2d       	mov	r24, r15
    6d24:	90 e0       	ldi	r25, 0x00	; 0
    6d26:	7c 01       	movw	r14, r24
    6d28:	f8 e0       	ldi	r31, 0x08	; 8
    6d2a:	ef 0e       	add	r14, r31
    6d2c:	f1 1c       	adc	r15, r1
    6d2e:	88 0f       	add	r24, r24
    6d30:	99 1f       	adc	r25, r25
    6d32:	e8 0e       	add	r14, r24
    6d34:	f9 1e       	adc	r15, r25
    6d36:	b7 01       	movw	r22, r14
    6d38:	c8 01       	movw	r24, r16
    6d3a:	45 d5       	rcall	.+2698   	; 0x77c6 <crcFast>
    6d3c:	fe 01       	movw	r30, r28
    6d3e:	eb 0d       	add	r30, r11
    6d40:	f1 1d       	adc	r31, r1
    6d42:	93 8b       	std	Z+19, r25	; 0x13
    6d44:	d6 01       	movw	r26, r12
    6d46:	bc 90       	ld	r11, X
    6d48:	81 e0       	ldi	r24, 0x01	; 1
    6d4a:	8b 0d       	add	r24, r11
    6d4c:	8c 93       	st	X, r24
    6d4e:	b7 01       	movw	r22, r14
    6d50:	c8 01       	movw	r24, r16
    6d52:	39 d5       	rcall	.+2674   	; 0x77c6 <crcFast>
    6d54:	fe 01       	movw	r30, r28
    6d56:	eb 0d       	add	r30, r11
    6d58:	f1 1d       	adc	r31, r1
    6d5a:	83 8b       	std	Z+19, r24	; 0x13
    6d5c:	f6 01       	movw	r30, r12
    6d5e:	60 81       	ld	r22, Z
    6d60:	70 e0       	ldi	r23, 0x00	; 0
    6d62:	26 e0       	ldi	r18, 0x06	; 6
    6d64:	30 e0       	ldi	r19, 0x00	; 0
    6d66:	49 e3       	ldi	r20, 0x39	; 57
    6d68:	52 e0       	ldi	r21, 0x02	; 2
    6d6a:	c8 01       	movw	r24, r16
    6d6c:	0e 94 60 50 	call	0xa0c0	; 0xa0c0 <pnesign>
    6d70:	d6 01       	movw	r26, r12
    6d72:	2c 91       	ld	r18, X
    6d74:	fe 01       	movw	r30, r28
    6d76:	e2 0f       	add	r30, r18
    6d78:	f1 1d       	adc	r31, r1
    6d7a:	93 8b       	std	Z+19, r25	; 0x13
    6d7c:	92 e0       	ldi	r25, 0x02	; 2
    6d7e:	92 0f       	add	r25, r18
    6d80:	9c 93       	st	X, r25
    6d82:	2f 5f       	subi	r18, 0xFF	; 255
    6d84:	fe 01       	movw	r30, r28
    6d86:	e2 0f       	add	r30, r18
    6d88:	f1 1d       	adc	r31, r1
    6d8a:	83 8b       	std	Z+19, r24	; 0x13
    6d8c:	ce 01       	movw	r24, r28
    6d8e:	0e 94 22 04 	call	0x844	; 0x844 <APP_NwkSendBuffer>
    6d92:	df 91       	pop	r29
    6d94:	cf 91       	pop	r28
    6d96:	1f 91       	pop	r17
    6d98:	0f 91       	pop	r16
    6d9a:	ff 90       	pop	r15
    6d9c:	ef 90       	pop	r14
    6d9e:	df 90       	pop	r13
    6da0:	cf 90       	pop	r12
    6da2:	bf 90       	pop	r11
    6da4:	af 90       	pop	r10
    6da6:	08 95       	ret

00006da8 <status_send_to_rf>:
    6da8:	cf 93       	push	r28
    6daa:	df 93       	push	r29
    6dac:	22 de       	rcall	.-956    	; 0x69f2 <packet_data>
    6dae:	c4 ea       	ldi	r28, 0xA4	; 164
    6db0:	df e1       	ldi	r29, 0x1F	; 31
    6db2:	80 91 0a 20 	lds	r24, 0x200A
    6db6:	88 83       	st	Y, r24
    6db8:	80 91 09 20 	lds	r24, 0x2009
    6dbc:	89 83       	std	Y+1, r24	; 0x01
    6dbe:	80 91 08 20 	lds	r24, 0x2008
    6dc2:	8a 83       	std	Y+2, r24	; 0x02
    6dc4:	e6 e1       	ldi	r30, 0x16	; 22
    6dc6:	f0 e2       	ldi	r31, 0x20	; 32
    6dc8:	86 81       	ldd	r24, Z+6	; 0x06
    6dca:	8b 83       	std	Y+3, r24	; 0x03
    6dcc:	81 81       	ldd	r24, Z+1	; 0x01
    6dce:	8c 83       	std	Y+4, r24	; 0x04
    6dd0:	82 81       	ldd	r24, Z+2	; 0x02
    6dd2:	8d 83       	std	Y+5, r24	; 0x05
    6dd4:	30 d4       	rcall	.+2144   	; 0x7636 <get_timestamp>
    6dd6:	9e 83       	std	Y+6, r25	; 0x06
    6dd8:	2e d4       	rcall	.+2140   	; 0x7636 <get_timestamp>
    6dda:	8f 83       	std	Y+7, r24	; 0x07
    6ddc:	2c d4       	rcall	.+2136   	; 0x7636 <get_timestamp>
    6dde:	78 87       	std	Y+8, r23	; 0x08
    6de0:	2a d4       	rcall	.+2132   	; 0x7636 <get_timestamp>
    6de2:	69 87       	std	Y+9, r22	; 0x09
    6de4:	42 ea       	ldi	r20, 0xA2	; 162
    6de6:	58 e0       	ldi	r21, 0x08	; 8
    6de8:	6a e0       	ldi	r22, 0x0A	; 10
    6dea:	ce 01       	movw	r24, r28
    6dec:	39 df       	rcall	.-398    	; 0x6c60 <send_to_rf>
    6dee:	df 91       	pop	r29
    6df0:	cf 91       	pop	r28
    6df2:	08 95       	ret

00006df4 <emergency_on_to_rf>:
    6df4:	81 e0       	ldi	r24, 0x01	; 1
    6df6:	80 93 1e 20 	sts	0x201E, r24
    6dfa:	4b ea       	ldi	r20, 0xAB	; 171
    6dfc:	58 e0       	ldi	r21, 0x08	; 8
    6dfe:	60 e0       	ldi	r22, 0x00	; 0
    6e00:	84 ea       	ldi	r24, 0xA4	; 164
    6e02:	9f e1       	ldi	r25, 0x1F	; 31
    6e04:	2d cf       	rjmp	.-422    	; 0x6c60 <send_to_rf>
    6e06:	08 95       	ret

00006e08 <emergency_off_to_rf>:
    6e08:	10 92 1e 20 	sts	0x201E, r1
    6e0c:	4b ea       	ldi	r20, 0xAB	; 171
    6e0e:	58 e0       	ldi	r21, 0x08	; 8
    6e10:	60 e0       	ldi	r22, 0x00	; 0
    6e12:	84 ea       	ldi	r24, 0xA4	; 164
    6e14:	9f e1       	ldi	r25, 0x1F	; 31
    6e16:	24 cf       	rjmp	.-440    	; 0x6c60 <send_to_rf>
    6e18:	08 95       	ret

00006e1a <eeprom_to_rf>:
    6e1a:	ef 92       	push	r14
    6e1c:	ff 92       	push	r15
    6e1e:	0f 93       	push	r16
    6e20:	1f 93       	push	r17
    6e22:	cf 93       	push	r28
    6e24:	df 93       	push	r29
    6e26:	ec 01       	movw	r28, r24
    6e28:	04 ea       	ldi	r16, 0xA4	; 164
    6e2a:	1f e1       	ldi	r17, 0x1F	; 31
    6e2c:	7c 01       	movw	r14, r24
    6e2e:	8b e0       	ldi	r24, 0x0B	; 11
    6e30:	e8 0e       	add	r14, r24
    6e32:	f1 1c       	adc	r15, r1
    6e34:	2d 2f       	mov	r18, r29
    6e36:	4c 2f       	mov	r20, r28
    6e38:	65 e4       	ldi	r22, 0x45	; 69
    6e3a:	8f ea       	ldi	r24, 0xAF	; 175
    6e3c:	0e 94 f9 24 	call	0x49f2	; 0x49f2 <PNEWELSE2promRead>
    6e40:	f8 01       	movw	r30, r16
    6e42:	81 93       	st	Z+, r24
    6e44:	8f 01       	movw	r16, r30
    6e46:	21 96       	adiw	r28, 0x01	; 1
    6e48:	8a e0       	ldi	r24, 0x0A	; 10
    6e4a:	90 e0       	ldi	r25, 0x00	; 0
    6e4c:	0e 94 e1 23 	call	0x47c2	; 0x47c2 <pne_delayms>
    6e50:	ce 15       	cp	r28, r14
    6e52:	df 05       	cpc	r29, r15
    6e54:	79 f7       	brne	.-34     	; 0x6e34 <eeprom_to_rf+0x1a>
    6e56:	44 e6       	ldi	r20, 0x64	; 100
    6e58:	52 e0       	ldi	r21, 0x02	; 2
    6e5a:	6b e0       	ldi	r22, 0x0B	; 11
    6e5c:	84 ea       	ldi	r24, 0xA4	; 164
    6e5e:	9f e1       	ldi	r25, 0x1F	; 31
    6e60:	ff de       	rcall	.-514    	; 0x6c60 <send_to_rf>
    6e62:	df 91       	pop	r29
    6e64:	cf 91       	pop	r28
    6e66:	1f 91       	pop	r17
    6e68:	0f 91       	pop	r16
    6e6a:	ff 90       	pop	r15
    6e6c:	ef 90       	pop	r14
    6e6e:	08 95       	ret

00006e70 <eeprom_byte_to_rf>:
	}
	send_to_rf(data_to_rf, 11, "[rd rom]");
}

void eeprom_byte_to_rf(uint16_t address, uint8_t size)
{
    6e70:	df 92       	push	r13
    6e72:	ef 92       	push	r14
    6e74:	ff 92       	push	r15
    6e76:	0f 93       	push	r16
    6e78:	1f 93       	push	r17
    6e7a:	cf 93       	push	r28
    6e7c:	df 93       	push	r29
    6e7e:	ec 01       	movw	r28, r24
    6e80:	d6 2e       	mov	r13, r22
	uint8_t memory_address_low = 0;
	uint8_t memory_address_high = 0;
	for (uint8_t i=0; i<size; i++)
    6e82:	66 23       	and	r22, r22
    6e84:	d9 f0       	breq	.+54     	; 0x6ebc <eeprom_byte_to_rf+0x4c>
    6e86:	04 ea       	ldi	r16, 0xA4	; 164
    6e88:	1f e1       	ldi	r17, 0x1F	; 31
    6e8a:	8f ef       	ldi	r24, 0xFF	; 255
    6e8c:	86 0f       	add	r24, r22
    6e8e:	7e 01       	movw	r14, r28
    6e90:	e8 0e       	add	r14, r24
    6e92:	f1 1c       	adc	r15, r1
    6e94:	8f ef       	ldi	r24, 0xFF	; 255
    6e96:	e8 1a       	sub	r14, r24
    6e98:	f8 0a       	sbc	r15, r24
	{
		memory_address_high = ((address & 0xFF00) >> 8);
		memory_address_low = (address & 0x00FF);
		data_to_rf[i] = PNEWELSE2promRead(0xAF,'E',memory_address_low,memory_address_high);
    6e9a:	2d 2f       	mov	r18, r29
    6e9c:	4c 2f       	mov	r20, r28
    6e9e:	65 e4       	ldi	r22, 0x45	; 69
    6ea0:	8f ea       	ldi	r24, 0xAF	; 175
    6ea2:	0e 94 f9 24 	call	0x49f2	; 0x49f2 <PNEWELSE2promRead>
    6ea6:	f8 01       	movw	r30, r16
    6ea8:	81 93       	st	Z+, r24
    6eaa:	8f 01       	movw	r16, r30
		address++;
    6eac:	21 96       	adiw	r28, 0x01	; 1
		pne_delayms(10);
    6eae:	8a e0       	ldi	r24, 0x0A	; 10
    6eb0:	90 e0       	ldi	r25, 0x00	; 0
    6eb2:	0e 94 e1 23 	call	0x47c2	; 0x47c2 <pne_delayms>

void eeprom_byte_to_rf(uint16_t address, uint8_t size)
{
	uint8_t memory_address_low = 0;
	uint8_t memory_address_high = 0;
	for (uint8_t i=0; i<size; i++)
    6eb6:	ce 15       	cp	r28, r14
    6eb8:	df 05       	cpc	r29, r15
    6eba:	79 f7       	brne	.-34     	; 0x6e9a <eeprom_byte_to_rf+0x2a>
		memory_address_low = (address & 0x00FF);
		data_to_rf[i] = PNEWELSE2promRead(0xAF,'E',memory_address_low,memory_address_high);
		address++;
		pne_delayms(10);
	}
	send_to_rf(data_to_rf, size, "[rddata]");
    6ebc:	46 e0       	ldi	r20, 0x06	; 6
    6ebe:	53 e0       	ldi	r21, 0x03	; 3
    6ec0:	6d 2d       	mov	r22, r13
    6ec2:	84 ea       	ldi	r24, 0xA4	; 164
    6ec4:	9f e1       	ldi	r25, 0x1F	; 31
    6ec6:	cc de       	rcall	.-616    	; 0x6c60 <send_to_rf>
}
    6ec8:	df 91       	pop	r29
    6eca:	cf 91       	pop	r28
    6ecc:	1f 91       	pop	r17
    6ece:	0f 91       	pop	r16
    6ed0:	ff 90       	pop	r15
    6ed2:	ef 90       	pop	r14
    6ed4:	df 90       	pop	r13
    6ed6:	08 95       	ret

00006ed8 <error_to_rf>:

void error_to_rf(uint8_t alert_type)
{
	switch(alert_type)
    6ed8:	90 e0       	ldi	r25, 0x00	; 0
    6eda:	8c 30       	cpi	r24, 0x0C	; 12
    6edc:	91 05       	cpc	r25, r1
    6ede:	08 f0       	brcs	.+2      	; 0x6ee2 <error_to_rf+0xa>
    6ee0:	7d c0       	rjmp	.+250    	; 0x6fdc <error_to_rf+0x104>
    6ee2:	fc 01       	movw	r30, r24
    6ee4:	88 27       	eor	r24, r24
    6ee6:	e2 57       	subi	r30, 0x72	; 114
    6ee8:	fe 4f       	sbci	r31, 0xFE	; 254
    6eea:	8f 4f       	sbci	r24, 0xFF	; 255
    6eec:	0c 94 c4 50 	jmp	0xa188	; 0xa188 <__tablejump2__>
	{
		case temperature_alert:
			data_to_rf[0] = temperature_alert;
    6ef0:	10 92 a4 1f 	sts	0x1FA4, r1
			send_to_rf(data_to_rf,1,"[error!]");
    6ef4:	44 eb       	ldi	r20, 0xB4	; 180
    6ef6:	58 e0       	ldi	r21, 0x08	; 8
    6ef8:	61 e0       	ldi	r22, 0x01	; 1
    6efa:	84 ea       	ldi	r24, 0xA4	; 164
    6efc:	9f e1       	ldi	r25, 0x1F	; 31
    6efe:	b0 ce       	rjmp	.-672    	; 0x6c60 <send_to_rf>
			break;
    6f00:	08 95       	ret
			
		case battery_dead_alert:
			data_to_rf[0] = battery_dead_alert;
    6f02:	81 e0       	ldi	r24, 0x01	; 1
    6f04:	80 93 a4 1f 	sts	0x1FA4, r24
			send_to_rf(data_to_rf,1,"[error!]");
    6f08:	44 eb       	ldi	r20, 0xB4	; 180
    6f0a:	58 e0       	ldi	r21, 0x08	; 8
    6f0c:	61 e0       	ldi	r22, 0x01	; 1
    6f0e:	84 ea       	ldi	r24, 0xA4	; 164
    6f10:	9f e1       	ldi	r25, 0x1F	; 31
    6f12:	a6 ce       	rjmp	.-692    	; 0x6c60 <send_to_rf>
			break;
    6f14:	08 95       	ret
			
		case conflicted_command:
			data_to_rf[0] = conflicted_command;
    6f16:	83 e0       	ldi	r24, 0x03	; 3
    6f18:	80 93 a4 1f 	sts	0x1FA4, r24
			send_to_rf(data_to_rf,1,"[error!]");
    6f1c:	44 eb       	ldi	r20, 0xB4	; 180
    6f1e:	58 e0       	ldi	r21, 0x08	; 8
    6f20:	61 e0       	ldi	r22, 0x01	; 1
    6f22:	84 ea       	ldi	r24, 0xA4	; 164
    6f24:	9f e1       	ldi	r25, 0x1F	; 31
    6f26:	9c ce       	rjmp	.-712    	; 0x6c60 <send_to_rf>
			break;
    6f28:	08 95       	ret
		
		case battery_wrong_alert:
			data_to_rf[0] = battery_wrong_alert;
    6f2a:	82 e0       	ldi	r24, 0x02	; 2
    6f2c:	80 93 a4 1f 	sts	0x1FA4, r24
			send_to_rf(data_to_rf,1,"[error!]");
    6f30:	44 eb       	ldi	r20, 0xB4	; 180
    6f32:	58 e0       	ldi	r21, 0x08	; 8
    6f34:	61 e0       	ldi	r22, 0x01	; 1
    6f36:	84 ea       	ldi	r24, 0xA4	; 164
    6f38:	9f e1       	ldi	r25, 0x1F	; 31
    6f3a:	92 ce       	rjmp	.-732    	; 0x6c60 <send_to_rf>
			break;
    6f3c:	08 95       	ret
			
		case read_eeprom_error:
			data_to_rf[0] = read_eeprom_error;
    6f3e:	84 e0       	ldi	r24, 0x04	; 4
    6f40:	80 93 a4 1f 	sts	0x1FA4, r24
			send_to_rf(data_to_rf,1,"[error!]");
    6f44:	44 eb       	ldi	r20, 0xB4	; 180
    6f46:	58 e0       	ldi	r21, 0x08	; 8
    6f48:	61 e0       	ldi	r22, 0x01	; 1
    6f4a:	84 ea       	ldi	r24, 0xA4	; 164
    6f4c:	9f e1       	ldi	r25, 0x1F	; 31
    6f4e:	88 ce       	rjmp	.-752    	; 0x6c60 <send_to_rf>
			break;
    6f50:	08 95       	ret
			
		case hardware_error:
			data_to_rf[0] = hardware_error;
    6f52:	85 e0       	ldi	r24, 0x05	; 5
    6f54:	80 93 a4 1f 	sts	0x1FA4, r24
			send_to_rf(data_to_rf,1,"[error!]");
    6f58:	44 eb       	ldi	r20, 0xB4	; 180
    6f5a:	58 e0       	ldi	r21, 0x08	; 8
    6f5c:	61 e0       	ldi	r22, 0x01	; 1
    6f5e:	84 ea       	ldi	r24, 0xA4	; 164
    6f60:	9f e1       	ldi	r25, 0x1F	; 31
    6f62:	7e ce       	rjmp	.-772    	; 0x6c60 <send_to_rf>
			break;
    6f64:	08 95       	ret
			
		case time_invalid_data_size:
			data_to_rf[0] = time_invalid_data_size;
    6f66:	86 e0       	ldi	r24, 0x06	; 6
    6f68:	80 93 a4 1f 	sts	0x1FA4, r24
			send_to_rf(data_to_rf,1,"[error!]");
    6f6c:	44 eb       	ldi	r20, 0xB4	; 180
    6f6e:	58 e0       	ldi	r21, 0x08	; 8
    6f70:	61 e0       	ldi	r22, 0x01	; 1
    6f72:	84 ea       	ldi	r24, 0xA4	; 164
    6f74:	9f e1       	ldi	r25, 0x1F	; 31
    6f76:	74 ce       	rjmp	.-792    	; 0x6c60 <send_to_rf>
			break;
    6f78:	08 95       	ret
		
		case time_crc_error:
			data_to_rf[0] = time_crc_error;
    6f7a:	87 e0       	ldi	r24, 0x07	; 7
    6f7c:	80 93 a4 1f 	sts	0x1FA4, r24
			send_to_rf(data_to_rf,1,"[error!]");
    6f80:	44 eb       	ldi	r20, 0xB4	; 180
    6f82:	58 e0       	ldi	r21, 0x08	; 8
    6f84:	61 e0       	ldi	r22, 0x01	; 1
    6f86:	84 ea       	ldi	r24, 0xA4	; 164
    6f88:	9f e1       	ldi	r25, 0x1F	; 31
    6f8a:	6a ce       	rjmp	.-812    	; 0x6c60 <send_to_rf>
			break;
    6f8c:	08 95       	ret
		
		case wps_invalid_data_size:
			data_to_rf[0] = wps_invalid_data_size;
    6f8e:	88 e0       	ldi	r24, 0x08	; 8
    6f90:	80 93 a4 1f 	sts	0x1FA4, r24
			send_to_rf(data_to_rf,1,"[error!]");
    6f94:	44 eb       	ldi	r20, 0xB4	; 180
    6f96:	58 e0       	ldi	r21, 0x08	; 8
    6f98:	61 e0       	ldi	r22, 0x01	; 1
    6f9a:	84 ea       	ldi	r24, 0xA4	; 164
    6f9c:	9f e1       	ldi	r25, 0x1F	; 31
    6f9e:	60 ce       	rjmp	.-832    	; 0x6c60 <send_to_rf>
			break;
    6fa0:	08 95       	ret
			
		case invalid_command_error:
			data_to_rf[0] = invalid_command_error;
    6fa2:	8b e0       	ldi	r24, 0x0B	; 11
    6fa4:	80 93 a4 1f 	sts	0x1FA4, r24
			send_to_rf(data_to_rf,1,"[error!]");
    6fa8:	44 eb       	ldi	r20, 0xB4	; 180
    6faa:	58 e0       	ldi	r21, 0x08	; 8
    6fac:	61 e0       	ldi	r22, 0x01	; 1
    6fae:	84 ea       	ldi	r24, 0xA4	; 164
    6fb0:	9f e1       	ldi	r25, 0x1F	; 31
    6fb2:	56 ce       	rjmp	.-852    	; 0x6c60 <send_to_rf>
			break;
    6fb4:	08 95       	ret
			
		case wps_invalid_UID:
			data_to_rf[0] = wps_invalid_UID;
    6fb6:	89 e0       	ldi	r24, 0x09	; 9
    6fb8:	80 93 a4 1f 	sts	0x1FA4, r24
			send_to_rf(data_to_rf,1,"[error!]");
    6fbc:	44 eb       	ldi	r20, 0xB4	; 180
    6fbe:	58 e0       	ldi	r21, 0x08	; 8
    6fc0:	61 e0       	ldi	r22, 0x01	; 1
    6fc2:	84 ea       	ldi	r24, 0xA4	; 164
    6fc4:	9f e1       	ldi	r25, 0x1F	; 31
    6fc6:	4c ce       	rjmp	.-872    	; 0x6c60 <send_to_rf>
			break;
    6fc8:	08 95       	ret
			
		case wps_crc_error:
			data_to_rf[0] = wps_crc_error;
    6fca:	8a e0       	ldi	r24, 0x0A	; 10
    6fcc:	80 93 a4 1f 	sts	0x1FA4, r24
			send_to_rf(data_to_rf,1,"[error!]");
    6fd0:	44 eb       	ldi	r20, 0xB4	; 180
    6fd2:	58 e0       	ldi	r21, 0x08	; 8
    6fd4:	61 e0       	ldi	r22, 0x01	; 1
    6fd6:	84 ea       	ldi	r24, 0xA4	; 164
    6fd8:	9f e1       	ldi	r25, 0x1F	; 31
    6fda:	42 ce       	rjmp	.-892    	; 0x6c60 <send_to_rf>
    6fdc:	08 95       	ret

00006fde <pend_to_rf>:
	}
}

void pend_to_rf(char pend_type)
{
	switch(pend_type)
    6fde:	83 36       	cpi	r24, 0x63	; 99
    6fe0:	19 f0       	breq	.+6      	; 0x6fe8 <pend_to_rf+0xa>
    6fe2:	84 36       	cpi	r24, 0x64	; 100
    6fe4:	41 f0       	breq	.+16     	; 0x6ff6 <pend_to_rf+0x18>
    6fe6:	08 95       	ret
	{
		case 'c':
			send_to_rf(data_to_rf, 0, "[chrgng]");
    6fe8:	4d eb       	ldi	r20, 0xBD	; 189
    6fea:	58 e0       	ldi	r21, 0x08	; 8
    6fec:	60 e0       	ldi	r22, 0x00	; 0
    6fee:	84 ea       	ldi	r24, 0xA4	; 164
    6ff0:	9f e1       	ldi	r25, 0x1F	; 31
    6ff2:	36 ce       	rjmp	.-916    	; 0x6c60 <send_to_rf>
		break;
    6ff4:	08 95       	ret
		case 'd':
			send_to_rf(data_to_rf, 0, "[dschrg]");
    6ff6:	46 ec       	ldi	r20, 0xC6	; 198
    6ff8:	58 e0       	ldi	r21, 0x08	; 8
    6ffa:	60 e0       	ldi	r22, 0x00	; 0
    6ffc:	84 ea       	ldi	r24, 0xA4	; 164
    6ffe:	9f e1       	ldi	r25, 0x1F	; 31
    7000:	2f ce       	rjmp	.-930    	; 0x6c60 <send_to_rf>
    7002:	08 95       	ret

00007004 <time_to_rf>:
	eeprom_to_rf(address);
}

void time_to_rf(uint32_t time)
{
	set_timestamp(time);
    7004:	0f d3       	rcall	.+1566   	; 0x7624 <set_timestamp>
	send_to_rf(data_to_rf, 0, "[timech]");
    7006:	41 e9       	ldi	r20, 0x91	; 145
    7008:	52 e0       	ldi	r21, 0x02	; 2
    700a:	60 e0       	ldi	r22, 0x00	; 0
    700c:	84 ea       	ldi	r24, 0xA4	; 164
    700e:	9f e1       	ldi	r25, 0x1F	; 31
    7010:	27 ce       	rjmp	.-946    	; 0x6c60 <send_to_rf>
    7012:	08 95       	ret

00007014 <clr_rom_to_rf>:
}

void clr_rom_to_rf()
{
	clre2prom();
    7014:	0e 94 53 25 	call	0x4aa6	; 0x4aa6 <clre2prom>
	send_to_rf(data_to_rf, 0, "[clrrom]");
    7018:	43 ea       	ldi	r20, 0xA3	; 163
    701a:	52 e0       	ldi	r21, 0x02	; 2
    701c:	60 e0       	ldi	r22, 0x00	; 0
    701e:	84 ea       	ldi	r24, 0xA4	; 164
    7020:	9f e1       	ldi	r25, 0x1F	; 31
    7022:	1e ce       	rjmp	.-964    	; 0x6c60 <send_to_rf>
    7024:	08 95       	ret

00007026 <info_to_rf>:
		//after a while this will reset the system when watchdog enabled
	}
}

void info_to_rf()
{
    7026:	cf 93       	push	r28
    7028:	df 93       	push	r29
/*	data_to_rf[0] = readE2prom(GROUP_ID); //group*/
// 	data_to_rf[1] = readE2prom(ZONE_ID); //zone
// 	data_to_rf[2] = readE2prom(NODE_ID); //node
	data_to_rf[0] = readE2prom(DEVICE_ADDRESS_H); //address MSB
    702a:	8d ef       	ldi	r24, 0xFD	; 253
    702c:	9f e0       	ldi	r25, 0x0F	; 15
    702e:	2b da       	rcall	.-2986   	; 0x6486 <readE2prom>
    7030:	c4 ea       	ldi	r28, 0xA4	; 164
    7032:	df e1       	ldi	r29, 0x1F	; 31
    7034:	88 83       	st	Y, r24
	data_to_rf[1] = readE2prom(DEVICE_ADDRESS_L); //address LSB
    7036:	8c ef       	ldi	r24, 0xFC	; 252
    7038:	9f e0       	ldi	r25, 0x0F	; 15
    703a:	25 da       	rcall	.-2998   	; 0x6486 <readE2prom>
    703c:	89 83       	std	Y+1, r24	; 0x01
	data_to_rf[2] = readE2prom(DEVICE_CHANNEL_H); //channel MSB
    703e:	8f ef       	ldi	r24, 0xFF	; 255
    7040:	9f e0       	ldi	r25, 0x0F	; 15
    7042:	21 da       	rcall	.-3006   	; 0x6486 <readE2prom>
    7044:	8a 83       	std	Y+2, r24	; 0x02
	data_to_rf[3] = readE2prom(DEVICE_CHANNEL_L); //channel LSB
    7046:	8e ef       	ldi	r24, 0xFE	; 254
    7048:	9f e0       	ldi	r25, 0x0F	; 15
    704a:	1d da       	rcall	.-3014   	; 0x6486 <readE2prom>
    704c:	8b 83       	std	Y+3, r24	; 0x03
	data_to_rf[4] = readE2prom(DEVICE_PAN_H); //pan id MSB
    704e:	81 e0       	ldi	r24, 0x01	; 1
    7050:	90 e1       	ldi	r25, 0x10	; 16
    7052:	19 da       	rcall	.-3022   	; 0x6486 <readE2prom>
    7054:	8c 83       	std	Y+4, r24	; 0x04
	data_to_rf[5] = readE2prom(DEVICE_PAN_L); //pan id LSB
    7056:	80 e0       	ldi	r24, 0x00	; 0
    7058:	90 e1       	ldi	r25, 0x10	; 16
    705a:	15 da       	rcall	.-3030   	; 0x6486 <readE2prom>
    705c:	8d 83       	std	Y+5, r24	; 0x05
	send_to_rf(data_to_rf, 6, "[infoid]");
    705e:	45 eb       	ldi	r20, 0xB5	; 181
    7060:	52 e0       	ldi	r21, 0x02	; 2
    7062:	66 e0       	ldi	r22, 0x06	; 6
    7064:	ce 01       	movw	r24, r28
    7066:	fc dd       	rcall	.-1032   	; 0x6c60 <send_to_rf>
}
    7068:	df 91       	pop	r29
    706a:	cf 91       	pop	r28
    706c:	08 95       	ret

0000706e <change_id_to_rf>:

void change_id_to_rf(uint8_t *data)
{
    706e:	cf 93       	push	r28
    7070:	df 93       	push	r29
    7072:	ec 01       	movw	r28, r24
/*	write_factory_default(GROUP_ID,data[0]);*/
// 	write_factory_default(ZONE_ID,data[1]);
// 	write_factory_default(NODE_ID,data[2]);
	write_factory_default(DEVICE_ADDRESS_H,data[0]);
    7074:	68 81       	ld	r22, Y
    7076:	8d ef       	ldi	r24, 0xFD	; 253
    7078:	9f e0       	ldi	r25, 0x0F	; 15
    707a:	0e 94 74 23 	call	0x46e8	; 0x46e8 <write_factory_default>
	write_factory_default(DEVICE_ADDRESS_L,data[1]);
    707e:	69 81       	ldd	r22, Y+1	; 0x01
    7080:	8c ef       	ldi	r24, 0xFC	; 252
    7082:	9f e0       	ldi	r25, 0x0F	; 15
    7084:	0e 94 74 23 	call	0x46e8	; 0x46e8 <write_factory_default>
	write_factory_default(DEVICE_CHANNEL_H,data[2]);
    7088:	6a 81       	ldd	r22, Y+2	; 0x02
    708a:	8f ef       	ldi	r24, 0xFF	; 255
    708c:	9f e0       	ldi	r25, 0x0F	; 15
    708e:	0e 94 74 23 	call	0x46e8	; 0x46e8 <write_factory_default>
	write_factory_default(DEVICE_CHANNEL_L,data[3]);
    7092:	6b 81       	ldd	r22, Y+3	; 0x03
    7094:	8e ef       	ldi	r24, 0xFE	; 254
    7096:	9f e0       	ldi	r25, 0x0F	; 15
    7098:	0e 94 74 23 	call	0x46e8	; 0x46e8 <write_factory_default>
	write_factory_default(DEVICE_PAN_H,data[4]);
    709c:	6c 81       	ldd	r22, Y+4	; 0x04
    709e:	81 e0       	ldi	r24, 0x01	; 1
    70a0:	90 e1       	ldi	r25, 0x10	; 16
    70a2:	0e 94 74 23 	call	0x46e8	; 0x46e8 <write_factory_default>
	write_factory_default(DEVICE_PAN_L,data[5]);
    70a6:	6d 81       	ldd	r22, Y+5	; 0x05
    70a8:	80 e0       	ldi	r24, 0x00	; 0
    70aa:	90 e1       	ldi	r25, 0x10	; 16
    70ac:	0e 94 74 23 	call	0x46e8	; 0x46e8 <write_factory_default>
	write_factory_default(BATTERY_LOW,data[6]);
    70b0:	6e 81       	ldd	r22, Y+6	; 0x06
    70b2:	84 e0       	ldi	r24, 0x04	; 4
    70b4:	90 e1       	ldi	r25, 0x10	; 16
    70b6:	0e 94 74 23 	call	0x46e8	; 0x46e8 <write_factory_default>
	write_factory_default(BATTERY_MAX,data[7]);
    70ba:	6f 81       	ldd	r22, Y+7	; 0x07
    70bc:	83 e0       	ldi	r24, 0x03	; 3
    70be:	90 e1       	ldi	r25, 0x10	; 16
    70c0:	0e 94 74 23 	call	0x46e8	; 0x46e8 <write_factory_default>
	send_to_rf(data_to_rf, 0, "[chngid]");
    70c4:	4e eb       	ldi	r20, 0xBE	; 190
    70c6:	52 e0       	ldi	r21, 0x02	; 2
    70c8:	60 e0       	ldi	r22, 0x00	; 0
    70ca:	84 ea       	ldi	r24, 0xA4	; 164
    70cc:	9f e1       	ldi	r25, 0x1F	; 31
    70ce:	c8 dd       	rcall	.-1136   	; 0x6c60 <send_to_rf>
}
    70d0:	df 91       	pop	r29
    70d2:	cf 91       	pop	r28
    70d4:	08 95       	ret

000070d6 <write_to_rf>:

void write_to_rf(uint8_t *data, uint16_t address, uint8_t size)
{
    70d6:	ef 92       	push	r14
    70d8:	ff 92       	push	r15
    70da:	0f 93       	push	r16
    70dc:	1f 93       	push	r17
    70de:	cf 93       	push	r28
    70e0:	df 93       	push	r29
    70e2:	38 2f       	mov	r19, r24
    70e4:	29 2f       	mov	r18, r25
    70e6:	cb 01       	movw	r24, r22
	for(uint8_t i = 0; i < size; i++){
    70e8:	44 23       	and	r20, r20
    70ea:	99 f0       	breq	.+38     	; 0x7112 <write_to_rf+0x3c>
    70ec:	c3 2f       	mov	r28, r19
    70ee:	d2 2f       	mov	r29, r18
    70f0:	41 50       	subi	r20, 0x01	; 1
    70f2:	7b 01       	movw	r14, r22
    70f4:	e4 0e       	add	r14, r20
    70f6:	f1 1c       	adc	r15, r1
    70f8:	2f ef       	ldi	r18, 0xFF	; 255
    70fa:	e2 1a       	sub	r14, r18
    70fc:	f2 0a       	sbc	r15, r18
		write_factory_default(address++, data[i]);
    70fe:	69 91       	ld	r22, Y+
    7100:	8c 01       	movw	r16, r24
    7102:	0f 5f       	subi	r16, 0xFF	; 255
    7104:	1f 4f       	sbci	r17, 0xFF	; 255
    7106:	0e 94 74 23 	call	0x46e8	; 0x46e8 <write_factory_default>
    710a:	c8 01       	movw	r24, r16
	send_to_rf(data_to_rf, 0, "[chngid]");
}

void write_to_rf(uint8_t *data, uint16_t address, uint8_t size)
{
	for(uint8_t i = 0; i < size; i++){
    710c:	0e 15       	cp	r16, r14
    710e:	1f 05       	cpc	r17, r15
    7110:	b1 f7       	brne	.-20     	; 0x70fe <write_to_rf+0x28>
		write_factory_default(address++, data[i]);
	}
	send_to_rf(data_to_rf, 0, "[wr ok!]");
    7112:	4f ec       	ldi	r20, 0xCF	; 207
    7114:	58 e0       	ldi	r21, 0x08	; 8
    7116:	60 e0       	ldi	r22, 0x00	; 0
    7118:	84 ea       	ldi	r24, 0xA4	; 164
    711a:	9f e1       	ldi	r25, 0x1F	; 31
    711c:	a1 dd       	rcall	.-1214   	; 0x6c60 <send_to_rf>
}
    711e:	df 91       	pop	r29
    7120:	cf 91       	pop	r28
    7122:	1f 91       	pop	r17
    7124:	0f 91       	pop	r16
    7126:	ff 90       	pop	r15
    7128:	ef 90       	pop	r14
    712a:	08 95       	ret

0000712c <battery_threshold_to_rf>:

void battery_threshold_to_rf(uint8_t *data)
{
    712c:	cf 93       	push	r28
    712e:	df 93       	push	r29
    7130:	ec 01       	movw	r28, r24
	write_factory_default(BATTERY_LOW,data[0]);
    7132:	68 81       	ld	r22, Y
    7134:	84 e0       	ldi	r24, 0x04	; 4
    7136:	90 e1       	ldi	r25, 0x10	; 16
    7138:	0e 94 74 23 	call	0x46e8	; 0x46e8 <write_factory_default>
	write_factory_default(BATTERY_MAX,data[1]);
    713c:	69 81       	ldd	r22, Y+1	; 0x01
    713e:	83 e0       	ldi	r24, 0x03	; 3
    7140:	90 e1       	ldi	r25, 0x10	; 16
    7142:	0e 94 74 23 	call	0x46e8	; 0x46e8 <write_factory_default>
	send_to_rf(data_to_rf, 0, "[batlvl]");
    7146:	47 ec       	ldi	r20, 0xC7	; 199
    7148:	52 e0       	ldi	r21, 0x02	; 2
    714a:	60 e0       	ldi	r22, 0x00	; 0
    714c:	84 ea       	ldi	r24, 0xA4	; 164
    714e:	9f e1       	ldi	r25, 0x1F	; 31
    7150:	87 dd       	rcall	.-1266   	; 0x6c60 <send_to_rf>
}
    7152:	df 91       	pop	r29
    7154:	cf 91       	pop	r28
    7156:	08 95       	ret

00007158 <last_1_log>:

void last_1_log(char type)
{
    7158:	ff 92       	push	r15
    715a:	0f 93       	push	r16
    715c:	1f 93       	push	r17
    715e:	cf 93       	push	r28
    7160:	df 93       	push	r29
    7162:	f8 2e       	mov	r15, r24
    7164:	04 ea       	ldi	r16, 0xA4	; 164
    7166:	1f e1       	ldi	r17, 0x1F	; 31
    7168:	c0 e0       	ldi	r28, 0x00	; 0
    716a:	d0 e0       	ldi	r29, 0x00	; 0
  uint8_t memory_address_low = 0;
  uint8_t memory_address_high = 0;
  for (uint8_t i=0; i<11; i++)
  {
    memory_address_high = (((memory_address_incr-22+i) & 0xFF00) >> 8);
    716c:	40 91 1e 21 	lds	r20, 0x211E
    7170:	50 91 1f 21 	lds	r21, 0x211F
    7174:	9a 01       	movw	r18, r20
    7176:	26 51       	subi	r18, 0x16	; 22
    7178:	31 09       	sbc	r19, r1
    717a:	2c 0f       	add	r18, r28
    717c:	3d 1f       	adc	r19, r29
    717e:	46 51       	subi	r20, 0x16	; 22
    memory_address_low = ((memory_address_incr-22+i) & 0x00FF);
    7180:	4c 0f       	add	r20, r28
    data_to_rf[i] = PNEWELSE2promRead(0xAF,'E',memory_address_low,memory_address_high);
    7182:	23 2f       	mov	r18, r19
    7184:	65 e4       	ldi	r22, 0x45	; 69
    7186:	8f ea       	ldi	r24, 0xAF	; 175
    7188:	0e 94 f9 24 	call	0x49f2	; 0x49f2 <PNEWELSE2promRead>
    718c:	f8 01       	movw	r30, r16
    718e:	81 93       	st	Z+, r24
    7190:	8f 01       	movw	r16, r30
    7192:	21 96       	adiw	r28, 0x01	; 1

void last_1_log(char type)
{
  uint8_t memory_address_low = 0;
  uint8_t memory_address_high = 0;
  for (uint8_t i=0; i<11; i++)
    7194:	cb 30       	cpi	r28, 0x0B	; 11
    7196:	d1 05       	cpc	r29, r1
    7198:	49 f7       	brne	.-46     	; 0x716c <last_1_log+0x14>
    memory_address_high = (((memory_address_incr-22+i) & 0xFF00) >> 8);
    memory_address_low = ((memory_address_incr-22+i) & 0x00FF);
    data_to_rf[i] = PNEWELSE2promRead(0xAF,'E',memory_address_low,memory_address_high);
    /*pne_delayms(10);*/
  }
  switch(type)
    719a:	fe e6       	ldi	r31, 0x6E	; 110
    719c:	ff 16       	cp	r15, r31
    719e:	39 f0       	breq	.+14     	; 0x71ae <last_1_log+0x56>
    71a0:	83 e7       	ldi	r24, 0x73	; 115
    71a2:	f8 16       	cp	r15, r24
    71a4:	91 f0       	breq	.+36     	; 0x71ca <last_1_log+0x72>
    71a6:	e1 e6       	ldi	r30, 0x61	; 97
    71a8:	fe 12       	cpse	r15, r30
    71aa:	16 c0       	rjmp	.+44     	; 0x71d8 <last_1_log+0x80>
    71ac:	07 c0       	rjmp	.+14     	; 0x71bc <last_1_log+0x64>
  {
	  case 'n':
		send_to_rf(data_to_rf, 6, "[1stnml]"); //temporary reduce the sent data to 6 only in order to reduce bandwidth usage. Default value is 11
    71ae:	48 ed       	ldi	r20, 0xD8	; 216
    71b0:	58 e0       	ldi	r21, 0x08	; 8
    71b2:	66 e0       	ldi	r22, 0x06	; 6
    71b4:	84 ea       	ldi	r24, 0xA4	; 164
    71b6:	9f e1       	ldi	r25, 0x1F	; 31
    71b8:	53 dd       	rcall	.-1370   	; 0x6c60 <send_to_rf>
		break;
    71ba:	14 c0       	rjmp	.+40     	; 0x71e4 <last_1_log+0x8c>
	  case 'a':
		send_to_rf(data_to_rf, 6, "[1staci]");
    71bc:	41 ee       	ldi	r20, 0xE1	; 225
    71be:	58 e0       	ldi	r21, 0x08	; 8
    71c0:	66 e0       	ldi	r22, 0x06	; 6
    71c2:	84 ea       	ldi	r24, 0xA4	; 164
    71c4:	9f e1       	ldi	r25, 0x1F	; 31
    71c6:	4c dd       	rcall	.-1384   	; 0x6c60 <send_to_rf>
		break;
    71c8:	0d c0       	rjmp	.+26     	; 0x71e4 <last_1_log+0x8c>
	  case 's':
		send_to_rf(data_to_rf, 6, "[1stsft]");
    71ca:	4a ee       	ldi	r20, 0xEA	; 234
    71cc:	58 e0       	ldi	r21, 0x08	; 8
    71ce:	66 e0       	ldi	r22, 0x06	; 6
    71d0:	84 ea       	ldi	r24, 0xA4	; 164
    71d2:	9f e1       	ldi	r25, 0x1F	; 31
    71d4:	45 dd       	rcall	.-1398   	; 0x6c60 <send_to_rf>
		break;
    71d6:	06 c0       	rjmp	.+12     	; 0x71e4 <last_1_log+0x8c>
	  default:
		send_to_rf(data_to_rf, 11, "[1stlog]");
    71d8:	43 ef       	ldi	r20, 0xF3	; 243
    71da:	58 e0       	ldi	r21, 0x08	; 8
    71dc:	6b e0       	ldi	r22, 0x0B	; 11
    71de:	84 ea       	ldi	r24, 0xA4	; 164
    71e0:	9f e1       	ldi	r25, 0x1F	; 31
    71e2:	3e dd       	rcall	.-1412   	; 0x6c60 <send_to_rf>
		break;
  }
}
    71e4:	df 91       	pop	r29
    71e6:	cf 91       	pop	r28
    71e8:	1f 91       	pop	r17
    71ea:	0f 91       	pop	r16
    71ec:	ff 90       	pop	r15
    71ee:	08 95       	ret

000071f0 <last_2_log>:


void last_2_log(char type)
{
    71f0:	ff 92       	push	r15
    71f2:	0f 93       	push	r16
    71f4:	1f 93       	push	r17
    71f6:	cf 93       	push	r28
    71f8:	df 93       	push	r29
    71fa:	f8 2e       	mov	r15, r24
    71fc:	04 ea       	ldi	r16, 0xA4	; 164
    71fe:	1f e1       	ldi	r17, 0x1F	; 31
    7200:	c0 e0       	ldi	r28, 0x00	; 0
    7202:	d0 e0       	ldi	r29, 0x00	; 0
	uint8_t memory_address_low = 0;
	uint8_t memory_address_high = 0;
	for (uint8_t i=0; i<11; i++)
	{
		memory_address_high = (((memory_address_incr-11+i) & 0xFF00) >> 8);
    7204:	40 91 1e 21 	lds	r20, 0x211E
    7208:	50 91 1f 21 	lds	r21, 0x211F
    720c:	9a 01       	movw	r18, r20
    720e:	2b 50       	subi	r18, 0x0B	; 11
    7210:	31 09       	sbc	r19, r1
    7212:	2c 0f       	add	r18, r28
    7214:	3d 1f       	adc	r19, r29
    7216:	4b 50       	subi	r20, 0x0B	; 11
		memory_address_low = ((memory_address_incr-11+i) & 0x00FF);
    7218:	4c 0f       	add	r20, r28
		data_to_rf[i] = PNEWELSE2promRead(0xAF,'E',memory_address_low,memory_address_high);
    721a:	23 2f       	mov	r18, r19
    721c:	65 e4       	ldi	r22, 0x45	; 69
    721e:	8f ea       	ldi	r24, 0xAF	; 175
    7220:	0e 94 f9 24 	call	0x49f2	; 0x49f2 <PNEWELSE2promRead>
    7224:	f8 01       	movw	r30, r16
    7226:	81 93       	st	Z+, r24
    7228:	8f 01       	movw	r16, r30
    722a:	21 96       	adiw	r28, 0x01	; 1

void last_2_log(char type)
{
	uint8_t memory_address_low = 0;
	uint8_t memory_address_high = 0;
	for (uint8_t i=0; i<11; i++)
    722c:	cb 30       	cpi	r28, 0x0B	; 11
    722e:	d1 05       	cpc	r29, r1
    7230:	49 f7       	brne	.-46     	; 0x7204 <last_2_log+0x14>
		memory_address_high = (((memory_address_incr-11+i) & 0xFF00) >> 8);
		memory_address_low = ((memory_address_incr-11+i) & 0x00FF);
		data_to_rf[i] = PNEWELSE2promRead(0xAF,'E',memory_address_low,memory_address_high);
		/*pne_delayms(10);*/
	}
	switch(type)
    7232:	fe e6       	ldi	r31, 0x6E	; 110
    7234:	ff 16       	cp	r15, r31
    7236:	39 f0       	breq	.+14     	; 0x7246 <last_2_log+0x56>
    7238:	83 e7       	ldi	r24, 0x73	; 115
    723a:	f8 16       	cp	r15, r24
    723c:	91 f0       	breq	.+36     	; 0x7262 <last_2_log+0x72>
    723e:	e1 e6       	ldi	r30, 0x61	; 97
    7240:	fe 12       	cpse	r15, r30
    7242:	16 c0       	rjmp	.+44     	; 0x7270 <last_2_log+0x80>
    7244:	07 c0       	rjmp	.+14     	; 0x7254 <last_2_log+0x64>
	{
		case 'n':
			send_to_rf(data_to_rf, 6, "[2ndnml]");
    7246:	4c ef       	ldi	r20, 0xFC	; 252
    7248:	58 e0       	ldi	r21, 0x08	; 8
    724a:	66 e0       	ldi	r22, 0x06	; 6
    724c:	84 ea       	ldi	r24, 0xA4	; 164
    724e:	9f e1       	ldi	r25, 0x1F	; 31
    7250:	07 dd       	rcall	.-1522   	; 0x6c60 <send_to_rf>
			break;
    7252:	14 c0       	rjmp	.+40     	; 0x727c <last_2_log+0x8c>
		case 'a':
			send_to_rf(data_to_rf, 6, "[2ndaci]");
    7254:	45 e0       	ldi	r20, 0x05	; 5
    7256:	59 e0       	ldi	r21, 0x09	; 9
    7258:	66 e0       	ldi	r22, 0x06	; 6
    725a:	84 ea       	ldi	r24, 0xA4	; 164
    725c:	9f e1       	ldi	r25, 0x1F	; 31
    725e:	00 dd       	rcall	.-1536   	; 0x6c60 <send_to_rf>
			break;
    7260:	0d c0       	rjmp	.+26     	; 0x727c <last_2_log+0x8c>
		case 's':
			send_to_rf(data_to_rf, 6, "[2ndsft]");
    7262:	4e e0       	ldi	r20, 0x0E	; 14
    7264:	59 e0       	ldi	r21, 0x09	; 9
    7266:	66 e0       	ldi	r22, 0x06	; 6
    7268:	84 ea       	ldi	r24, 0xA4	; 164
    726a:	9f e1       	ldi	r25, 0x1F	; 31
    726c:	f9 dc       	rcall	.-1550   	; 0x6c60 <send_to_rf>
			break;
    726e:	06 c0       	rjmp	.+12     	; 0x727c <last_2_log+0x8c>
		default:
			send_to_rf(data_to_rf, 11, "[2ndlog]");
    7270:	47 e1       	ldi	r20, 0x17	; 23
    7272:	59 e0       	ldi	r21, 0x09	; 9
    7274:	6b e0       	ldi	r22, 0x0B	; 11
    7276:	84 ea       	ldi	r24, 0xA4	; 164
    7278:	9f e1       	ldi	r25, 0x1F	; 31
    727a:	f2 dc       	rcall	.-1564   	; 0x6c60 <send_to_rf>
			break;
	}
}
    727c:	df 91       	pop	r29
    727e:	cf 91       	pop	r28
    7280:	1f 91       	pop	r17
    7282:	0f 91       	pop	r16
    7284:	ff 90       	pop	r15
    7286:	08 95       	ret

00007288 <test_completed>:

void test_completed(char type, uint8_t retry)
{
    7288:	df 92       	push	r13
    728a:	ef 92       	push	r14
    728c:	ff 92       	push	r15
    728e:	0f 93       	push	r16
    7290:	cf 93       	push	r28
    7292:	df 93       	push	r29
    7294:	08 2f       	mov	r16, r24
    7296:	d6 2e       	mov	r13, r22
    7298:	0f 2e       	mov	r0, r31
    729a:	f4 ea       	ldi	r31, 0xA4	; 164
    729c:	ef 2e       	mov	r14, r31
    729e:	ff e1       	ldi	r31, 0x1F	; 31
    72a0:	ff 2e       	mov	r15, r31
    72a2:	f0 2d       	mov	r31, r0
    72a4:	c0 e0       	ldi	r28, 0x00	; 0
    72a6:	d0 e0       	ldi	r29, 0x00	; 0
	uint8_t memory_address_high = 0;
	uint8_t data_counter = 0;
	uint8_t counter = 0;
	for (uint8_t i=0; i<6; i++) //For the start of the test. Only retrieve the time portion. Fork of last_2_log function
	{
		memory_address_high = (((memory_address_incr-22+i) & 0xFF00) >> 8);
    72a8:	40 91 1e 21 	lds	r20, 0x211E
    72ac:	50 91 1f 21 	lds	r21, 0x211F
    72b0:	ca 01       	movw	r24, r20
    72b2:	46 97       	sbiw	r24, 0x16	; 22
    72b4:	8c 0f       	add	r24, r28
    72b6:	9d 1f       	adc	r25, r29
    72b8:	46 51       	subi	r20, 0x16	; 22
		memory_address_low = ((memory_address_incr-22+i) & 0x00FF);
    72ba:	4c 0f       	add	r20, r28
		data_to_rf[data_counter] = PNEWELSE2promRead(0xAF,'E',memory_address_low,memory_address_high);
    72bc:	29 2f       	mov	r18, r25
    72be:	65 e4       	ldi	r22, 0x45	; 69
    72c0:	8f ea       	ldi	r24, 0xAF	; 175
    72c2:	0e 94 f9 24 	call	0x49f2	; 0x49f2 <PNEWELSE2promRead>
    72c6:	f7 01       	movw	r30, r14
    72c8:	81 93       	st	Z+, r24
    72ca:	7f 01       	movw	r14, r30
    72cc:	21 96       	adiw	r28, 0x01	; 1
{
	uint8_t memory_address_low = 0;
	uint8_t memory_address_high = 0;
	uint8_t data_counter = 0;
	uint8_t counter = 0;
	for (uint8_t i=0; i<6; i++) //For the start of the test. Only retrieve the time portion. Fork of last_2_log function
    72ce:	c6 30       	cpi	r28, 0x06	; 6
    72d0:	d1 05       	cpc	r29, r1
    72d2:	51 f7       	brne	.-44     	; 0x72a8 <test_completed+0x20>
    72d4:	0f 2e       	mov	r0, r31
    72d6:	fa ea       	ldi	r31, 0xAA	; 170
    72d8:	ef 2e       	mov	r14, r31
    72da:	ff e1       	ldi	r31, 0x1F	; 31
    72dc:	ff 2e       	mov	r15, r31
    72de:	f0 2d       	mov	r31, r0
    72e0:	c0 e0       	ldi	r28, 0x00	; 0
    72e2:	d0 e0       	ldi	r29, 0x00	; 0
		data_to_rf[data_counter] = PNEWELSE2promRead(0xAF,'E',memory_address_low,memory_address_high);
		data_counter++;
	}
	for (uint8_t i=0; i<6; i++) //For the end of the test. Only retrieve the time portion
	{
		memory_address_high = (((memory_address_incr-11+i) & 0xFF00) >> 8);
    72e4:	40 91 1e 21 	lds	r20, 0x211E
    72e8:	50 91 1f 21 	lds	r21, 0x211F
    72ec:	ca 01       	movw	r24, r20
    72ee:	0b 97       	sbiw	r24, 0x0b	; 11
    72f0:	8c 0f       	add	r24, r28
    72f2:	9d 1f       	adc	r25, r29
    72f4:	4b 50       	subi	r20, 0x0B	; 11
		memory_address_low = ((memory_address_incr-11+i) & 0x00FF);
    72f6:	4c 0f       	add	r20, r28
		data_to_rf[data_counter] = PNEWELSE2promRead(0xAF,'E',memory_address_low,memory_address_high);
    72f8:	29 2f       	mov	r18, r25
    72fa:	65 e4       	ldi	r22, 0x45	; 69
    72fc:	8f ea       	ldi	r24, 0xAF	; 175
    72fe:	0e 94 f9 24 	call	0x49f2	; 0x49f2 <PNEWELSE2promRead>
    7302:	f7 01       	movw	r30, r14
    7304:	81 93       	st	Z+, r24
    7306:	7f 01       	movw	r14, r30
    7308:	21 96       	adiw	r28, 0x01	; 1
		memory_address_high = (((memory_address_incr-22+i) & 0xFF00) >> 8);
		memory_address_low = ((memory_address_incr-22+i) & 0x00FF);
		data_to_rf[data_counter] = PNEWELSE2promRead(0xAF,'E',memory_address_low,memory_address_high);
		data_counter++;
	}
	for (uint8_t i=0; i<6; i++) //For the end of the test. Only retrieve the time portion
    730a:	c6 30       	cpi	r28, 0x06	; 6
    730c:	d1 05       	cpc	r29, r1
    730e:	51 f7       	brne	.-44     	; 0x72e4 <test_completed+0x5c>
		memory_address_high = (((memory_address_incr-11+i) & 0xFF00) >> 8);
		memory_address_low = ((memory_address_incr-11+i) & 0x00FF);
		data_to_rf[data_counter] = PNEWELSE2promRead(0xAF,'E',memory_address_low,memory_address_high);
		data_counter++;
	}
	while(counter < retry)
    7310:	dd 20       	and	r13, r13
    7312:	31 f1       	breq	.+76     	; 0x7360 <test_completed+0xd8>
    7314:	c0 e0       	ldi	r28, 0x00	; 0
	{
		switch(type)
    7316:	0e 36       	cpi	r16, 0x6E	; 110
    7318:	29 f0       	breq	.+10     	; 0x7324 <test_completed+0x9c>
    731a:	03 37       	cpi	r16, 0x73	; 115
    731c:	89 f0       	breq	.+34     	; 0x7340 <test_completed+0xb8>
    731e:	01 36       	cpi	r16, 0x61	; 97
    7320:	b1 f4       	brne	.+44     	; 0x734e <test_completed+0xc6>
    7322:	07 c0       	rjmp	.+14     	; 0x7332 <test_completed+0xaa>
		{
			case 'n':
			send_to_rf(data_to_rf, data_counter, "[tstend]");
    7324:	40 e2       	ldi	r20, 0x20	; 32
    7326:	59 e0       	ldi	r21, 0x09	; 9
    7328:	6c e0       	ldi	r22, 0x0C	; 12
    732a:	84 ea       	ldi	r24, 0xA4	; 164
    732c:	9f e1       	ldi	r25, 0x1F	; 31
    732e:	98 dc       	rcall	.-1744   	; 0x6c60 <send_to_rf>
			break;
    7330:	14 c0       	rjmp	.+40     	; 0x735a <test_completed+0xd2>
			case 'a':
			send_to_rf(data_to_rf, data_counter, "[tstaci]");
    7332:	49 e2       	ldi	r20, 0x29	; 41
    7334:	59 e0       	ldi	r21, 0x09	; 9
    7336:	6c e0       	ldi	r22, 0x0C	; 12
    7338:	84 ea       	ldi	r24, 0xA4	; 164
    733a:	9f e1       	ldi	r25, 0x1F	; 31
    733c:	91 dc       	rcall	.-1758   	; 0x6c60 <send_to_rf>
			break;
    733e:	0d c0       	rjmp	.+26     	; 0x735a <test_completed+0xd2>
			case 's':
			send_to_rf(data_to_rf, data_counter, "[tststp]");
    7340:	42 e3       	ldi	r20, 0x32	; 50
    7342:	59 e0       	ldi	r21, 0x09	; 9
    7344:	6c e0       	ldi	r22, 0x0C	; 12
    7346:	84 ea       	ldi	r24, 0xA4	; 164
    7348:	9f e1       	ldi	r25, 0x1F	; 31
    734a:	8a dc       	rcall	.-1772   	; 0x6c60 <send_to_rf>
			break;
    734c:	06 c0       	rjmp	.+12     	; 0x735a <test_completed+0xd2>
			default:
			send_to_rf(data_to_rf, data_counter, "[tstend]");
    734e:	40 e2       	ldi	r20, 0x20	; 32
    7350:	59 e0       	ldi	r21, 0x09	; 9
    7352:	6c e0       	ldi	r22, 0x0C	; 12
    7354:	84 ea       	ldi	r24, 0xA4	; 164
    7356:	9f e1       	ldi	r25, 0x1F	; 31
    7358:	83 dc       	rcall	.-1786   	; 0x6c60 <send_to_rf>
			break;
		}
		counter++;
    735a:	cf 5f       	subi	r28, 0xFF	; 255
		memory_address_high = (((memory_address_incr-11+i) & 0xFF00) >> 8);
		memory_address_low = ((memory_address_incr-11+i) & 0x00FF);
		data_to_rf[data_counter] = PNEWELSE2promRead(0xAF,'E',memory_address_low,memory_address_high);
		data_counter++;
	}
	while(counter < retry)
    735c:	cd 11       	cpse	r28, r13
    735e:	db cf       	rjmp	.-74     	; 0x7316 <test_completed+0x8e>
	}
	
/*	send_to_rf(data_to_rf, data_counter + 1, "[tstend]");*/
// 	pne_delayms(10);
// 	send_to_rf(data_to_rf, data_counter + 1, "[tstend]");
}
    7360:	df 91       	pop	r29
    7362:	cf 91       	pop	r28
    7364:	0f 91       	pop	r16
    7366:	ff 90       	pop	r15
    7368:	ef 90       	pop	r14
    736a:	df 90       	pop	r13
    736c:	08 95       	ret

0000736e <dump_log_to_rf>:

/*---------This is experimental function----------------*/
void dump_log_to_rf()
{
    736e:	0f 93       	push	r16
    7370:	1f 93       	push	r17
    7372:	cf 93       	push	r28
    7374:	df 93       	push	r29
	uint8_t i = 0;
	uint8_t memory_address_high = 0;
	uint8_t memory_address_low = 0;
	
	for (uint16_t tmpi=0; tmpi<4092; tmpi++)
    7376:	c0 e0       	ldi	r28, 0x00	; 0
    7378:	d0 e0       	ldi	r29, 0x00	; 0
}

/*---------This is experimental function----------------*/
void dump_log_to_rf()
{
	uint8_t i = 0;
    737a:	10 e0       	ldi	r17, 0x00	; 0
	for (uint16_t tmpi=0; tmpi<4092; tmpi++)
	{
		if(i == 11)
		{
			send_to_rf(data_to_rf, 11, "[dumpmm]");
			i = 0;
    737c:	00 e0       	ldi	r16, 0x00	; 0
    737e:	09 c0       	rjmp	.+18     	; 0x7392 <dump_log_to_rf+0x24>
	uint8_t memory_address_high = 0;
	uint8_t memory_address_low = 0;
	
	for (uint16_t tmpi=0; tmpi<4092; tmpi++)
	{
		if(i == 11)
    7380:	1b 30       	cpi	r17, 0x0B	; 11
    7382:	39 f4       	brne	.+14     	; 0x7392 <dump_log_to_rf+0x24>
		{
			send_to_rf(data_to_rf, 11, "[dumpmm]");
    7384:	4b e3       	ldi	r20, 0x3B	; 59
    7386:	59 e0       	ldi	r21, 0x09	; 9
    7388:	6b e0       	ldi	r22, 0x0B	; 11
    738a:	84 ea       	ldi	r24, 0xA4	; 164
    738c:	9f e1       	ldi	r25, 0x1F	; 31
    738e:	68 dc       	rcall	.-1840   	; 0x6c60 <send_to_rf>
			i = 0;
    7390:	10 2f       	mov	r17, r16
			/*pne_delayms(10);*/
		}
		memory_address_low = (tmpi & 0xFF);
		memory_address_high = ((tmpi >> 8) & 0xFF);
		data_to_rf[i] = PNEWELSE2promRead(0xAF,'E',memory_address_low,memory_address_high);
    7392:	2d 2f       	mov	r18, r29
    7394:	4c 2f       	mov	r20, r28
    7396:	65 e4       	ldi	r22, 0x45	; 69
    7398:	8f ea       	ldi	r24, 0xAF	; 175
    739a:	0e 94 f9 24 	call	0x49f2	; 0x49f2 <PNEWELSE2promRead>
    739e:	e1 2f       	mov	r30, r17
    73a0:	f0 e0       	ldi	r31, 0x00	; 0
    73a2:	ec 55       	subi	r30, 0x5C	; 92
    73a4:	f0 4e       	sbci	r31, 0xE0	; 224
    73a6:	80 83       	st	Z, r24
		pne_delayms(10);
    73a8:	8a e0       	ldi	r24, 0x0A	; 10
    73aa:	90 e0       	ldi	r25, 0x00	; 0
    73ac:	0e 94 e1 23 	call	0x47c2	; 0x47c2 <pne_delayms>
		i++;
    73b0:	1f 5f       	subi	r17, 0xFF	; 255
{
	uint8_t i = 0;
	uint8_t memory_address_high = 0;
	uint8_t memory_address_low = 0;
	
	for (uint16_t tmpi=0; tmpi<4092; tmpi++)
    73b2:	21 96       	adiw	r28, 0x01	; 1
    73b4:	cc 3f       	cpi	r28, 0xFC	; 252
    73b6:	8f e0       	ldi	r24, 0x0F	; 15
    73b8:	d8 07       	cpc	r29, r24
    73ba:	11 f7       	brne	.-60     	; 0x7380 <dump_log_to_rf+0x12>
		data_to_rf[i] = PNEWELSE2promRead(0xAF,'E',memory_address_low,memory_address_high);
		pne_delayms(10);
		i++;
		
	}
}
    73bc:	df 91       	pop	r29
    73be:	cf 91       	pop	r28
    73c0:	1f 91       	pop	r17
    73c2:	0f 91       	pop	r16
    73c4:	08 95       	ret

000073c6 <stress_test>:
//---------End of Experimental function-----------------*/
/*---------This is experimental function----------------*/
void stress_test()
{
    73c6:	ef 92       	push	r14
    73c8:	ff 92       	push	r15
    73ca:	1f 93       	push	r17
    73cc:	cf 93       	push	r28
    73ce:	df 93       	push	r29
	for(uint8_t u = 0; u<20; u++)
    73d0:	10 e0       	ldi	r17, 0x00	; 0
    73d2:	0f 2e       	mov	r0, r31
    73d4:	f4 ea       	ldi	r31, 0xA4	; 164
    73d6:	ef 2e       	mov	r14, r31
    73d8:	ff e1       	ldi	r31, 0x1F	; 31
    73da:	ff 2e       	mov	r15, r31
    73dc:	f0 2d       	mov	r31, r0
    73de:	c3 ec       	ldi	r28, 0xC3	; 195
    73e0:	df e1       	ldi	r29, 0x1F	; 31
    73e2:	0e c0       	rjmp	.+28     	; 0x7400 <stress_test+0x3a>
	{
		for(uint16_t i = 0; i<31; i++)
		{
			data_to_rf[i] = 0;
    73e4:	11 92       	st	Z+, r1
/*---------This is experimental function----------------*/
void stress_test()
{
	for(uint8_t u = 0; u<20; u++)
	{
		for(uint16_t i = 0; i<31; i++)
    73e6:	ec 17       	cp	r30, r28
    73e8:	fd 07       	cpc	r31, r29
    73ea:	e1 f7       	brne	.-8      	; 0x73e4 <stress_test+0x1e>
		{
			data_to_rf[i] = 0;
		}
		data_to_rf[31] = u;
    73ec:	f7 01       	movw	r30, r14
    73ee:	17 8f       	std	Z+31, r17	; 0x1f
		send_to_rf(data_to_rf,32,"[stress]");
    73f0:	4b ee       	ldi	r20, 0xEB	; 235
    73f2:	52 e0       	ldi	r21, 0x02	; 2
    73f4:	60 e2       	ldi	r22, 0x20	; 32
    73f6:	c7 01       	movw	r24, r14
    73f8:	33 dc       	rcall	.-1946   	; 0x6c60 <send_to_rf>
}
//---------End of Experimental function-----------------*/
/*---------This is experimental function----------------*/
void stress_test()
{
	for(uint8_t u = 0; u<20; u++)
    73fa:	1f 5f       	subi	r17, 0xFF	; 255
    73fc:	14 31       	cpi	r17, 0x14	; 20
    73fe:	11 f0       	breq	.+4      	; 0x7404 <stress_test+0x3e>
    7400:	f7 01       	movw	r30, r14
    7402:	f0 cf       	rjmp	.-32     	; 0x73e4 <stress_test+0x1e>
			data_to_rf[i] = 0;
		}
		data_to_rf[31] = u;
		send_to_rf(data_to_rf,32,"[stress]");
	}
}
    7404:	df 91       	pop	r29
    7406:	cf 91       	pop	r28
    7408:	1f 91       	pop	r17
    740a:	ff 90       	pop	r15
    740c:	ef 90       	pop	r14
    740e:	08 95       	ret

00007410 <request_to_RF>:
//---------End of Experimental function-----------------*/
void request_to_RF(uint8_t *RFU_UID)
{
    7410:	fc 01       	movw	r30, r24
    7412:	a4 ea       	ldi	r26, 0xA4	; 164
    7414:	bf e1       	ldi	r27, 0x1F	; 31
    7416:	9c 01       	movw	r18, r24
    7418:	20 5f       	subi	r18, 0xF0	; 240
    741a:	3f 4f       	sbci	r19, 0xFF	; 255
	for(uint8_t i = 0; i<max_UID_length; i++)
	{
		data_to_rf[i] = RFU_UID[i];
    741c:	81 91       	ld	r24, Z+
    741e:	8d 93       	st	X+, r24
	}
}
//---------End of Experimental function-----------------*/
void request_to_RF(uint8_t *RFU_UID)
{
	for(uint8_t i = 0; i<max_UID_length; i++)
    7420:	e2 17       	cp	r30, r18
    7422:	f3 07       	cpc	r31, r19
    7424:	d9 f7       	brne	.-10     	; 0x741c <request_to_RF+0xc>
	{
		data_to_rf[i] = RFU_UID[i];
	}
	send_to_rf(data_to_rf, max_UID_length, "[requid]");
    7426:	44 e4       	ldi	r20, 0x44	; 68
    7428:	59 e0       	ldi	r21, 0x09	; 9
    742a:	60 e1       	ldi	r22, 0x10	; 16
    742c:	84 ea       	ldi	r24, 0xA4	; 164
    742e:	9f e1       	ldi	r25, 0x1F	; 31
    7430:	17 cc       	rjmp	.-2002   	; 0x6c60 <send_to_rf>
    7432:	08 95       	ret

00007434 <sos_to_RF>:
}

void sos_to_RF(uint8_t *RFU_UID)
{
    7434:	fc 01       	movw	r30, r24
    7436:	a4 ea       	ldi	r26, 0xA4	; 164
    7438:	bf e1       	ldi	r27, 0x1F	; 31
    743a:	9c 01       	movw	r18, r24
    743c:	20 5f       	subi	r18, 0xF0	; 240
    743e:	3f 4f       	sbci	r19, 0xFF	; 255
	for(uint8_t i = 0; i<max_UID_length; i++)
	{
		data_to_rf[i] = RFU_UID[i];
    7440:	81 91       	ld	r24, Z+
    7442:	8d 93       	st	X+, r24
	send_to_rf(data_to_rf, max_UID_length, "[requid]");
}

void sos_to_RF(uint8_t *RFU_UID)
{
	for(uint8_t i = 0; i<max_UID_length; i++)
    7444:	e2 17       	cp	r30, r18
    7446:	f3 07       	cpc	r31, r19
    7448:	d9 f7       	brne	.-10     	; 0x7440 <sos_to_RF+0xc>
	{
		data_to_rf[i] = RFU_UID[i];
	}
	send_to_rf(data_to_rf, max_UID_length, "[sosmsg]");
    744a:	48 e1       	ldi	r20, 0x18	; 24
    744c:	53 e0       	ldi	r21, 0x03	; 3
    744e:	60 e1       	ldi	r22, 0x10	; 16
    7450:	84 ea       	ldi	r24, 0xA4	; 164
    7452:	9f e1       	ldi	r25, 0x1F	; 31
    7454:	05 cc       	rjmp	.-2038   	; 0x6c60 <send_to_rf>
    7456:	08 95       	ret

00007458 <WPS_OK_Alert>:
	/*send_to_rf(data_to_rf, 0, "[chngid]");*/
}

void WPS_OK_Alert(uint8_t *data, uint8_t size)
{
	send_to_rf(data,size,"[pairok]");
    7458:	4d e4       	ldi	r20, 0x4D	; 77
    745a:	59 e0       	ldi	r21, 0x09	; 9
    745c:	01 cc       	rjmp	.-2046   	; 0x6c60 <send_to_rf>
    745e:	08 95       	ret

00007460 <crc_verify>:
}


//crc verification routine
bool crc_verify(uint8_t *data, uint8_t size)
{
    7460:	df 92       	push	r13
    7462:	ef 92       	push	r14
    7464:	ff 92       	push	r15
    7466:	0f 93       	push	r16
    7468:	1f 93       	push	r17
    746a:	cf 93       	push	r28
    746c:	df 93       	push	r29
    746e:	8c 01       	movw	r16, r24
    7470:	c6 2f       	mov	r28, r22
	uint8_t crc_upper = 0;
	uint8_t crc_lower = 0;
	crc_upper = data[size-2]; //crc_upper = (ascii_to_hex(data[size-4])*0x10 + ascii_to_hex(data[size-3]));
    7472:	9c 01       	movw	r18, r24
    7474:	26 0f       	add	r18, r22
    7476:	31 1d       	adc	r19, r1
    7478:	f9 01       	movw	r30, r18
    747a:	32 97       	sbiw	r30, 0x02	; 2
    747c:	e0 80       	ld	r14, Z
	crc_lower = data[size-1]; //crc_lower = (ascii_to_hex(data[size-1])*0x10 + ascii_to_hex(data[size-1]));
    747e:	31 96       	adiw	r30, 0x01	; 1
    7480:	d0 80       	ld	r13, Z
	uint8_t crc_upper_internal = 0;
	uint8_t crc_lower_internal = 0;
	uint8_t data_length = size-2; //uint8_t data_length = size-4;
	crcInit();
    7482:	84 d1       	rcall	.+776    	; 0x778c <crcInit>
	uint8_t crc_lower = 0;
	crc_upper = data[size-2]; //crc_upper = (ascii_to_hex(data[size-4])*0x10 + ascii_to_hex(data[size-3]));
	crc_lower = data[size-1]; //crc_lower = (ascii_to_hex(data[size-1])*0x10 + ascii_to_hex(data[size-1]));
	uint8_t crc_upper_internal = 0;
	uint8_t crc_lower_internal = 0;
	uint8_t data_length = size-2; //uint8_t data_length = size-4;
    7484:	c2 50       	subi	r28, 0x02	; 2
	crcInit();
	crc_upper_internal = ((crcFast(data, (data_length)) & 0xFF00) >> 8);
    7486:	d0 e0       	ldi	r29, 0x00	; 0
    7488:	be 01       	movw	r22, r28
    748a:	c8 01       	movw	r24, r16
    748c:	9c d1       	rcall	.+824    	; 0x77c6 <crcFast>
    748e:	f9 2e       	mov	r15, r25
	crc_lower_internal = (crcFast(data, (data_length)) & 0x00FF);
    7490:	be 01       	movw	r22, r28
    7492:	c8 01       	movw	r24, r16
    7494:	98 d1       	rcall	.+816    	; 0x77c6 <crcFast>
    7496:	98 2f       	mov	r25, r24
	if ((crc_upper_internal == crc_upper) && (crc_lower_internal == crc_lower))
    7498:	ef 10       	cpse	r14, r15
    749a:	05 c0       	rjmp	.+10     	; 0x74a6 <crc_verify+0x46>
    749c:	81 e0       	ldi	r24, 0x01	; 1
    749e:	d9 16       	cp	r13, r25
    74a0:	19 f0       	breq	.+6      	; 0x74a8 <crc_verify+0x48>
    74a2:	80 e0       	ldi	r24, 0x00	; 0
    74a4:	01 c0       	rjmp	.+2      	; 0x74a8 <crc_verify+0x48>
	{
		
		return true;
	}

	return false;	
    74a6:	80 e0       	ldi	r24, 0x00	; 0
}
    74a8:	df 91       	pop	r29
    74aa:	cf 91       	pop	r28
    74ac:	1f 91       	pop	r17
    74ae:	0f 91       	pop	r16
    74b0:	ff 90       	pop	r15
    74b2:	ef 90       	pop	r14
    74b4:	df 90       	pop	r13
    74b6:	08 95       	ret

000074b8 <ascii_to_hex>:

//ascii to hex conversion routine
uint8_t ascii_to_hex(uint8_t data)
{
	uint8_t return_data = 0;
	if ((data<=0x39) && (data>=0x30))
    74b8:	90 ed       	ldi	r25, 0xD0	; 208
    74ba:	98 0f       	add	r25, r24
    74bc:	9a 30       	cpi	r25, 0x0A	; 10
    74be:	08 f0       	brcs	.+2      	; 0x74c2 <ascii_to_hex+0xa>


//ascii to hex conversion routine
uint8_t ascii_to_hex(uint8_t data)
{
	uint8_t return_data = 0;
    74c0:	90 e0       	ldi	r25, 0x00	; 0
	if ((data<=0x39) && (data>=0x30))
	{
		return_data = data - 0x30;
	}
	if ((data<=0x5A) && (data>=0x41))
    74c2:	2f eb       	ldi	r18, 0xBF	; 191
    74c4:	28 0f       	add	r18, r24
    74c6:	2a 31       	cpi	r18, 0x1A	; 26
    74c8:	10 f4       	brcc	.+4      	; 0x74ce <ascii_to_hex+0x16>
	{
		return_data = data - 0x37;
    74ca:	99 ec       	ldi	r25, 0xC9	; 201
    74cc:	98 0f       	add	r25, r24
	}
	if ((data<=0x66) && (data>=0x61))
    74ce:	2f e9       	ldi	r18, 0x9F	; 159
    74d0:	28 0f       	add	r18, r24
    74d2:	26 30       	cpi	r18, 0x06	; 6
    74d4:	10 f4       	brcc	.+4      	; 0x74da <ascii_to_hex+0x22>
	{
		return_data = data - 0x57;
    74d6:	99 ea       	ldi	r25, 0xA9	; 169
    74d8:	98 0f       	add	r25, r24
	}
	return return_data;
}
    74da:	89 2f       	mov	r24, r25
    74dc:	08 95       	ret

000074de <fatal_error_to_rf>:


//fatal error routine
void fatal_error_to_rf(fatal_error_t error)
{
	if (error == adc_fatal_error)
    74de:	81 11       	cpse	r24, r1
    74e0:	0a c0       	rjmp	.+20     	; 0x74f6 <fatal_error_to_rf+0x18>
	{
		data_to_rf[0] = adc_fatal_error+1;
    74e2:	81 e0       	ldi	r24, 0x01	; 1
    74e4:	80 93 a4 1f 	sts	0x1FA4, r24
		send_to_rf(data_to_rf,1,"[ferror]");
    74e8:	46 e5       	ldi	r20, 0x56	; 86
    74ea:	59 e0       	ldi	r21, 0x09	; 9
    74ec:	61 e0       	ldi	r22, 0x01	; 1
    74ee:	84 ea       	ldi	r24, 0xA4	; 164
    74f0:	9f e1       	ldi	r25, 0x1F	; 31
    74f2:	b6 cb       	rjmp	.-2196   	; 0x6c60 <send_to_rf>
    74f4:	08 95       	ret
	}
	else if (error == twi_fatal_error)
    74f6:	81 30       	cpi	r24, 0x01	; 1
    74f8:	51 f4       	brne	.+20     	; 0x750e <fatal_error_to_rf+0x30>
	{
		data_to_rf[0] = twi_fatal_error+1;
    74fa:	82 e0       	ldi	r24, 0x02	; 2
    74fc:	80 93 a4 1f 	sts	0x1FA4, r24
		send_to_rf(data_to_rf,1,"[ferror]");
    7500:	46 e5       	ldi	r20, 0x56	; 86
    7502:	59 e0       	ldi	r21, 0x09	; 9
    7504:	61 e0       	ldi	r22, 0x01	; 1
    7506:	84 ea       	ldi	r24, 0xA4	; 164
    7508:	9f e1       	ldi	r25, 0x1F	; 31
    750a:	aa cb       	rjmp	.-2220   	; 0x6c60 <send_to_rf>
    750c:	08 95       	ret
	}
	else if (error == usart_fatal_error)
    750e:	82 30       	cpi	r24, 0x02	; 2
    7510:	51 f4       	brne	.+20     	; 0x7526 <fatal_error_to_rf+0x48>
	{
		data_to_rf[0] = usart_fatal_error+1;
    7512:	83 e0       	ldi	r24, 0x03	; 3
    7514:	80 93 a4 1f 	sts	0x1FA4, r24
		send_to_rf(data_to_rf,1,"[ferror]");
    7518:	46 e5       	ldi	r20, 0x56	; 86
    751a:	59 e0       	ldi	r21, 0x09	; 9
    751c:	61 e0       	ldi	r22, 0x01	; 1
    751e:	84 ea       	ldi	r24, 0xA4	; 164
    7520:	9f e1       	ldi	r25, 0x1F	; 31
    7522:	9e cb       	rjmp	.-2244   	; 0x6c60 <send_to_rf>
    7524:	08 95       	ret
	}
	else
	{
		data_to_rf[0] = timer2_fatal_error+1;
    7526:	84 e0       	ldi	r24, 0x04	; 4
    7528:	80 93 a4 1f 	sts	0x1FA4, r24
		send_to_rf(data_to_rf,1,"[ferror]");
    752c:	46 e5       	ldi	r20, 0x56	; 86
    752e:	59 e0       	ldi	r21, 0x09	; 9
    7530:	61 e0       	ldi	r22, 0x01	; 1
    7532:	84 ea       	ldi	r24, 0xA4	; 164
    7534:	9f e1       	ldi	r25, 0x1F	; 31
    7536:	94 cb       	rjmp	.-2264   	; 0x6c60 <send_to_rf>
    7538:	08 95       	ret

0000753a <__vector_23>:
			month[calendar_leapyear(date_out->year)][date_out->month]) {
		day_number -= month[calendar_leapyear(date_out->year)][date_out->month];
		date_out->month++;
	}
	date_out->date = day_number;
}
    753a:	1f 92       	push	r1
    753c:	0f 92       	push	r0
    753e:	0f b6       	in	r0, 0x3f	; 63
    7540:	0f 92       	push	r0
    7542:	11 24       	eor	r1, r1
    7544:	8f 93       	push	r24
    7546:	9f 93       	push	r25
    7548:	af 93       	push	r26
    754a:	bf 93       	push	r27
    754c:	80 91 0b 20 	lds	r24, 0x200B
    7550:	8f 5f       	subi	r24, 0xFF	; 255
    7552:	80 93 0b 20 	sts	0x200B, r24
    7556:	8e 31       	cpi	r24, 0x1E	; 30
    7558:	a8 f0       	brcs	.+42     	; 0x7584 <__vector_23+0x4a>
    755a:	80 91 0c 20 	lds	r24, 0x200C
    755e:	90 91 0d 20 	lds	r25, 0x200D
    7562:	a0 91 0e 20 	lds	r26, 0x200E
    7566:	b0 91 0f 20 	lds	r27, 0x200F
    756a:	01 96       	adiw	r24, 0x01	; 1
    756c:	a1 1d       	adc	r26, r1
    756e:	b1 1d       	adc	r27, r1
    7570:	80 93 0c 20 	sts	0x200C, r24
    7574:	90 93 0d 20 	sts	0x200D, r25
    7578:	a0 93 0e 20 	sts	0x200E, r26
    757c:	b0 93 0f 20 	sts	0x200F, r27
    7580:	10 92 0b 20 	sts	0x200B, r1
    7584:	bf 91       	pop	r27
    7586:	af 91       	pop	r26
    7588:	9f 91       	pop	r25
    758a:	8f 91       	pop	r24
    758c:	0f 90       	pop	r0
    758e:	0f be       	out	0x3f, r0	; 63
    7590:	0f 90       	pop	r0
    7592:	1f 90       	pop	r1
    7594:	18 95       	reti

00007596 <__vector_15>:
    7596:	1f 92       	push	r1
    7598:	0f 92       	push	r0
    759a:	0f b6       	in	r0, 0x3f	; 63
    759c:	0f 92       	push	r0
    759e:	11 24       	eor	r1, r1
    75a0:	8f 93       	push	r24
    75a2:	9f 93       	push	r25
    75a4:	af 93       	push	r26
    75a6:	bf 93       	push	r27
    75a8:	80 91 0c 20 	lds	r24, 0x200C
    75ac:	90 91 0d 20 	lds	r25, 0x200D
    75b0:	a0 91 0e 20 	lds	r26, 0x200E
    75b4:	b0 91 0f 20 	lds	r27, 0x200F
    75b8:	01 96       	adiw	r24, 0x01	; 1
    75ba:	a1 1d       	adc	r26, r1
    75bc:	b1 1d       	adc	r27, r1
    75be:	80 93 0c 20 	sts	0x200C, r24
    75c2:	90 93 0d 20 	sts	0x200D, r25
    75c6:	a0 93 0e 20 	sts	0x200E, r26
    75ca:	b0 93 0f 20 	sts	0x200F, r27
    75ce:	bf 91       	pop	r27
    75d0:	af 91       	pop	r26
    75d2:	9f 91       	pop	r25
    75d4:	8f 91       	pop	r24
    75d6:	0f 90       	pop	r0
    75d8:	0f be       	out	0x3f, r0	; 63
    75da:	0f 90       	pop	r0
    75dc:	1f 90       	pop	r1
    75de:	18 95       	reti

000075e0 <timer2_init>:
    75e0:	f8 94       	cli
    75e2:	10 92 70 00 	sts	0x0070, r1
    75e6:	e6 eb       	ldi	r30, 0xB6	; 182
    75e8:	f0 e0       	ldi	r31, 0x00	; 0
    75ea:	80 81       	ld	r24, Z
    75ec:	80 62       	ori	r24, 0x20	; 32
    75ee:	80 83       	st	Z, r24
    75f0:	10 92 b2 00 	sts	0x00B2, r1
    75f4:	10 92 b0 00 	sts	0x00B0, r1
    75f8:	85 e0       	ldi	r24, 0x05	; 5
    75fa:	80 93 b1 00 	sts	0x00B1, r24
    75fe:	80 81       	ld	r24, Z
    7600:	83 70       	andi	r24, 0x03	; 3
    7602:	83 30       	cpi	r24, 0x03	; 3
    7604:	e1 f3       	breq	.-8      	; 0x75fe <timer2_init+0x1e>
    7606:	10 92 b2 00 	sts	0x00B2, r1
    760a:	10 92 b0 00 	sts	0x00B0, r1
    760e:	85 e0       	ldi	r24, 0x05	; 5
    7610:	80 93 b1 00 	sts	0x00B1, r24
    7614:	17 ba       	out	0x17, r1	; 23
    7616:	e0 e7       	ldi	r30, 0x70	; 112
    7618:	f0 e0       	ldi	r31, 0x00	; 0
    761a:	80 81       	ld	r24, Z
    761c:	81 60       	ori	r24, 0x01	; 1
    761e:	80 83       	st	Z, r24
    7620:	78 94       	sei
    7622:	08 95       	ret

00007624 <set_timestamp>:

void set_timestamp(uint32_t timestamp)
{
	timestamp_internal = timestamp;
    7624:	60 93 0c 20 	sts	0x200C, r22
    7628:	70 93 0d 20 	sts	0x200D, r23
    762c:	80 93 0e 20 	sts	0x200E, r24
    7630:	90 93 0f 20 	sts	0x200F, r25
    7634:	08 95       	ret

00007636 <get_timestamp>:
}

uint32_t get_timestamp(void)
{
	return timestamp_internal;
    7636:	60 91 0c 20 	lds	r22, 0x200C
    763a:	70 91 0d 20 	lds	r23, 0x200D
    763e:	80 91 0e 20 	lds	r24, 0x200E
    7642:	90 91 0f 20 	lds	r25, 0x200F
    7646:	08 95       	ret

00007648 <pneBatteryAverage_init>:
#include "PNE_Factory.h"



void pneBatteryAverage_init()
{
    7648:	0f 93       	push	r16
    764a:	1f 93       	push	r17
    764c:	cf 93       	push	r28
    764e:	df 93       	push	r29
	battery_counter = 0;
    7650:	10 92 5f 21 	sts	0x215F, r1
    7654:	a9 e5       	ldi	r26, 0x59	; 89
    7656:	b1 e2       	ldi	r27, 0x21	; 33
    7658:	6e e5       	ldi	r22, 0x5E	; 94
    765a:	71 e2       	ldi	r23, 0x21	; 33
#if defined(MUX5)
	/* if bit 6 (MUX5) is set: */
	if (input & (1 << 5)) {
		ADCSRB = (1 << MUX5);
	} else {
		ADCSRB &= ~(1 << MUX5);
    765c:	0b e7       	ldi	r16, 0x7B	; 123
    765e:	10 e0       	ldi	r17, 0x00	; 0
	}

	ADMUX
		= ((uint8_t)input &
    7660:	4c e7       	ldi	r20, 0x7C	; 124
    7662:	50 e0       	ldi	r21, 0x00	; 0
    7664:	90 e6       	ldi	r25, 0x60	; 96
			ADC_MUX_MASK) | (uint8_t)vref | ADC_ADJUSTMENT_LEFT;
#else
	ADMUX = (uint8_t)input | (uint8_t)vref | ADC_ADJUSTMENT_LEFT;
#endif
	ADCSRA |= (1 << ADSC);
    7666:	ea e7       	ldi	r30, 0x7A	; 122
    7668:	f0 e0       	ldi	r31, 0x00	; 0
			//fatal_error_to_rf(adc_fatal_error);
			//break;
		//}
	}

	return ADCH;
    766a:	29 e7       	ldi	r18, 0x79	; 121
    766c:	30 e0       	ldi	r19, 0x00	; 0
#if defined(MUX5)
	/* if bit 6 (MUX5) is set: */
	if (input & (1 << 5)) {
		ADCSRB = (1 << MUX5);
	} else {
		ADCSRB &= ~(1 << MUX5);
    766e:	e8 01       	movw	r28, r16
    7670:	88 81       	ld	r24, Y
    7672:	87 7f       	andi	r24, 0xF7	; 247
    7674:	88 83       	st	Y, r24
	}

	ADMUX
		= ((uint8_t)input &
    7676:	ea 01       	movw	r28, r20
    7678:	98 83       	st	Y, r25
			ADC_MUX_MASK) | (uint8_t)vref | ADC_ADJUSTMENT_LEFT;
#else
	ADMUX = (uint8_t)input | (uint8_t)vref | ADC_ADJUSTMENT_LEFT;
#endif
	ADCSRA |= (1 << ADSC);
    767a:	80 81       	ld	r24, Z
    767c:	80 64       	ori	r24, 0x40	; 64
    767e:	80 83       	st	Z, r24

	while ((ADCSRA & (1 << ADSC))) {
    7680:	80 81       	ld	r24, Z
    7682:	86 fd       	sbrc	r24, 6
    7684:	fd cf       	rjmp	.-6      	; 0x7680 <pneBatteryAverage_init+0x38>
			//fatal_error_to_rf(adc_fatal_error);
			//break;
		//}
	}

	return ADCH;
    7686:	e9 01       	movw	r28, r18
    7688:	88 81       	ld	r24, Y
	uint8_t i=0;
		
	for(i=0; i<5; i++)
	{
		battery_average[i] = adc_read_8bit(ADC_BATTERY_INPUT, ADC_VREF);
    768a:	8d 93       	st	X+, r24
void pneBatteryAverage_init()
{
	battery_counter = 0;
	uint8_t i=0;
		
	for(i=0; i<5; i++)
    768c:	a6 17       	cp	r26, r22
    768e:	b7 07       	cpc	r27, r23
    7690:	71 f7       	brne	.-36     	; 0x766e <pneBatteryAverage_init+0x26>
	{
		battery_average[i] = adc_read_8bit(ADC_BATTERY_INPUT, ADC_VREF);
		//int_to_ascii(battery_average[i]);
	}
}
    7692:	df 91       	pop	r29
    7694:	cf 91       	pop	r28
    7696:	1f 91       	pop	r17
    7698:	0f 91       	pop	r16
    769a:	08 95       	ret

0000769c <pneBatteryAverage>:

uint8_t pneBatteryAverage()
{
	if(battery_counter > 5)
    769c:	80 91 5f 21 	lds	r24, 0x215F
    76a0:	86 30       	cpi	r24, 0x06	; 6
    76a2:	10 f0       	brcs	.+4      	; 0x76a8 <pneBatteryAverage+0xc>
	{
		battery_counter = 0;
    76a4:	10 92 5f 21 	sts	0x215F, r1
	}
	
	battery_average[battery_counter] = adc_read_8bit(ADC_BATTERY_INPUT, ADC_VREF);//*18*10/255;
    76a8:	a0 91 5f 21 	lds	r26, 0x215F
    76ac:	b0 e0       	ldi	r27, 0x00	; 0
#if defined(MUX5)
	/* if bit 6 (MUX5) is set: */
	if (input & (1 << 5)) {
		ADCSRB = (1 << MUX5);
	} else {
		ADCSRB &= ~(1 << MUX5);
    76ae:	eb e7       	ldi	r30, 0x7B	; 123
    76b0:	f0 e0       	ldi	r31, 0x00	; 0
    76b2:	80 81       	ld	r24, Z
    76b4:	87 7f       	andi	r24, 0xF7	; 247
    76b6:	80 83       	st	Z, r24
	}

	ADMUX
		= ((uint8_t)input &
    76b8:	80 e6       	ldi	r24, 0x60	; 96
    76ba:	80 93 7c 00 	sts	0x007C, r24
			ADC_MUX_MASK) | (uint8_t)vref | ADC_ADJUSTMENT_LEFT;
#else
	ADMUX = (uint8_t)input | (uint8_t)vref | ADC_ADJUSTMENT_LEFT;
#endif
	ADCSRA |= (1 << ADSC);
    76be:	ea e7       	ldi	r30, 0x7A	; 122
    76c0:	f0 e0       	ldi	r31, 0x00	; 0
    76c2:	80 81       	ld	r24, Z
    76c4:	80 64       	ori	r24, 0x40	; 64
    76c6:	80 83       	st	Z, r24

	while ((ADCSRA & (1 << ADSC))) {
    76c8:	80 81       	ld	r24, Z
    76ca:	86 fd       	sbrc	r24, 6
    76cc:	fd cf       	rjmp	.-6      	; 0x76c8 <pneBatteryAverage+0x2c>
			//fatal_error_to_rf(adc_fatal_error);
			//break;
		//}
	}

	return ADCH;
    76ce:	80 91 79 00 	lds	r24, 0x0079
    76d2:	e9 e5       	ldi	r30, 0x59	; 89
    76d4:	f1 e2       	ldi	r31, 0x21	; 33
    76d6:	a7 5a       	subi	r26, 0xA7	; 167
    76d8:	be 4d       	sbci	r27, 0xDE	; 222
    76da:	8c 93       	st	X, r24
	battery_counter++;
    76dc:	80 91 5f 21 	lds	r24, 0x215F
    76e0:	8f 5f       	subi	r24, 0xFF	; 255
    76e2:	80 93 5f 21 	sts	0x215F, r24
	
	return (battery_average[0]+battery_average[1]+battery_average[2]+battery_average[3]+battery_average[4])/5;
    76e6:	20 81       	ld	r18, Z
    76e8:	81 81       	ldd	r24, Z+1	; 0x01
    76ea:	90 e0       	ldi	r25, 0x00	; 0
    76ec:	82 0f       	add	r24, r18
    76ee:	91 1d       	adc	r25, r1
    76f0:	22 81       	ldd	r18, Z+2	; 0x02
    76f2:	82 0f       	add	r24, r18
    76f4:	91 1d       	adc	r25, r1
    76f6:	23 81       	ldd	r18, Z+3	; 0x03
    76f8:	82 0f       	add	r24, r18
    76fa:	91 1d       	adc	r25, r1
    76fc:	24 81       	ldd	r18, Z+4	; 0x04
    76fe:	82 0f       	add	r24, r18
    7700:	91 1d       	adc	r25, r1
    7702:	65 e0       	ldi	r22, 0x05	; 5
    7704:	70 e0       	ldi	r23, 0x00	; 0
    7706:	0e 94 8f 50 	call	0xa11e	; 0xa11e <__divmodhi4>
    770a:	86 2f       	mov	r24, r22
}
    770c:	08 95       	ret

0000770e <reflect>:
    /*
     * The final remainder is the CRC result.
     */
    return (REFLECT_REMAINDER(remainder) ^ FINAL_XOR_VALUE);

}   /* crcSlow() */
    770e:	8f 92       	push	r8
    7710:	9f 92       	push	r9
    7712:	af 92       	push	r10
    7714:	bf 92       	push	r11
    7716:	cf 92       	push	r12
    7718:	df 92       	push	r13
    771a:	ef 92       	push	r14
    771c:	ff 92       	push	r15
    771e:	cf 93       	push	r28
    7720:	df 93       	push	r29
    7722:	44 23       	and	r20, r20
    7724:	19 f1       	breq	.+70     	; 0x776c <reflect+0x5e>
    7726:	e4 2f       	mov	r30, r20
    7728:	f0 e0       	ldi	r31, 0x00	; 0
    772a:	31 97       	sbiw	r30, 0x01	; 1
    772c:	20 e0       	ldi	r18, 0x00	; 0
    772e:	81 2c       	mov	r8, r1
    7730:	91 2c       	mov	r9, r1
    7732:	54 01       	movw	r10, r8
    7734:	c1 e0       	ldi	r28, 0x01	; 1
    7736:	d0 e0       	ldi	r29, 0x00	; 0
    7738:	60 ff       	sbrs	r22, 0
    773a:	0f c0       	rjmp	.+30     	; 0x775a <reflect+0x4c>
    773c:	6e 01       	movw	r12, r28
    773e:	0e 2e       	mov	r0, r30
    7740:	02 c0       	rjmp	.+4      	; 0x7746 <reflect+0x38>
    7742:	cc 0c       	add	r12, r12
    7744:	dd 1c       	adc	r13, r13
    7746:	0a 94       	dec	r0
    7748:	e2 f7       	brpl	.-8      	; 0x7742 <reflect+0x34>
    774a:	0d 2c       	mov	r0, r13
    774c:	00 0c       	add	r0, r0
    774e:	ee 08       	sbc	r14, r14
    7750:	ff 08       	sbc	r15, r15
    7752:	8c 28       	or	r8, r12
    7754:	9d 28       	or	r9, r13
    7756:	ae 28       	or	r10, r14
    7758:	bf 28       	or	r11, r15
    775a:	96 95       	lsr	r25
    775c:	87 95       	ror	r24
    775e:	77 95       	ror	r23
    7760:	67 95       	ror	r22
    7762:	2f 5f       	subi	r18, 0xFF	; 255
    7764:	31 97       	sbiw	r30, 0x01	; 1
    7766:	24 13       	cpse	r18, r20
    7768:	e7 cf       	rjmp	.-50     	; 0x7738 <reflect+0x2a>
    776a:	03 c0       	rjmp	.+6      	; 0x7772 <reflect+0x64>
    776c:	81 2c       	mov	r8, r1
    776e:	91 2c       	mov	r9, r1
    7770:	54 01       	movw	r10, r8
    7772:	c5 01       	movw	r24, r10
    7774:	b4 01       	movw	r22, r8
    7776:	df 91       	pop	r29
    7778:	cf 91       	pop	r28
    777a:	ff 90       	pop	r15
    777c:	ef 90       	pop	r14
    777e:	df 90       	pop	r13
    7780:	cf 90       	pop	r12
    7782:	bf 90       	pop	r11
    7784:	af 90       	pop	r10
    7786:	9f 90       	pop	r9
    7788:	8f 90       	pop	r8
    778a:	08 95       	ret

0000778c <crcInit>:
 * Returns:		None defined.
 *
 *********************************************************************/
void
crcInit(void)
{
    778c:	e0 e6       	ldi	r30, 0x60	; 96
    778e:	f1 e2       	ldi	r31, 0x21	; 33


    /*
     * Compute the remainder of each possible dividend.
     */
    for (dividend = 0; dividend < 256; ++dividend)
    7790:	40 e0       	ldi	r20, 0x00	; 0
    7792:	50 e0       	ldi	r21, 0x00	; 0
    {
        /*
         * Start with the dividend followed by zeros.
         */
        remainder = dividend << (WIDTH - 8);
    7794:	38 e0       	ldi	r19, 0x08	; 8
    7796:	94 2f       	mov	r25, r20
    7798:	88 27       	eor	r24, r24
    779a:	23 2f       	mov	r18, r19
        for (bit = 8; bit > 0; --bit)
        {
            /*
             * Try to divide the current data bit.
             */			
            if (remainder & TOPBIT)
    779c:	99 23       	and	r25, r25
    779e:	34 f4       	brge	.+12     	; 0x77ac <crcInit+0x20>
            {
                remainder = (remainder << 1) ^ POLYNOMIAL;
    77a0:	88 0f       	add	r24, r24
    77a2:	99 1f       	adc	r25, r25
    77a4:	65 e0       	ldi	r22, 0x05	; 5
    77a6:	86 27       	eor	r24, r22
    77a8:	90 58       	subi	r25, 0x80	; 128
    77aa:	02 c0       	rjmp	.+4      	; 0x77b0 <crcInit+0x24>
            }
            else
            {
                remainder = (remainder << 1);
    77ac:	88 0f       	add	r24, r24
    77ae:	99 1f       	adc	r25, r25
    77b0:	21 50       	subi	r18, 0x01	; 1
        remainder = dividend << (WIDTH - 8);

        /*
         * Perform modulo-2 division, a bit at a time.
         */
        for (bit = 8; bit > 0; --bit)
    77b2:	a1 f7       	brne	.-24     	; 0x779c <crcInit+0x10>
        }

        /*
         * Store the result into the table.
         */
        crcTable[dividend] = remainder;
    77b4:	81 93       	st	Z+, r24
    77b6:	91 93       	st	Z+, r25


    /*
     * Compute the remainder of each possible dividend.
     */
    for (dividend = 0; dividend < 256; ++dividend)
    77b8:	4f 5f       	subi	r20, 0xFF	; 255
    77ba:	5f 4f       	sbci	r21, 0xFF	; 255
    77bc:	41 15       	cp	r20, r1
    77be:	81 e0       	ldi	r24, 0x01	; 1
    77c0:	58 07       	cpc	r21, r24
    77c2:	49 f7       	brne	.-46     	; 0x7796 <crcInit+0xa>
         * Store the result into the table.
         */
        crcTable[dividend] = remainder;
    }

}   /* crcInit() */
    77c4:	08 95       	ret

000077c6 <crcFast>:
 * Returns:		The CRC of the message.
 *
 *********************************************************************/
crc
crcFast(unsigned char const message[], int nBytes)
{
    77c6:	ef 92       	push	r14
    77c8:	ff 92       	push	r15
    77ca:	0f 93       	push	r16
    77cc:	1f 93       	push	r17
    77ce:	cf 93       	push	r28
    77d0:	df 93       	push	r29


    /*
     * Divide the message by the polynomial, a byte at a time.
     */
    for (byte = 0; byte < nBytes; ++byte)
    77d2:	16 16       	cp	r1, r22
    77d4:	17 06       	cpc	r1, r23
    77d6:	fc f4       	brge	.+62     	; 0x7816 <crcFast+0x50>
    77d8:	7c 01       	movw	r14, r24
    77da:	8c 01       	movw	r16, r24
    77dc:	06 0f       	add	r16, r22
    77de:	17 1f       	adc	r17, r23
    77e0:	c0 e0       	ldi	r28, 0x00	; 0
    77e2:	d0 e0       	ldi	r29, 0x00	; 0
    {
        data = REFLECT_DATA(message[byte]) ^ (remainder >> (WIDTH - 8));
    77e4:	f7 01       	movw	r30, r14
    77e6:	61 91       	ld	r22, Z+
    77e8:	7f 01       	movw	r14, r30
    77ea:	70 e0       	ldi	r23, 0x00	; 0
    77ec:	80 e0       	ldi	r24, 0x00	; 0
    77ee:	90 e0       	ldi	r25, 0x00	; 0
    77f0:	48 e0       	ldi	r20, 0x08	; 8
    77f2:	8d df       	rcall	.-230    	; 0x770e <reflect>
    77f4:	6d 27       	eor	r22, r29
  		remainder = crcTable[data] ^ (remainder << 8);
    77f6:	e6 2f       	mov	r30, r22
    77f8:	f0 e0       	ldi	r31, 0x00	; 0
    77fa:	ee 0f       	add	r30, r30
    77fc:	ff 1f       	adc	r31, r31
    77fe:	e0 5a       	subi	r30, 0xA0	; 160
    7800:	fe 4d       	sbci	r31, 0xDE	; 222
    7802:	80 81       	ld	r24, Z
    7804:	91 81       	ldd	r25, Z+1	; 0x01
    7806:	dc 2f       	mov	r29, r28
    7808:	cc 27       	eor	r28, r28
    780a:	c8 27       	eor	r28, r24
    780c:	d9 27       	eor	r29, r25


    /*
     * Divide the message by the polynomial, a byte at a time.
     */
    for (byte = 0; byte < nBytes; ++byte)
    780e:	e0 16       	cp	r14, r16
    7810:	f1 06       	cpc	r15, r17
    7812:	41 f7       	brne	.-48     	; 0x77e4 <crcFast+0x1e>
    7814:	02 c0       	rjmp	.+4      	; 0x781a <crcFast+0x54>
 *
 *********************************************************************/
crc
crcFast(unsigned char const message[], int nBytes)
{
    crc	           remainder = INITIAL_REMAINDER;
    7816:	c0 e0       	ldi	r28, 0x00	; 0
    7818:	d0 e0       	ldi	r29, 0x00	; 0
    }

    /*
     * The final remainder is the CRC.
     */
    return (REFLECT_REMAINDER(remainder) ^ FINAL_XOR_VALUE);
    781a:	be 01       	movw	r22, r28
    781c:	80 e0       	ldi	r24, 0x00	; 0
    781e:	90 e0       	ldi	r25, 0x00	; 0
    7820:	40 e1       	ldi	r20, 0x10	; 16
    7822:	75 df       	rcall	.-278    	; 0x770e <reflect>

}   /* crcFast() */
    7824:	cb 01       	movw	r24, r22
    7826:	df 91       	pop	r29
    7828:	cf 91       	pop	r28
    782a:	1f 91       	pop	r17
    782c:	0f 91       	pop	r16
    782e:	ff 90       	pop	r15
    7830:	ef 90       	pop	r14
    7832:	08 95       	ret

00007834 <md5_process>:
 */
void md5_hmac_reset( md5_context *ctx )
{
    md5_starts( ctx );
    md5_update( ctx, ctx->ipad, 64 );
}
    7834:	2f 92       	push	r2
    7836:	3f 92       	push	r3
    7838:	4f 92       	push	r4
    783a:	5f 92       	push	r5
    783c:	6f 92       	push	r6
    783e:	7f 92       	push	r7
    7840:	8f 92       	push	r8
    7842:	9f 92       	push	r9
    7844:	af 92       	push	r10
    7846:	bf 92       	push	r11
    7848:	cf 92       	push	r12
    784a:	df 92       	push	r13
    784c:	ef 92       	push	r14
    784e:	ff 92       	push	r15
    7850:	0f 93       	push	r16
    7852:	1f 93       	push	r17
    7854:	cf 93       	push	r28
    7856:	df 93       	push	r29
    7858:	cd b7       	in	r28, 0x3d	; 61
    785a:	de b7       	in	r29, 0x3e	; 62
    785c:	c0 55       	subi	r28, 0x50	; 80
    785e:	d1 09       	sbc	r29, r1
    7860:	0f b6       	in	r0, 0x3f	; 63
    7862:	f8 94       	cli
    7864:	de bf       	out	0x3e, r29	; 62
    7866:	0f be       	out	0x3f, r0	; 63
    7868:	cd bf       	out	0x3d, r28	; 61
    786a:	1c 01       	movw	r2, r24
    786c:	fb 01       	movw	r30, r22
    786e:	21 81       	ldd	r18, Z+1	; 0x01
    7870:	82 81       	ldd	r24, Z+2	; 0x02
    7872:	90 e0       	ldi	r25, 0x00	; 0
    7874:	a0 e0       	ldi	r26, 0x00	; 0
    7876:	b0 e0       	ldi	r27, 0x00	; 0
    7878:	dc 01       	movw	r26, r24
    787a:	99 27       	eor	r25, r25
    787c:	88 27       	eor	r24, r24
    787e:	92 2b       	or	r25, r18
    7880:	20 81       	ld	r18, Z
    7882:	6c 01       	movw	r12, r24
    7884:	7d 01       	movw	r14, r26
    7886:	c2 2a       	or	r12, r18
    7888:	23 81       	ldd	r18, Z+3	; 0x03
    788a:	b7 01       	movw	r22, r14
    788c:	a6 01       	movw	r20, r12
    788e:	72 2b       	or	r23, r18
    7890:	49 87       	std	Y+9, r20	; 0x09
    7892:	5a 87       	std	Y+10, r21	; 0x0a
    7894:	6b 87       	std	Y+11, r22	; 0x0b
    7896:	7c 87       	std	Y+12, r23	; 0x0c
    7898:	85 81       	ldd	r24, Z+5	; 0x05
    789a:	86 80       	ldd	r8, Z+6	; 0x06
    789c:	91 2c       	mov	r9, r1
    789e:	a1 2c       	mov	r10, r1
    78a0:	b1 2c       	mov	r11, r1
    78a2:	54 01       	movw	r10, r8
    78a4:	99 24       	eor	r9, r9
    78a6:	88 24       	eor	r8, r8
    78a8:	98 2a       	or	r9, r24
    78aa:	84 81       	ldd	r24, Z+4	; 0x04
    78ac:	88 2a       	or	r8, r24
    78ae:	87 81       	ldd	r24, Z+7	; 0x07
    78b0:	75 01       	movw	r14, r10
    78b2:	64 01       	movw	r12, r8
    78b4:	f8 2a       	or	r15, r24
    78b6:	cd 86       	std	Y+13, r12	; 0x0d
    78b8:	de 86       	std	Y+14, r13	; 0x0e
    78ba:	ef 86       	std	Y+15, r14	; 0x0f
    78bc:	f8 8a       	std	Y+16, r15	; 0x10
    78be:	81 85       	ldd	r24, Z+9	; 0x09
    78c0:	82 84       	ldd	r8, Z+10	; 0x0a
    78c2:	91 2c       	mov	r9, r1
    78c4:	a1 2c       	mov	r10, r1
    78c6:	b1 2c       	mov	r11, r1
    78c8:	54 01       	movw	r10, r8
    78ca:	99 24       	eor	r9, r9
    78cc:	88 24       	eor	r8, r8
    78ce:	98 2a       	or	r9, r24
    78d0:	80 85       	ldd	r24, Z+8	; 0x08
    78d2:	88 2a       	or	r8, r24
    78d4:	83 85       	ldd	r24, Z+11	; 0x0b
    78d6:	85 01       	movw	r16, r10
    78d8:	74 01       	movw	r14, r8
    78da:	18 2b       	or	r17, r24
    78dc:	e9 8a       	std	Y+17, r14	; 0x11
    78de:	fa 8a       	std	Y+18, r15	; 0x12
    78e0:	0b 8b       	std	Y+19, r16	; 0x13
    78e2:	1c 8b       	std	Y+20, r17	; 0x14
    78e4:	85 85       	ldd	r24, Z+13	; 0x0d
    78e6:	06 85       	ldd	r16, Z+14	; 0x0e
    78e8:	10 e0       	ldi	r17, 0x00	; 0
    78ea:	20 e0       	ldi	r18, 0x00	; 0
    78ec:	30 e0       	ldi	r19, 0x00	; 0
    78ee:	98 01       	movw	r18, r16
    78f0:	11 27       	eor	r17, r17
    78f2:	00 27       	eor	r16, r16
    78f4:	18 2b       	or	r17, r24
    78f6:	84 85       	ldd	r24, Z+12	; 0x0c
    78f8:	08 2b       	or	r16, r24
    78fa:	87 85       	ldd	r24, Z+15	; 0x0f
    78fc:	b9 01       	movw	r22, r18
    78fe:	a8 01       	movw	r20, r16
    7900:	78 2b       	or	r23, r24
    7902:	4d 8b       	std	Y+21, r20	; 0x15
    7904:	5e 8b       	std	Y+22, r21	; 0x16
    7906:	6f 8b       	std	Y+23, r22	; 0x17
    7908:	78 8f       	std	Y+24, r23	; 0x18
    790a:	81 89       	ldd	r24, Z+17	; 0x11
    790c:	82 88       	ldd	r8, Z+18	; 0x12
    790e:	91 2c       	mov	r9, r1
    7910:	a1 2c       	mov	r10, r1
    7912:	b1 2c       	mov	r11, r1
    7914:	54 01       	movw	r10, r8
    7916:	99 24       	eor	r9, r9
    7918:	88 24       	eor	r8, r8
    791a:	98 2a       	or	r9, r24
    791c:	80 89       	ldd	r24, Z+16	; 0x10
    791e:	88 2a       	or	r8, r24
    7920:	83 89       	ldd	r24, Z+19	; 0x13
    7922:	75 01       	movw	r14, r10
    7924:	64 01       	movw	r12, r8
    7926:	f8 2a       	or	r15, r24
    7928:	c9 8e       	std	Y+25, r12	; 0x19
    792a:	da 8e       	std	Y+26, r13	; 0x1a
    792c:	eb 8e       	std	Y+27, r14	; 0x1b
    792e:	fc 8e       	std	Y+28, r15	; 0x1c
    7930:	85 89       	ldd	r24, Z+21	; 0x15
    7932:	06 89       	ldd	r16, Z+22	; 0x16
    7934:	10 e0       	ldi	r17, 0x00	; 0
    7936:	20 e0       	ldi	r18, 0x00	; 0
    7938:	30 e0       	ldi	r19, 0x00	; 0
    793a:	98 01       	movw	r18, r16
    793c:	11 27       	eor	r17, r17
    793e:	00 27       	eor	r16, r16
    7940:	18 2b       	or	r17, r24
    7942:	84 89       	ldd	r24, Z+20	; 0x14
    7944:	08 2b       	or	r16, r24
    7946:	87 89       	ldd	r24, Z+23	; 0x17
    7948:	b9 01       	movw	r22, r18
    794a:	a8 01       	movw	r20, r16
    794c:	78 2b       	or	r23, r24
    794e:	4d 8f       	std	Y+29, r20	; 0x1d
    7950:	5e 8f       	std	Y+30, r21	; 0x1e
    7952:	6f 8f       	std	Y+31, r22	; 0x1f
    7954:	78 a3       	std	Y+32, r23	; 0x20
    7956:	81 8d       	ldd	r24, Z+25	; 0x19
    7958:	82 8c       	ldd	r8, Z+26	; 0x1a
    795a:	91 2c       	mov	r9, r1
    795c:	a1 2c       	mov	r10, r1
    795e:	b1 2c       	mov	r11, r1
    7960:	54 01       	movw	r10, r8
    7962:	99 24       	eor	r9, r9
    7964:	88 24       	eor	r8, r8
    7966:	98 2a       	or	r9, r24
    7968:	80 8d       	ldd	r24, Z+24	; 0x18
    796a:	88 2a       	or	r8, r24
    796c:	83 8d       	ldd	r24, Z+27	; 0x1b
    796e:	75 01       	movw	r14, r10
    7970:	64 01       	movw	r12, r8
    7972:	f8 2a       	or	r15, r24
    7974:	c9 a2       	std	Y+33, r12	; 0x21
    7976:	da a2       	std	Y+34, r13	; 0x22
    7978:	eb a2       	std	Y+35, r14	; 0x23
    797a:	fc a2       	std	Y+36, r15	; 0x24
    797c:	85 8d       	ldd	r24, Z+29	; 0x1d
    797e:	06 8d       	ldd	r16, Z+30	; 0x1e
    7980:	10 e0       	ldi	r17, 0x00	; 0
    7982:	20 e0       	ldi	r18, 0x00	; 0
    7984:	30 e0       	ldi	r19, 0x00	; 0
    7986:	98 01       	movw	r18, r16
    7988:	11 27       	eor	r17, r17
    798a:	00 27       	eor	r16, r16
    798c:	18 2b       	or	r17, r24
    798e:	84 8d       	ldd	r24, Z+28	; 0x1c
    7990:	08 2b       	or	r16, r24
    7992:	87 8d       	ldd	r24, Z+31	; 0x1f
    7994:	b9 01       	movw	r22, r18
    7996:	a8 01       	movw	r20, r16
    7998:	78 2b       	or	r23, r24
    799a:	4d a3       	std	Y+37, r20	; 0x25
    799c:	5e a3       	std	Y+38, r21	; 0x26
    799e:	6f a3       	std	Y+39, r22	; 0x27
    79a0:	78 a7       	std	Y+40, r23	; 0x28
    79a2:	81 a1       	ldd	r24, Z+33	; 0x21
    79a4:	82 a0       	ldd	r8, Z+34	; 0x22
    79a6:	91 2c       	mov	r9, r1
    79a8:	a1 2c       	mov	r10, r1
    79aa:	b1 2c       	mov	r11, r1
    79ac:	54 01       	movw	r10, r8
    79ae:	99 24       	eor	r9, r9
    79b0:	88 24       	eor	r8, r8
    79b2:	98 2a       	or	r9, r24
    79b4:	80 a1       	ldd	r24, Z+32	; 0x20
    79b6:	88 2a       	or	r8, r24
    79b8:	83 a1       	ldd	r24, Z+35	; 0x23
    79ba:	75 01       	movw	r14, r10
    79bc:	64 01       	movw	r12, r8
    79be:	f8 2a       	or	r15, r24
    79c0:	c9 a6       	std	Y+41, r12	; 0x29
    79c2:	da a6       	std	Y+42, r13	; 0x2a
    79c4:	eb a6       	std	Y+43, r14	; 0x2b
    79c6:	fc a6       	std	Y+44, r15	; 0x2c
    79c8:	85 a1       	ldd	r24, Z+37	; 0x25
    79ca:	c6 a0       	ldd	r12, Z+38	; 0x26
    79cc:	d1 2c       	mov	r13, r1
    79ce:	e1 2c       	mov	r14, r1
    79d0:	f1 2c       	mov	r15, r1
    79d2:	76 01       	movw	r14, r12
    79d4:	dd 24       	eor	r13, r13
    79d6:	cc 24       	eor	r12, r12
    79d8:	d8 2a       	or	r13, r24
    79da:	84 a1       	ldd	r24, Z+36	; 0x24
    79dc:	c8 2a       	or	r12, r24
    79de:	87 a1       	ldd	r24, Z+39	; 0x27
    79e0:	97 01       	movw	r18, r14
    79e2:	86 01       	movw	r16, r12
    79e4:	38 2b       	or	r19, r24
    79e6:	0d a7       	std	Y+45, r16	; 0x2d
    79e8:	1e a7       	std	Y+46, r17	; 0x2e
    79ea:	2f a7       	std	Y+47, r18	; 0x2f
    79ec:	38 ab       	std	Y+48, r19	; 0x30
    79ee:	81 a5       	ldd	r24, Z+41	; 0x29
    79f0:	02 a5       	ldd	r16, Z+42	; 0x2a
    79f2:	10 e0       	ldi	r17, 0x00	; 0
    79f4:	20 e0       	ldi	r18, 0x00	; 0
    79f6:	30 e0       	ldi	r19, 0x00	; 0
    79f8:	98 01       	movw	r18, r16
    79fa:	11 27       	eor	r17, r17
    79fc:	00 27       	eor	r16, r16
    79fe:	18 2b       	or	r17, r24
    7a00:	80 a5       	ldd	r24, Z+40	; 0x28
    7a02:	08 2b       	or	r16, r24
    7a04:	83 a5       	ldd	r24, Z+43	; 0x2b
    7a06:	b9 01       	movw	r22, r18
    7a08:	a8 01       	movw	r20, r16
    7a0a:	78 2b       	or	r23, r24
    7a0c:	49 ab       	std	Y+49, r20	; 0x31
    7a0e:	5a ab       	std	Y+50, r21	; 0x32
    7a10:	6b ab       	std	Y+51, r22	; 0x33
    7a12:	7c ab       	std	Y+52, r23	; 0x34
    7a14:	85 a5       	ldd	r24, Z+45	; 0x2d
    7a16:	46 a5       	ldd	r20, Z+46	; 0x2e
    7a18:	50 e0       	ldi	r21, 0x00	; 0
    7a1a:	60 e0       	ldi	r22, 0x00	; 0
    7a1c:	70 e0       	ldi	r23, 0x00	; 0
    7a1e:	ba 01       	movw	r22, r20
    7a20:	55 27       	eor	r21, r21
    7a22:	44 27       	eor	r20, r20
    7a24:	58 2b       	or	r21, r24
    7a26:	84 a5       	ldd	r24, Z+44	; 0x2c
    7a28:	48 2b       	or	r20, r24
    7a2a:	87 a5       	ldd	r24, Z+47	; 0x2f
    7a2c:	6a 01       	movw	r12, r20
    7a2e:	7b 01       	movw	r14, r22
    7a30:	f8 2a       	or	r15, r24
    7a32:	cd aa       	std	Y+53, r12	; 0x35
    7a34:	de aa       	std	Y+54, r13	; 0x36
    7a36:	ef aa       	std	Y+55, r14	; 0x37
    7a38:	f8 ae       	std	Y+56, r15	; 0x38
    7a3a:	81 a9       	ldd	r24, Z+49	; 0x31
    7a3c:	02 a9       	ldd	r16, Z+50	; 0x32
    7a3e:	10 e0       	ldi	r17, 0x00	; 0
    7a40:	20 e0       	ldi	r18, 0x00	; 0
    7a42:	30 e0       	ldi	r19, 0x00	; 0
    7a44:	98 01       	movw	r18, r16
    7a46:	11 27       	eor	r17, r17
    7a48:	00 27       	eor	r16, r16
    7a4a:	18 2b       	or	r17, r24
    7a4c:	80 a9       	ldd	r24, Z+48	; 0x30
    7a4e:	08 2b       	or	r16, r24
    7a50:	83 a9       	ldd	r24, Z+51	; 0x33
    7a52:	b9 01       	movw	r22, r18
    7a54:	a8 01       	movw	r20, r16
    7a56:	78 2b       	or	r23, r24
    7a58:	49 af       	std	Y+57, r20	; 0x39
    7a5a:	5a af       	std	Y+58, r21	; 0x3a
    7a5c:	6b af       	std	Y+59, r22	; 0x3b
    7a5e:	7c af       	std	Y+60, r23	; 0x3c
    7a60:	85 a9       	ldd	r24, Z+53	; 0x35
    7a62:	86 a8       	ldd	r8, Z+54	; 0x36
    7a64:	91 2c       	mov	r9, r1
    7a66:	a1 2c       	mov	r10, r1
    7a68:	b1 2c       	mov	r11, r1
    7a6a:	54 01       	movw	r10, r8
    7a6c:	99 24       	eor	r9, r9
    7a6e:	88 24       	eor	r8, r8
    7a70:	98 2a       	or	r9, r24
    7a72:	84 a9       	ldd	r24, Z+52	; 0x34
    7a74:	88 2a       	or	r8, r24
    7a76:	87 a9       	ldd	r24, Z+55	; 0x37
    7a78:	75 01       	movw	r14, r10
    7a7a:	64 01       	movw	r12, r8
    7a7c:	f8 2a       	or	r15, r24
    7a7e:	21 96       	adiw	r28, 0x01	; 1
    7a80:	cc ae       	std	Y+60, r12	; 0x3c
    7a82:	dd ae       	std	Y+61, r13	; 0x3d
    7a84:	ee ae       	std	Y+62, r14	; 0x3e
    7a86:	ff ae       	std	Y+63, r15	; 0x3f
    7a88:	21 97       	sbiw	r28, 0x01	; 1
    7a8a:	81 ad       	ldd	r24, Z+57	; 0x39
    7a8c:	02 ad       	ldd	r16, Z+58	; 0x3a
    7a8e:	10 e0       	ldi	r17, 0x00	; 0
    7a90:	20 e0       	ldi	r18, 0x00	; 0
    7a92:	30 e0       	ldi	r19, 0x00	; 0
    7a94:	98 01       	movw	r18, r16
    7a96:	11 27       	eor	r17, r17
    7a98:	00 27       	eor	r16, r16
    7a9a:	18 2b       	or	r17, r24
    7a9c:	80 ad       	ldd	r24, Z+56	; 0x38
    7a9e:	08 2b       	or	r16, r24
    7aa0:	83 ad       	ldd	r24, Z+59	; 0x3b
    7aa2:	b9 01       	movw	r22, r18
    7aa4:	a8 01       	movw	r20, r16
    7aa6:	78 2b       	or	r23, r24
    7aa8:	25 96       	adiw	r28, 0x05	; 5
    7aaa:	4c af       	std	Y+60, r20	; 0x3c
    7aac:	5d af       	std	Y+61, r21	; 0x3d
    7aae:	6e af       	std	Y+62, r22	; 0x3e
    7ab0:	7f af       	std	Y+63, r23	; 0x3f
    7ab2:	25 97       	sbiw	r28, 0x05	; 5
    7ab4:	85 ad       	ldd	r24, Z+61	; 0x3d
    7ab6:	46 ad       	ldd	r20, Z+62	; 0x3e
    7ab8:	50 e0       	ldi	r21, 0x00	; 0
    7aba:	60 e0       	ldi	r22, 0x00	; 0
    7abc:	70 e0       	ldi	r23, 0x00	; 0
    7abe:	ba 01       	movw	r22, r20
    7ac0:	55 27       	eor	r21, r21
    7ac2:	44 27       	eor	r20, r20
    7ac4:	58 2b       	or	r21, r24
    7ac6:	84 ad       	ldd	r24, Z+60	; 0x3c
    7ac8:	48 2b       	or	r20, r24
    7aca:	87 ad       	ldd	r24, Z+63	; 0x3f
    7acc:	6a 01       	movw	r12, r20
    7ace:	7b 01       	movw	r14, r22
    7ad0:	f8 2a       	or	r15, r24
    7ad2:	29 96       	adiw	r28, 0x09	; 9
    7ad4:	cc ae       	std	Y+60, r12	; 0x3c
    7ad6:	dd ae       	std	Y+61, r13	; 0x3d
    7ad8:	ee ae       	std	Y+62, r14	; 0x3e
    7ada:	ff ae       	std	Y+63, r15	; 0x3f
    7adc:	29 97       	sbiw	r28, 0x09	; 9
    7ade:	d1 01       	movw	r26, r2
    7ae0:	18 96       	adiw	r26, 0x08	; 8
    7ae2:	ed 90       	ld	r14, X+
    7ae4:	fd 90       	ld	r15, X+
    7ae6:	0d 91       	ld	r16, X+
    7ae8:	1c 91       	ld	r17, X
    7aea:	1b 97       	sbiw	r26, 0x0b	; 11
    7aec:	61 96       	adiw	r28, 0x11	; 17
    7aee:	ec ae       	std	Y+60, r14	; 0x3c
    7af0:	fd ae       	std	Y+61, r15	; 0x3d
    7af2:	0e af       	std	Y+62, r16	; 0x3e
    7af4:	1f af       	std	Y+63, r17	; 0x3f
    7af6:	61 97       	sbiw	r28, 0x11	; 17
    7af8:	1c 96       	adiw	r26, 0x0c	; 12
    7afa:	cd 90       	ld	r12, X+
    7afc:	dd 90       	ld	r13, X+
    7afe:	ed 90       	ld	r14, X+
    7b00:	fc 90       	ld	r15, X
    7b02:	1f 97       	sbiw	r26, 0x0f	; 15
    7b04:	c9 82       	std	Y+1, r12	; 0x01
    7b06:	da 82       	std	Y+2, r13	; 0x02
    7b08:	eb 82       	std	Y+3, r14	; 0x03
    7b0a:	fc 82       	std	Y+4, r15	; 0x04
    7b0c:	50 96       	adiw	r26, 0x10	; 16
    7b0e:	cd 90       	ld	r12, X+
    7b10:	dd 90       	ld	r13, X+
    7b12:	ed 90       	ld	r14, X+
    7b14:	fc 90       	ld	r15, X
    7b16:	53 97       	sbiw	r26, 0x13	; 19
    7b18:	cd 82       	std	Y+5, r12	; 0x05
    7b1a:	de 82       	std	Y+6, r13	; 0x06
    7b1c:	ef 82       	std	Y+7, r14	; 0x07
    7b1e:	f8 86       	std	Y+8, r15	; 0x08
    7b20:	54 96       	adiw	r26, 0x14	; 20
    7b22:	cd 90       	ld	r12, X+
    7b24:	dd 90       	ld	r13, X+
    7b26:	ed 90       	ld	r14, X+
    7b28:	fc 90       	ld	r15, X
    7b2a:	57 97       	sbiw	r26, 0x17	; 23
    7b2c:	2d 96       	adiw	r28, 0x0d	; 13
    7b2e:	cc ae       	std	Y+60, r12	; 0x3c
    7b30:	dd ae       	std	Y+61, r13	; 0x3d
    7b32:	ee ae       	std	Y+62, r14	; 0x3e
    7b34:	ff ae       	std	Y+63, r15	; 0x3f
    7b36:	2d 97       	sbiw	r28, 0x0d	; 13
    7b38:	61 96       	adiw	r28, 0x11	; 17
    7b3a:	4c ad       	ldd	r20, Y+60	; 0x3c
    7b3c:	5d ad       	ldd	r21, Y+61	; 0x3d
    7b3e:	6e ad       	ldd	r22, Y+62	; 0x3e
    7b40:	7f ad       	ldd	r23, Y+63	; 0x3f
    7b42:	61 97       	sbiw	r28, 0x11	; 17
    7b44:	48 58       	subi	r20, 0x88	; 136
    7b46:	5b 45       	sbci	r21, 0x5B	; 91
    7b48:	65 49       	sbci	r22, 0x95	; 149
    7b4a:	78 42       	sbci	r23, 0x28	; 40
    7b4c:	d7 01       	movw	r26, r14
    7b4e:	c6 01       	movw	r24, r12
    7b50:	cd 80       	ldd	r12, Y+5	; 0x05
    7b52:	de 80       	ldd	r13, Y+6	; 0x06
    7b54:	ef 80       	ldd	r14, Y+7	; 0x07
    7b56:	f8 84       	ldd	r15, Y+8	; 0x08
    7b58:	8c 25       	eor	r24, r12
    7b5a:	9d 25       	eor	r25, r13
    7b5c:	ae 25       	eor	r26, r14
    7b5e:	bf 25       	eor	r27, r15
    7b60:	e9 80       	ldd	r14, Y+1	; 0x01
    7b62:	fa 80       	ldd	r15, Y+2	; 0x02
    7b64:	0b 81       	ldd	r16, Y+3	; 0x03
    7b66:	1c 81       	ldd	r17, Y+4	; 0x04
    7b68:	8e 21       	and	r24, r14
    7b6a:	9f 21       	and	r25, r15
    7b6c:	a0 23       	and	r26, r16
    7b6e:	b1 23       	and	r27, r17
    7b70:	2d 96       	adiw	r28, 0x0d	; 13
    7b72:	0c ad       	ldd	r16, Y+60	; 0x3c
    7b74:	1d ad       	ldd	r17, Y+61	; 0x3d
    7b76:	2e ad       	ldd	r18, Y+62	; 0x3e
    7b78:	3f ad       	ldd	r19, Y+63	; 0x3f
    7b7a:	2d 97       	sbiw	r28, 0x0d	; 13
    7b7c:	80 27       	eor	r24, r16
    7b7e:	91 27       	eor	r25, r17
    7b80:	a2 27       	eor	r26, r18
    7b82:	b3 27       	eor	r27, r19
    7b84:	84 0f       	add	r24, r20
    7b86:	95 1f       	adc	r25, r21
    7b88:	a6 1f       	adc	r26, r22
    7b8a:	b7 1f       	adc	r27, r23
    7b8c:	29 85       	ldd	r18, Y+9	; 0x09
    7b8e:	3a 85       	ldd	r19, Y+10	; 0x0a
    7b90:	4b 85       	ldd	r20, Y+11	; 0x0b
    7b92:	5c 85       	ldd	r21, Y+12	; 0x0c
    7b94:	82 0f       	add	r24, r18
    7b96:	93 1f       	adc	r25, r19
    7b98:	a4 1f       	adc	r26, r20
    7b9a:	b5 1f       	adc	r27, r21
    7b9c:	8c 01       	movw	r16, r24
    7b9e:	9d 01       	movw	r18, r26
    7ba0:	00 0f       	add	r16, r16
    7ba2:	11 1f       	adc	r17, r17
    7ba4:	22 1f       	adc	r18, r18
    7ba6:	33 1f       	adc	r19, r19
    7ba8:	00 0f       	add	r16, r16
    7baa:	11 1f       	adc	r17, r17
    7bac:	22 1f       	adc	r18, r18
    7bae:	33 1f       	adc	r19, r19
    7bb0:	00 0f       	add	r16, r16
    7bb2:	11 1f       	adc	r17, r17
    7bb4:	22 1f       	adc	r18, r18
    7bb6:	33 1f       	adc	r19, r19
    7bb8:	00 0f       	add	r16, r16
    7bba:	11 1f       	adc	r17, r17
    7bbc:	22 1f       	adc	r18, r18
    7bbe:	33 1f       	adc	r19, r19
    7bc0:	00 0f       	add	r16, r16
    7bc2:	11 1f       	adc	r17, r17
    7bc4:	22 1f       	adc	r18, r18
    7bc6:	33 1f       	adc	r19, r19
    7bc8:	00 0f       	add	r16, r16
    7bca:	11 1f       	adc	r17, r17
    7bcc:	22 1f       	adc	r18, r18
    7bce:	33 1f       	adc	r19, r19
    7bd0:	00 0f       	add	r16, r16
    7bd2:	11 1f       	adc	r17, r17
    7bd4:	22 1f       	adc	r18, r18
    7bd6:	33 1f       	adc	r19, r19
    7bd8:	07 2e       	mov	r0, r23
    7bda:	79 e1       	ldi	r23, 0x19	; 25
    7bdc:	b6 95       	lsr	r27
    7bde:	a7 95       	ror	r26
    7be0:	97 95       	ror	r25
    7be2:	87 95       	ror	r24
    7be4:	7a 95       	dec	r23
    7be6:	d1 f7       	brne	.-12     	; 0x7bdc <md5_process+0x3a8>
    7be8:	70 2d       	mov	r23, r0
    7bea:	80 2b       	or	r24, r16
    7bec:	91 2b       	or	r25, r17
    7bee:	a2 2b       	or	r26, r18
    7bf0:	b3 2b       	or	r27, r19
    7bf2:	49 81       	ldd	r20, Y+1	; 0x01
    7bf4:	5a 81       	ldd	r21, Y+2	; 0x02
    7bf6:	6b 81       	ldd	r22, Y+3	; 0x03
    7bf8:	7c 81       	ldd	r23, Y+4	; 0x04
    7bfa:	84 0f       	add	r24, r20
    7bfc:	95 1f       	adc	r25, r21
    7bfe:	a6 1f       	adc	r26, r22
    7c00:	b7 1f       	adc	r27, r23
    7c02:	2d 96       	adiw	r28, 0x0d	; 13
    7c04:	0c ad       	ldd	r16, Y+60	; 0x3c
    7c06:	1d ad       	ldd	r17, Y+61	; 0x3d
    7c08:	2e ad       	ldd	r18, Y+62	; 0x3e
    7c0a:	3f ad       	ldd	r19, Y+63	; 0x3f
    7c0c:	2d 97       	sbiw	r28, 0x0d	; 13
    7c0e:	0a 5a       	subi	r16, 0xAA	; 170
    7c10:	18 44       	sbci	r17, 0x48	; 72
    7c12:	28 43       	sbci	r18, 0x38	; 56
    7c14:	37 41       	sbci	r19, 0x17	; 23
    7c16:	4d 85       	ldd	r20, Y+13	; 0x0d
    7c18:	5e 85       	ldd	r21, Y+14	; 0x0e
    7c1a:	6f 85       	ldd	r22, Y+15	; 0x0f
    7c1c:	78 89       	ldd	r23, Y+16	; 0x10
    7c1e:	40 0f       	add	r20, r16
    7c20:	51 1f       	adc	r21, r17
    7c22:	62 1f       	adc	r22, r18
    7c24:	73 1f       	adc	r23, r19
    7c26:	0d 81       	ldd	r16, Y+5	; 0x05
    7c28:	1e 81       	ldd	r17, Y+6	; 0x06
    7c2a:	2f 81       	ldd	r18, Y+7	; 0x07
    7c2c:	38 85       	ldd	r19, Y+8	; 0x08
    7c2e:	c9 80       	ldd	r12, Y+1	; 0x01
    7c30:	da 80       	ldd	r13, Y+2	; 0x02
    7c32:	eb 80       	ldd	r14, Y+3	; 0x03
    7c34:	fc 80       	ldd	r15, Y+4	; 0x04
    7c36:	0c 25       	eor	r16, r12
    7c38:	1d 25       	eor	r17, r13
    7c3a:	2e 25       	eor	r18, r14
    7c3c:	3f 25       	eor	r19, r15
    7c3e:	08 23       	and	r16, r24
    7c40:	19 23       	and	r17, r25
    7c42:	2a 23       	and	r18, r26
    7c44:	3b 23       	and	r19, r27
    7c46:	cd 80       	ldd	r12, Y+5	; 0x05
    7c48:	de 80       	ldd	r13, Y+6	; 0x06
    7c4a:	ef 80       	ldd	r14, Y+7	; 0x07
    7c4c:	f8 84       	ldd	r15, Y+8	; 0x08
    7c4e:	0c 25       	eor	r16, r12
    7c50:	1d 25       	eor	r17, r13
    7c52:	2e 25       	eor	r18, r14
    7c54:	3f 25       	eor	r19, r15
    7c56:	04 0f       	add	r16, r20
    7c58:	15 1f       	adc	r17, r21
    7c5a:	26 1f       	adc	r18, r22
    7c5c:	37 1f       	adc	r19, r23
    7c5e:	b9 01       	movw	r22, r18
    7c60:	a8 01       	movw	r20, r16
    7c62:	03 2e       	mov	r0, r19
    7c64:	3c e0       	ldi	r19, 0x0C	; 12
    7c66:	44 0f       	add	r20, r20
    7c68:	55 1f       	adc	r21, r21
    7c6a:	66 1f       	adc	r22, r22
    7c6c:	77 1f       	adc	r23, r23
    7c6e:	3a 95       	dec	r19
    7c70:	d1 f7       	brne	.-12     	; 0x7c66 <md5_process+0x432>
    7c72:	30 2d       	mov	r19, r0
    7c74:	0f 2e       	mov	r0, r31
    7c76:	f4 e1       	ldi	r31, 0x14	; 20
    7c78:	36 95       	lsr	r19
    7c7a:	27 95       	ror	r18
    7c7c:	17 95       	ror	r17
    7c7e:	07 95       	ror	r16
    7c80:	fa 95       	dec	r31
    7c82:	d1 f7       	brne	.-12     	; 0x7c78 <md5_process+0x444>
    7c84:	f0 2d       	mov	r31, r0
    7c86:	04 2b       	or	r16, r20
    7c88:	15 2b       	or	r17, r21
    7c8a:	26 2b       	or	r18, r22
    7c8c:	37 2b       	or	r19, r23
    7c8e:	08 0f       	add	r16, r24
    7c90:	19 1f       	adc	r17, r25
    7c92:	2a 1f       	adc	r18, r26
    7c94:	3b 1f       	adc	r19, r27
    7c96:	46 01       	movw	r8, r12
    7c98:	57 01       	movw	r10, r14
    7c9a:	45 e2       	ldi	r20, 0x25	; 37
    7c9c:	84 1a       	sub	r8, r20
    7c9e:	4f e8       	ldi	r20, 0x8F	; 143
    7ca0:	94 0a       	sbc	r9, r20
    7ca2:	4f ed       	ldi	r20, 0xDF	; 223
    7ca4:	a4 0a       	sbc	r10, r20
    7ca6:	4b ed       	ldi	r20, 0xDB	; 219
    7ca8:	b4 0a       	sbc	r11, r20
    7caa:	49 89       	ldd	r20, Y+17	; 0x11
    7cac:	5a 89       	ldd	r21, Y+18	; 0x12
    7cae:	6b 89       	ldd	r22, Y+19	; 0x13
    7cb0:	7c 89       	ldd	r23, Y+20	; 0x14
    7cb2:	48 0d       	add	r20, r8
    7cb4:	59 1d       	adc	r21, r9
    7cb6:	6a 1d       	adc	r22, r10
    7cb8:	7b 1d       	adc	r23, r11
    7cba:	89 80       	ldd	r8, Y+1	; 0x01
    7cbc:	9a 80       	ldd	r9, Y+2	; 0x02
    7cbe:	ab 80       	ldd	r10, Y+3	; 0x03
    7cc0:	bc 80       	ldd	r11, Y+4	; 0x04
    7cc2:	88 26       	eor	r8, r24
    7cc4:	99 26       	eor	r9, r25
    7cc6:	aa 26       	eor	r10, r26
    7cc8:	bb 26       	eor	r11, r27
    7cca:	80 22       	and	r8, r16
    7ccc:	91 22       	and	r9, r17
    7cce:	a2 22       	and	r10, r18
    7cd0:	b3 22       	and	r11, r19
    7cd2:	c9 80       	ldd	r12, Y+1	; 0x01
    7cd4:	da 80       	ldd	r13, Y+2	; 0x02
    7cd6:	eb 80       	ldd	r14, Y+3	; 0x03
    7cd8:	fc 80       	ldd	r15, Y+4	; 0x04
    7cda:	8c 24       	eor	r8, r12
    7cdc:	9d 24       	eor	r9, r13
    7cde:	ae 24       	eor	r10, r14
    7ce0:	bf 24       	eor	r11, r15
    7ce2:	84 0e       	add	r8, r20
    7ce4:	95 1e       	adc	r9, r21
    7ce6:	a6 1e       	adc	r10, r22
    7ce8:	b7 1e       	adc	r11, r23
    7cea:	b5 01       	movw	r22, r10
    7cec:	a4 01       	movw	r20, r8
    7cee:	03 2e       	mov	r0, r19
    7cf0:	3f e0       	ldi	r19, 0x0F	; 15
    7cf2:	76 95       	lsr	r23
    7cf4:	67 95       	ror	r22
    7cf6:	57 95       	ror	r21
    7cf8:	47 95       	ror	r20
    7cfa:	3a 95       	dec	r19
    7cfc:	d1 f7       	brne	.-12     	; 0x7cf2 <md5_process+0x4be>
    7cfe:	30 2d       	mov	r19, r0
    7d00:	07 2e       	mov	r0, r23
    7d02:	71 e1       	ldi	r23, 0x11	; 17
    7d04:	88 0c       	add	r8, r8
    7d06:	99 1c       	adc	r9, r9
    7d08:	aa 1c       	adc	r10, r10
    7d0a:	bb 1c       	adc	r11, r11
    7d0c:	7a 95       	dec	r23
    7d0e:	d1 f7       	brne	.-12     	; 0x7d04 <md5_process+0x4d0>
    7d10:	70 2d       	mov	r23, r0
    7d12:	84 2a       	or	r8, r20
    7d14:	95 2a       	or	r9, r21
    7d16:	a6 2a       	or	r10, r22
    7d18:	b7 2a       	or	r11, r23
    7d1a:	80 0e       	add	r8, r16
    7d1c:	91 1e       	adc	r9, r17
    7d1e:	a2 1e       	adc	r10, r18
    7d20:	b3 1e       	adc	r11, r19
    7d22:	42 e1       	ldi	r20, 0x12	; 18
    7d24:	c4 1a       	sub	r12, r20
    7d26:	41 e3       	ldi	r20, 0x31	; 49
    7d28:	d4 0a       	sbc	r13, r20
    7d2a:	42 e4       	ldi	r20, 0x42	; 66
    7d2c:	e4 0a       	sbc	r14, r20
    7d2e:	4e e3       	ldi	r20, 0x3E	; 62
    7d30:	f4 0a       	sbc	r15, r20
    7d32:	4d 89       	ldd	r20, Y+21	; 0x15
    7d34:	5e 89       	ldd	r21, Y+22	; 0x16
    7d36:	6f 89       	ldd	r22, Y+23	; 0x17
    7d38:	78 8d       	ldd	r23, Y+24	; 0x18
    7d3a:	4c 0d       	add	r20, r12
    7d3c:	5d 1d       	adc	r21, r13
    7d3e:	6e 1d       	adc	r22, r14
    7d40:	7f 1d       	adc	r23, r15
    7d42:	68 01       	movw	r12, r16
    7d44:	79 01       	movw	r14, r18
    7d46:	c8 26       	eor	r12, r24
    7d48:	d9 26       	eor	r13, r25
    7d4a:	ea 26       	eor	r14, r26
    7d4c:	fb 26       	eor	r15, r27
    7d4e:	c8 20       	and	r12, r8
    7d50:	d9 20       	and	r13, r9
    7d52:	ea 20       	and	r14, r10
    7d54:	fb 20       	and	r15, r11
    7d56:	c8 26       	eor	r12, r24
    7d58:	d9 26       	eor	r13, r25
    7d5a:	ea 26       	eor	r14, r26
    7d5c:	fb 26       	eor	r15, r27
    7d5e:	c4 0e       	add	r12, r20
    7d60:	d5 1e       	adc	r13, r21
    7d62:	e6 1e       	adc	r14, r22
    7d64:	f7 1e       	adc	r15, r23
    7d66:	b7 01       	movw	r22, r14
    7d68:	a6 01       	movw	r20, r12
    7d6a:	03 2e       	mov	r0, r19
    7d6c:	3a e0       	ldi	r19, 0x0A	; 10
    7d6e:	76 95       	lsr	r23
    7d70:	67 95       	ror	r22
    7d72:	57 95       	ror	r21
    7d74:	47 95       	ror	r20
    7d76:	3a 95       	dec	r19
    7d78:	d1 f7       	brne	.-12     	; 0x7d6e <md5_process+0x53a>
    7d7a:	30 2d       	mov	r19, r0
    7d7c:	0b 2e       	mov	r0, r27
    7d7e:	b6 e1       	ldi	r27, 0x16	; 22
    7d80:	cc 0c       	add	r12, r12
    7d82:	dd 1c       	adc	r13, r13
    7d84:	ee 1c       	adc	r14, r14
    7d86:	ff 1c       	adc	r15, r15
    7d88:	ba 95       	dec	r27
    7d8a:	d1 f7       	brne	.-12     	; 0x7d80 <md5_process+0x54c>
    7d8c:	b0 2d       	mov	r27, r0
    7d8e:	c4 2a       	or	r12, r20
    7d90:	d5 2a       	or	r13, r21
    7d92:	e6 2a       	or	r14, r22
    7d94:	f7 2a       	or	r15, r23
    7d96:	c8 0c       	add	r12, r8
    7d98:	d9 1c       	adc	r13, r9
    7d9a:	ea 1c       	adc	r14, r10
    7d9c:	fb 1c       	adc	r15, r11
    7d9e:	49 8d       	ldd	r20, Y+25	; 0x19
    7da0:	5a 8d       	ldd	r21, Y+26	; 0x1a
    7da2:	6b 8d       	ldd	r22, Y+27	; 0x1b
    7da4:	7c 8d       	ldd	r23, Y+28	; 0x1c
    7da6:	41 55       	subi	r20, 0x51	; 81
    7da8:	50 4f       	sbci	r21, 0xF0	; 240
    7daa:	63 48       	sbci	r22, 0x83	; 131
    7dac:	7a 40       	sbci	r23, 0x0A	; 10
    7dae:	84 0f       	add	r24, r20
    7db0:	95 1f       	adc	r25, r21
    7db2:	a6 1f       	adc	r26, r22
    7db4:	b7 1f       	adc	r27, r23
    7db6:	b5 01       	movw	r22, r10
    7db8:	a4 01       	movw	r20, r8
    7dba:	40 27       	eor	r20, r16
    7dbc:	51 27       	eor	r21, r17
    7dbe:	62 27       	eor	r22, r18
    7dc0:	73 27       	eor	r23, r19
    7dc2:	4c 21       	and	r20, r12
    7dc4:	5d 21       	and	r21, r13
    7dc6:	6e 21       	and	r22, r14
    7dc8:	7f 21       	and	r23, r15
    7dca:	40 27       	eor	r20, r16
    7dcc:	51 27       	eor	r21, r17
    7dce:	62 27       	eor	r22, r18
    7dd0:	73 27       	eor	r23, r19
    7dd2:	84 0f       	add	r24, r20
    7dd4:	95 1f       	adc	r25, r21
    7dd6:	a6 1f       	adc	r26, r22
    7dd8:	b7 1f       	adc	r27, r23
    7dda:	2c 01       	movw	r4, r24
    7ddc:	3d 01       	movw	r6, r26
    7dde:	44 0c       	add	r4, r4
    7de0:	55 1c       	adc	r5, r5
    7de2:	66 1c       	adc	r6, r6
    7de4:	77 1c       	adc	r7, r7
    7de6:	44 0c       	add	r4, r4
    7de8:	55 1c       	adc	r5, r5
    7dea:	66 1c       	adc	r6, r6
    7dec:	77 1c       	adc	r7, r7
    7dee:	44 0c       	add	r4, r4
    7df0:	55 1c       	adc	r5, r5
    7df2:	66 1c       	adc	r6, r6
    7df4:	77 1c       	adc	r7, r7
    7df6:	44 0c       	add	r4, r4
    7df8:	55 1c       	adc	r5, r5
    7dfa:	66 1c       	adc	r6, r6
    7dfc:	77 1c       	adc	r7, r7
    7dfe:	44 0c       	add	r4, r4
    7e00:	55 1c       	adc	r5, r5
    7e02:	66 1c       	adc	r6, r6
    7e04:	77 1c       	adc	r7, r7
    7e06:	44 0c       	add	r4, r4
    7e08:	55 1c       	adc	r5, r5
    7e0a:	66 1c       	adc	r6, r6
    7e0c:	77 1c       	adc	r7, r7
    7e0e:	44 0c       	add	r4, r4
    7e10:	55 1c       	adc	r5, r5
    7e12:	66 1c       	adc	r6, r6
    7e14:	77 1c       	adc	r7, r7
    7e16:	07 2e       	mov	r0, r23
    7e18:	79 e1       	ldi	r23, 0x19	; 25
    7e1a:	b6 95       	lsr	r27
    7e1c:	a7 95       	ror	r26
    7e1e:	97 95       	ror	r25
    7e20:	87 95       	ror	r24
    7e22:	7a 95       	dec	r23
    7e24:	d1 f7       	brne	.-12     	; 0x7e1a <md5_process+0x5e6>
    7e26:	70 2d       	mov	r23, r0
    7e28:	84 29       	or	r24, r4
    7e2a:	95 29       	or	r25, r5
    7e2c:	a6 29       	or	r26, r6
    7e2e:	b7 29       	or	r27, r7
    7e30:	8c 0d       	add	r24, r12
    7e32:	9d 1d       	adc	r25, r13
    7e34:	ae 1d       	adc	r26, r14
    7e36:	bf 1d       	adc	r27, r15
    7e38:	4d 8d       	ldd	r20, Y+29	; 0x1d
    7e3a:	5e 8d       	ldd	r21, Y+30	; 0x1e
    7e3c:	6f 8d       	ldd	r22, Y+31	; 0x1f
    7e3e:	78 a1       	ldd	r23, Y+32	; 0x20
    7e40:	46 5d       	subi	r20, 0xD6	; 214
    7e42:	59 43       	sbci	r21, 0x39	; 57
    7e44:	68 47       	sbci	r22, 0x78	; 120
    7e46:	78 4b       	sbci	r23, 0xB8	; 184
    7e48:	04 0f       	add	r16, r20
    7e4a:	15 1f       	adc	r17, r21
    7e4c:	26 1f       	adc	r18, r22
    7e4e:	37 1f       	adc	r19, r23
    7e50:	b7 01       	movw	r22, r14
    7e52:	a6 01       	movw	r20, r12
    7e54:	48 25       	eor	r20, r8
    7e56:	59 25       	eor	r21, r9
    7e58:	6a 25       	eor	r22, r10
    7e5a:	7b 25       	eor	r23, r11
    7e5c:	48 23       	and	r20, r24
    7e5e:	59 23       	and	r21, r25
    7e60:	6a 23       	and	r22, r26
    7e62:	7b 23       	and	r23, r27
    7e64:	48 25       	eor	r20, r8
    7e66:	59 25       	eor	r21, r9
    7e68:	6a 25       	eor	r22, r10
    7e6a:	7b 25       	eor	r23, r11
    7e6c:	04 0f       	add	r16, r20
    7e6e:	15 1f       	adc	r17, r21
    7e70:	26 1f       	adc	r18, r22
    7e72:	37 1f       	adc	r19, r23
    7e74:	b9 01       	movw	r22, r18
    7e76:	a8 01       	movw	r20, r16
    7e78:	03 2e       	mov	r0, r19
    7e7a:	3c e0       	ldi	r19, 0x0C	; 12
    7e7c:	44 0f       	add	r20, r20
    7e7e:	55 1f       	adc	r21, r21
    7e80:	66 1f       	adc	r22, r22
    7e82:	77 1f       	adc	r23, r23
    7e84:	3a 95       	dec	r19
    7e86:	d1 f7       	brne	.-12     	; 0x7e7c <md5_process+0x648>
    7e88:	30 2d       	mov	r19, r0
    7e8a:	0f 2e       	mov	r0, r31
    7e8c:	f4 e1       	ldi	r31, 0x14	; 20
    7e8e:	36 95       	lsr	r19
    7e90:	27 95       	ror	r18
    7e92:	17 95       	ror	r17
    7e94:	07 95       	ror	r16
    7e96:	fa 95       	dec	r31
    7e98:	d1 f7       	brne	.-12     	; 0x7e8e <md5_process+0x65a>
    7e9a:	f0 2d       	mov	r31, r0
    7e9c:	04 2b       	or	r16, r20
    7e9e:	15 2b       	or	r17, r21
    7ea0:	26 2b       	or	r18, r22
    7ea2:	37 2b       	or	r19, r23
    7ea4:	08 0f       	add	r16, r24
    7ea6:	19 1f       	adc	r17, r25
    7ea8:	2a 1f       	adc	r18, r26
    7eaa:	3b 1f       	adc	r19, r27
    7eac:	49 a1       	ldd	r20, Y+33	; 0x21
    7eae:	5a a1       	ldd	r21, Y+34	; 0x22
    7eb0:	6b a1       	ldd	r22, Y+35	; 0x23
    7eb2:	7c a1       	ldd	r23, Y+36	; 0x24
    7eb4:	4d 5e       	subi	r20, 0xED	; 237
    7eb6:	59 4b       	sbci	r21, 0xB9	; 185
    7eb8:	6f 4c       	sbci	r22, 0xCF	; 207
    7eba:	77 45       	sbci	r23, 0x57	; 87
    7ebc:	84 0e       	add	r8, r20
    7ebe:	95 1e       	adc	r9, r21
    7ec0:	a6 1e       	adc	r10, r22
    7ec2:	b7 1e       	adc	r11, r23
    7ec4:	ac 01       	movw	r20, r24
    7ec6:	bd 01       	movw	r22, r26
    7ec8:	4c 25       	eor	r20, r12
    7eca:	5d 25       	eor	r21, r13
    7ecc:	6e 25       	eor	r22, r14
    7ece:	7f 25       	eor	r23, r15
    7ed0:	40 23       	and	r20, r16
    7ed2:	51 23       	and	r21, r17
    7ed4:	62 23       	and	r22, r18
    7ed6:	73 23       	and	r23, r19
    7ed8:	4c 25       	eor	r20, r12
    7eda:	5d 25       	eor	r21, r13
    7edc:	6e 25       	eor	r22, r14
    7ede:	7f 25       	eor	r23, r15
    7ee0:	84 0e       	add	r8, r20
    7ee2:	95 1e       	adc	r9, r21
    7ee4:	a6 1e       	adc	r10, r22
    7ee6:	b7 1e       	adc	r11, r23
    7ee8:	b5 01       	movw	r22, r10
    7eea:	a4 01       	movw	r20, r8
    7eec:	03 2e       	mov	r0, r19
    7eee:	3f e0       	ldi	r19, 0x0F	; 15
    7ef0:	76 95       	lsr	r23
    7ef2:	67 95       	ror	r22
    7ef4:	57 95       	ror	r21
    7ef6:	47 95       	ror	r20
    7ef8:	3a 95       	dec	r19
    7efa:	d1 f7       	brne	.-12     	; 0x7ef0 <md5_process+0x6bc>
    7efc:	30 2d       	mov	r19, r0
    7efe:	07 2e       	mov	r0, r23
    7f00:	71 e1       	ldi	r23, 0x11	; 17
    7f02:	88 0c       	add	r8, r8
    7f04:	99 1c       	adc	r9, r9
    7f06:	aa 1c       	adc	r10, r10
    7f08:	bb 1c       	adc	r11, r11
    7f0a:	7a 95       	dec	r23
    7f0c:	d1 f7       	brne	.-12     	; 0x7f02 <md5_process+0x6ce>
    7f0e:	70 2d       	mov	r23, r0
    7f10:	84 2a       	or	r8, r20
    7f12:	95 2a       	or	r9, r21
    7f14:	a6 2a       	or	r10, r22
    7f16:	b7 2a       	or	r11, r23
    7f18:	80 0e       	add	r8, r16
    7f1a:	91 1e       	adc	r9, r17
    7f1c:	a2 1e       	adc	r10, r18
    7f1e:	b3 1e       	adc	r11, r19
    7f20:	4d a1       	ldd	r20, Y+37	; 0x25
    7f22:	5e a1       	ldd	r21, Y+38	; 0x26
    7f24:	6f a1       	ldd	r22, Y+39	; 0x27
    7f26:	78 a5       	ldd	r23, Y+40	; 0x28
    7f28:	4f 5f       	subi	r20, 0xFF	; 255
    7f2a:	5a 46       	sbci	r21, 0x6A	; 106
    7f2c:	69 4b       	sbci	r22, 0xB9	; 185
    7f2e:	72 40       	sbci	r23, 0x02	; 2
    7f30:	c4 0e       	add	r12, r20
    7f32:	d5 1e       	adc	r13, r21
    7f34:	e6 1e       	adc	r14, r22
    7f36:	f7 1e       	adc	r15, r23
    7f38:	b9 01       	movw	r22, r18
    7f3a:	a8 01       	movw	r20, r16
    7f3c:	48 27       	eor	r20, r24
    7f3e:	59 27       	eor	r21, r25
    7f40:	6a 27       	eor	r22, r26
    7f42:	7b 27       	eor	r23, r27
    7f44:	48 21       	and	r20, r8
    7f46:	59 21       	and	r21, r9
    7f48:	6a 21       	and	r22, r10
    7f4a:	7b 21       	and	r23, r11
    7f4c:	48 27       	eor	r20, r24
    7f4e:	59 27       	eor	r21, r25
    7f50:	6a 27       	eor	r22, r26
    7f52:	7b 27       	eor	r23, r27
    7f54:	c4 0e       	add	r12, r20
    7f56:	d5 1e       	adc	r13, r21
    7f58:	e6 1e       	adc	r14, r22
    7f5a:	f7 1e       	adc	r15, r23
    7f5c:	b7 01       	movw	r22, r14
    7f5e:	a6 01       	movw	r20, r12
    7f60:	03 2e       	mov	r0, r19
    7f62:	3a e0       	ldi	r19, 0x0A	; 10
    7f64:	76 95       	lsr	r23
    7f66:	67 95       	ror	r22
    7f68:	57 95       	ror	r21
    7f6a:	47 95       	ror	r20
    7f6c:	3a 95       	dec	r19
    7f6e:	d1 f7       	brne	.-12     	; 0x7f64 <md5_process+0x730>
    7f70:	30 2d       	mov	r19, r0
    7f72:	0b 2e       	mov	r0, r27
    7f74:	b6 e1       	ldi	r27, 0x16	; 22
    7f76:	cc 0c       	add	r12, r12
    7f78:	dd 1c       	adc	r13, r13
    7f7a:	ee 1c       	adc	r14, r14
    7f7c:	ff 1c       	adc	r15, r15
    7f7e:	ba 95       	dec	r27
    7f80:	d1 f7       	brne	.-12     	; 0x7f76 <md5_process+0x742>
    7f82:	b0 2d       	mov	r27, r0
    7f84:	c4 2a       	or	r12, r20
    7f86:	d5 2a       	or	r13, r21
    7f88:	e6 2a       	or	r14, r22
    7f8a:	f7 2a       	or	r15, r23
    7f8c:	c8 0c       	add	r12, r8
    7f8e:	d9 1c       	adc	r13, r9
    7f90:	ea 1c       	adc	r14, r10
    7f92:	fb 1c       	adc	r15, r11
    7f94:	49 a5       	ldd	r20, Y+41	; 0x29
    7f96:	5a a5       	ldd	r21, Y+42	; 0x2a
    7f98:	6b a5       	ldd	r22, Y+43	; 0x2b
    7f9a:	7c a5       	ldd	r23, Y+44	; 0x2c
    7f9c:	48 52       	subi	r20, 0x28	; 40
    7f9e:	57 46       	sbci	r21, 0x67	; 103
    7fa0:	6f 47       	sbci	r22, 0x7F	; 127
    7fa2:	76 49       	sbci	r23, 0x96	; 150
    7fa4:	84 0f       	add	r24, r20
    7fa6:	95 1f       	adc	r25, r21
    7fa8:	a6 1f       	adc	r26, r22
    7faa:	b7 1f       	adc	r27, r23
    7fac:	b5 01       	movw	r22, r10
    7fae:	a4 01       	movw	r20, r8
    7fb0:	40 27       	eor	r20, r16
    7fb2:	51 27       	eor	r21, r17
    7fb4:	62 27       	eor	r22, r18
    7fb6:	73 27       	eor	r23, r19
    7fb8:	4c 21       	and	r20, r12
    7fba:	5d 21       	and	r21, r13
    7fbc:	6e 21       	and	r22, r14
    7fbe:	7f 21       	and	r23, r15
    7fc0:	2a 01       	movw	r4, r20
    7fc2:	3b 01       	movw	r6, r22
    7fc4:	40 26       	eor	r4, r16
    7fc6:	51 26       	eor	r5, r17
    7fc8:	62 26       	eor	r6, r18
    7fca:	73 26       	eor	r7, r19
    7fcc:	ac 01       	movw	r20, r24
    7fce:	bd 01       	movw	r22, r26
    7fd0:	44 0d       	add	r20, r4
    7fd2:	55 1d       	adc	r21, r5
    7fd4:	66 1d       	adc	r22, r6
    7fd6:	77 1d       	adc	r23, r7
    7fd8:	2a 01       	movw	r4, r20
    7fda:	3b 01       	movw	r6, r22
    7fdc:	44 0c       	add	r4, r4
    7fde:	55 1c       	adc	r5, r5
    7fe0:	66 1c       	adc	r6, r6
    7fe2:	77 1c       	adc	r7, r7
    7fe4:	44 0c       	add	r4, r4
    7fe6:	55 1c       	adc	r5, r5
    7fe8:	66 1c       	adc	r6, r6
    7fea:	77 1c       	adc	r7, r7
    7fec:	44 0c       	add	r4, r4
    7fee:	55 1c       	adc	r5, r5
    7ff0:	66 1c       	adc	r6, r6
    7ff2:	77 1c       	adc	r7, r7
    7ff4:	44 0c       	add	r4, r4
    7ff6:	55 1c       	adc	r5, r5
    7ff8:	66 1c       	adc	r6, r6
    7ffa:	77 1c       	adc	r7, r7
    7ffc:	44 0c       	add	r4, r4
    7ffe:	55 1c       	adc	r5, r5
    8000:	66 1c       	adc	r6, r6
    8002:	77 1c       	adc	r7, r7
    8004:	44 0c       	add	r4, r4
    8006:	55 1c       	adc	r5, r5
    8008:	66 1c       	adc	r6, r6
    800a:	77 1c       	adc	r7, r7
    800c:	44 0c       	add	r4, r4
    800e:	55 1c       	adc	r5, r5
    8010:	66 1c       	adc	r6, r6
    8012:	77 1c       	adc	r7, r7
    8014:	03 2e       	mov	r0, r19
    8016:	39 e1       	ldi	r19, 0x19	; 25
    8018:	76 95       	lsr	r23
    801a:	67 95       	ror	r22
    801c:	57 95       	ror	r21
    801e:	47 95       	ror	r20
    8020:	3a 95       	dec	r19
    8022:	d1 f7       	brne	.-12     	; 0x8018 <md5_process+0x7e4>
    8024:	30 2d       	mov	r19, r0
    8026:	44 29       	or	r20, r4
    8028:	55 29       	or	r21, r5
    802a:	66 29       	or	r22, r6
    802c:	77 29       	or	r23, r7
    802e:	4c 0d       	add	r20, r12
    8030:	5d 1d       	adc	r21, r13
    8032:	6e 1d       	adc	r22, r14
    8034:	7f 1d       	adc	r23, r15
    8036:	8d a5       	ldd	r24, Y+45	; 0x2d
    8038:	9e a5       	ldd	r25, Y+46	; 0x2e
    803a:	af a5       	ldd	r26, Y+47	; 0x2f
    803c:	b8 a9       	ldd	r27, Y+48	; 0x30
    803e:	81 55       	subi	r24, 0x51	; 81
    8040:	98 40       	sbci	r25, 0x08	; 8
    8042:	ab 4b       	sbci	r26, 0xBB	; 187
    8044:	b4 47       	sbci	r27, 0x74	; 116
    8046:	08 0f       	add	r16, r24
    8048:	19 1f       	adc	r17, r25
    804a:	2a 1f       	adc	r18, r26
    804c:	3b 1f       	adc	r19, r27
    804e:	d7 01       	movw	r26, r14
    8050:	c6 01       	movw	r24, r12
    8052:	88 25       	eor	r24, r8
    8054:	99 25       	eor	r25, r9
    8056:	aa 25       	eor	r26, r10
    8058:	bb 25       	eor	r27, r11
    805a:	84 23       	and	r24, r20
    805c:	95 23       	and	r25, r21
    805e:	a6 23       	and	r26, r22
    8060:	b7 23       	and	r27, r23
    8062:	88 25       	eor	r24, r8
    8064:	99 25       	eor	r25, r9
    8066:	aa 25       	eor	r26, r10
    8068:	bb 25       	eor	r27, r11
    806a:	08 0f       	add	r16, r24
    806c:	19 1f       	adc	r17, r25
    806e:	2a 1f       	adc	r18, r26
    8070:	3b 1f       	adc	r19, r27
    8072:	d9 01       	movw	r26, r18
    8074:	c8 01       	movw	r24, r16
    8076:	07 2e       	mov	r0, r23
    8078:	7c e0       	ldi	r23, 0x0C	; 12
    807a:	88 0f       	add	r24, r24
    807c:	99 1f       	adc	r25, r25
    807e:	aa 1f       	adc	r26, r26
    8080:	bb 1f       	adc	r27, r27
    8082:	7a 95       	dec	r23
    8084:	d1 f7       	brne	.-12     	; 0x807a <md5_process+0x846>
    8086:	70 2d       	mov	r23, r0
    8088:	0f 2e       	mov	r0, r31
    808a:	f4 e1       	ldi	r31, 0x14	; 20
    808c:	36 95       	lsr	r19
    808e:	27 95       	ror	r18
    8090:	17 95       	ror	r17
    8092:	07 95       	ror	r16
    8094:	fa 95       	dec	r31
    8096:	d1 f7       	brne	.-12     	; 0x808c <md5_process+0x858>
    8098:	f0 2d       	mov	r31, r0
    809a:	08 2b       	or	r16, r24
    809c:	19 2b       	or	r17, r25
    809e:	2a 2b       	or	r18, r26
    80a0:	3b 2b       	or	r19, r27
    80a2:	04 0f       	add	r16, r20
    80a4:	15 1f       	adc	r17, r21
    80a6:	26 1f       	adc	r18, r22
    80a8:	37 1f       	adc	r19, r23
    80aa:	89 a9       	ldd	r24, Y+49	; 0x31
    80ac:	9a a9       	ldd	r25, Y+50	; 0x32
    80ae:	ab a9       	ldd	r26, Y+51	; 0x33
    80b0:	bc a9       	ldd	r27, Y+52	; 0x34
    80b2:	8f 54       	subi	r24, 0x4F	; 79
    80b4:	94 4a       	sbci	r25, 0xA4	; 164
    80b6:	a1 09       	sbc	r26, r1
    80b8:	b1 09       	sbc	r27, r1
    80ba:	88 0e       	add	r8, r24
    80bc:	99 1e       	adc	r9, r25
    80be:	aa 1e       	adc	r10, r26
    80c0:	bb 1e       	adc	r11, r27
    80c2:	db 01       	movw	r26, r22
    80c4:	ca 01       	movw	r24, r20
    80c6:	8c 25       	eor	r24, r12
    80c8:	9d 25       	eor	r25, r13
    80ca:	ae 25       	eor	r26, r14
    80cc:	bf 25       	eor	r27, r15
    80ce:	80 23       	and	r24, r16
    80d0:	91 23       	and	r25, r17
    80d2:	a2 23       	and	r26, r18
    80d4:	b3 23       	and	r27, r19
    80d6:	8c 25       	eor	r24, r12
    80d8:	9d 25       	eor	r25, r13
    80da:	ae 25       	eor	r26, r14
    80dc:	bf 25       	eor	r27, r15
    80de:	88 0e       	add	r8, r24
    80e0:	99 1e       	adc	r9, r25
    80e2:	aa 1e       	adc	r10, r26
    80e4:	bb 1e       	adc	r11, r27
    80e6:	d5 01       	movw	r26, r10
    80e8:	c4 01       	movw	r24, r8
    80ea:	07 2e       	mov	r0, r23
    80ec:	7f e0       	ldi	r23, 0x0F	; 15
    80ee:	b6 95       	lsr	r27
    80f0:	a7 95       	ror	r26
    80f2:	97 95       	ror	r25
    80f4:	87 95       	ror	r24
    80f6:	7a 95       	dec	r23
    80f8:	d1 f7       	brne	.-12     	; 0x80ee <md5_process+0x8ba>
    80fa:	70 2d       	mov	r23, r0
    80fc:	07 2e       	mov	r0, r23
    80fe:	71 e1       	ldi	r23, 0x11	; 17
    8100:	88 0c       	add	r8, r8
    8102:	99 1c       	adc	r9, r9
    8104:	aa 1c       	adc	r10, r10
    8106:	bb 1c       	adc	r11, r11
    8108:	7a 95       	dec	r23
    810a:	d1 f7       	brne	.-12     	; 0x8100 <md5_process+0x8cc>
    810c:	70 2d       	mov	r23, r0
    810e:	88 2a       	or	r8, r24
    8110:	99 2a       	or	r9, r25
    8112:	aa 2a       	or	r10, r26
    8114:	bb 2a       	or	r11, r27
    8116:	80 0e       	add	r8, r16
    8118:	91 1e       	adc	r9, r17
    811a:	a2 1e       	adc	r10, r18
    811c:	b3 1e       	adc	r11, r19
    811e:	8d a9       	ldd	r24, Y+53	; 0x35
    8120:	9e a9       	ldd	r25, Y+54	; 0x36
    8122:	af a9       	ldd	r26, Y+55	; 0x37
    8124:	b8 ad       	ldd	r27, Y+56	; 0x38
    8126:	82 54       	subi	r24, 0x42	; 66
    8128:	98 42       	sbci	r25, 0x28	; 40
    812a:	a3 4a       	sbci	r26, 0xA3	; 163
    812c:	b6 47       	sbci	r27, 0x76	; 118
    812e:	c8 0e       	add	r12, r24
    8130:	d9 1e       	adc	r13, r25
    8132:	ea 1e       	adc	r14, r26
    8134:	fb 1e       	adc	r15, r27
    8136:	d9 01       	movw	r26, r18
    8138:	c8 01       	movw	r24, r16
    813a:	84 27       	eor	r24, r20
    813c:	95 27       	eor	r25, r21
    813e:	a6 27       	eor	r26, r22
    8140:	b7 27       	eor	r27, r23
    8142:	88 21       	and	r24, r8
    8144:	99 21       	and	r25, r9
    8146:	aa 21       	and	r26, r10
    8148:	bb 21       	and	r27, r11
    814a:	2c 01       	movw	r4, r24
    814c:	3d 01       	movw	r6, r26
    814e:	44 26       	eor	r4, r20
    8150:	55 26       	eor	r5, r21
    8152:	66 26       	eor	r6, r22
    8154:	77 26       	eor	r7, r23
    8156:	d7 01       	movw	r26, r14
    8158:	c6 01       	movw	r24, r12
    815a:	84 0d       	add	r24, r4
    815c:	95 1d       	adc	r25, r5
    815e:	a6 1d       	adc	r26, r6
    8160:	b7 1d       	adc	r27, r7
    8162:	2c 01       	movw	r4, r24
    8164:	3d 01       	movw	r6, r26
    8166:	03 2e       	mov	r0, r19
    8168:	3a e0       	ldi	r19, 0x0A	; 10
    816a:	76 94       	lsr	r7
    816c:	67 94       	ror	r6
    816e:	57 94       	ror	r5
    8170:	47 94       	ror	r4
    8172:	3a 95       	dec	r19
    8174:	d1 f7       	brne	.-12     	; 0x816a <md5_process+0x936>
    8176:	30 2d       	mov	r19, r0
    8178:	07 2e       	mov	r0, r23
    817a:	76 e1       	ldi	r23, 0x16	; 22
    817c:	88 0f       	add	r24, r24
    817e:	99 1f       	adc	r25, r25
    8180:	aa 1f       	adc	r26, r26
    8182:	bb 1f       	adc	r27, r27
    8184:	7a 95       	dec	r23
    8186:	d1 f7       	brne	.-12     	; 0x817c <md5_process+0x948>
    8188:	70 2d       	mov	r23, r0
    818a:	84 29       	or	r24, r4
    818c:	95 29       	or	r25, r5
    818e:	a6 29       	or	r26, r6
    8190:	b7 29       	or	r27, r7
    8192:	88 0d       	add	r24, r8
    8194:	99 1d       	adc	r25, r9
    8196:	aa 1d       	adc	r26, r10
    8198:	bb 1d       	adc	r27, r11
    819a:	c9 ac       	ldd	r12, Y+57	; 0x39
    819c:	da ac       	ldd	r13, Y+58	; 0x3a
    819e:	eb ac       	ldd	r14, Y+59	; 0x3b
    81a0:	fc ac       	ldd	r15, Y+60	; 0x3c
    81a2:	ee ed       	ldi	r30, 0xDE	; 222
    81a4:	ce 1a       	sub	r12, r30
    81a6:	ee ee       	ldi	r30, 0xEE	; 238
    81a8:	de 0a       	sbc	r13, r30
    81aa:	ef e6       	ldi	r30, 0x6F	; 111
    81ac:	ee 0a       	sbc	r14, r30
    81ae:	e4 e9       	ldi	r30, 0x94	; 148
    81b0:	fe 0a       	sbc	r15, r30
    81b2:	4c 0d       	add	r20, r12
    81b4:	5d 1d       	adc	r21, r13
    81b6:	6e 1d       	adc	r22, r14
    81b8:	7f 1d       	adc	r23, r15
    81ba:	75 01       	movw	r14, r10
    81bc:	64 01       	movw	r12, r8
    81be:	c0 26       	eor	r12, r16
    81c0:	d1 26       	eor	r13, r17
    81c2:	e2 26       	eor	r14, r18
    81c4:	f3 26       	eor	r15, r19
    81c6:	c8 22       	and	r12, r24
    81c8:	d9 22       	and	r13, r25
    81ca:	ea 22       	and	r14, r26
    81cc:	fb 22       	and	r15, r27
    81ce:	c0 26       	eor	r12, r16
    81d0:	d1 26       	eor	r13, r17
    81d2:	e2 26       	eor	r14, r18
    81d4:	f3 26       	eor	r15, r19
    81d6:	4c 0d       	add	r20, r12
    81d8:	5d 1d       	adc	r21, r13
    81da:	6e 1d       	adc	r22, r14
    81dc:	7f 1d       	adc	r23, r15
    81de:	6a 01       	movw	r12, r20
    81e0:	7b 01       	movw	r14, r22
    81e2:	cc 0c       	add	r12, r12
    81e4:	dd 1c       	adc	r13, r13
    81e6:	ee 1c       	adc	r14, r14
    81e8:	ff 1c       	adc	r15, r15
    81ea:	cc 0c       	add	r12, r12
    81ec:	dd 1c       	adc	r13, r13
    81ee:	ee 1c       	adc	r14, r14
    81f0:	ff 1c       	adc	r15, r15
    81f2:	cc 0c       	add	r12, r12
    81f4:	dd 1c       	adc	r13, r13
    81f6:	ee 1c       	adc	r14, r14
    81f8:	ff 1c       	adc	r15, r15
    81fa:	cc 0c       	add	r12, r12
    81fc:	dd 1c       	adc	r13, r13
    81fe:	ee 1c       	adc	r14, r14
    8200:	ff 1c       	adc	r15, r15
    8202:	cc 0c       	add	r12, r12
    8204:	dd 1c       	adc	r13, r13
    8206:	ee 1c       	adc	r14, r14
    8208:	ff 1c       	adc	r15, r15
    820a:	cc 0c       	add	r12, r12
    820c:	dd 1c       	adc	r13, r13
    820e:	ee 1c       	adc	r14, r14
    8210:	ff 1c       	adc	r15, r15
    8212:	cc 0c       	add	r12, r12
    8214:	dd 1c       	adc	r13, r13
    8216:	ee 1c       	adc	r14, r14
    8218:	ff 1c       	adc	r15, r15
    821a:	03 2e       	mov	r0, r19
    821c:	39 e1       	ldi	r19, 0x19	; 25
    821e:	76 95       	lsr	r23
    8220:	67 95       	ror	r22
    8222:	57 95       	ror	r21
    8224:	47 95       	ror	r20
    8226:	3a 95       	dec	r19
    8228:	d1 f7       	brne	.-12     	; 0x821e <__stack+0x1f>
    822a:	30 2d       	mov	r19, r0
    822c:	4c 29       	or	r20, r12
    822e:	5d 29       	or	r21, r13
    8230:	6e 29       	or	r22, r14
    8232:	7f 29       	or	r23, r15
    8234:	48 0f       	add	r20, r24
    8236:	59 1f       	adc	r21, r25
    8238:	6a 1f       	adc	r22, r26
    823a:	7b 1f       	adc	r23, r27
    823c:	21 96       	adiw	r28, 0x01	; 1
    823e:	cc ac       	ldd	r12, Y+60	; 0x3c
    8240:	dd ac       	ldd	r13, Y+61	; 0x3d
    8242:	ee ac       	ldd	r14, Y+62	; 0x3e
    8244:	ff ac       	ldd	r15, Y+63	; 0x3f
    8246:	21 97       	sbiw	r28, 0x01	; 1
    8248:	fd e6       	ldi	r31, 0x6D	; 109
    824a:	cf 1a       	sub	r12, r31
    824c:	fe e8       	ldi	r31, 0x8E	; 142
    824e:	df 0a       	sbc	r13, r31
    8250:	f7 e6       	ldi	r31, 0x67	; 103
    8252:	ef 0a       	sbc	r14, r31
    8254:	f2 e0       	ldi	r31, 0x02	; 2
    8256:	ff 0a       	sbc	r15, r31
    8258:	0c 0d       	add	r16, r12
    825a:	1d 1d       	adc	r17, r13
    825c:	2e 1d       	adc	r18, r14
    825e:	3f 1d       	adc	r19, r15
    8260:	6c 01       	movw	r12, r24
    8262:	7d 01       	movw	r14, r26
    8264:	c8 24       	eor	r12, r8
    8266:	d9 24       	eor	r13, r9
    8268:	ea 24       	eor	r14, r10
    826a:	fb 24       	eor	r15, r11
    826c:	c4 22       	and	r12, r20
    826e:	d5 22       	and	r13, r21
    8270:	e6 22       	and	r14, r22
    8272:	f7 22       	and	r15, r23
    8274:	c8 24       	eor	r12, r8
    8276:	d9 24       	eor	r13, r9
    8278:	ea 24       	eor	r14, r10
    827a:	fb 24       	eor	r15, r11
    827c:	0c 0d       	add	r16, r12
    827e:	1d 1d       	adc	r17, r13
    8280:	2e 1d       	adc	r18, r14
    8282:	3f 1d       	adc	r19, r15
    8284:	68 01       	movw	r12, r16
    8286:	79 01       	movw	r14, r18
    8288:	0b 2e       	mov	r0, r27
    828a:	bc e0       	ldi	r27, 0x0C	; 12
    828c:	cc 0c       	add	r12, r12
    828e:	dd 1c       	adc	r13, r13
    8290:	ee 1c       	adc	r14, r14
    8292:	ff 1c       	adc	r15, r15
    8294:	ba 95       	dec	r27
    8296:	d1 f7       	brne	.-12     	; 0x828c <__stack+0x8d>
    8298:	b0 2d       	mov	r27, r0
    829a:	0f 2e       	mov	r0, r31
    829c:	f4 e1       	ldi	r31, 0x14	; 20
    829e:	36 95       	lsr	r19
    82a0:	27 95       	ror	r18
    82a2:	17 95       	ror	r17
    82a4:	07 95       	ror	r16
    82a6:	fa 95       	dec	r31
    82a8:	d1 f7       	brne	.-12     	; 0x829e <__stack+0x9f>
    82aa:	f0 2d       	mov	r31, r0
    82ac:	0c 29       	or	r16, r12
    82ae:	1d 29       	or	r17, r13
    82b0:	2e 29       	or	r18, r14
    82b2:	3f 29       	or	r19, r15
    82b4:	04 0f       	add	r16, r20
    82b6:	15 1f       	adc	r17, r21
    82b8:	26 1f       	adc	r18, r22
    82ba:	37 1f       	adc	r19, r23
    82bc:	25 96       	adiw	r28, 0x05	; 5
    82be:	cc ac       	ldd	r12, Y+60	; 0x3c
    82c0:	dd ac       	ldd	r13, Y+61	; 0x3d
    82c2:	ee ac       	ldd	r14, Y+62	; 0x3e
    82c4:	ff ac       	ldd	r15, Y+63	; 0x3f
    82c6:	25 97       	sbiw	r28, 0x05	; 5
    82c8:	e2 e7       	ldi	r30, 0x72	; 114
    82ca:	ce 1a       	sub	r12, r30
    82cc:	ec eb       	ldi	r30, 0xBC	; 188
    82ce:	de 0a       	sbc	r13, r30
    82d0:	e6 e8       	ldi	r30, 0x86	; 134
    82d2:	ee 0a       	sbc	r14, r30
    82d4:	e9 e5       	ldi	r30, 0x59	; 89
    82d6:	fe 0a       	sbc	r15, r30
    82d8:	8c 0c       	add	r8, r12
    82da:	9d 1c       	adc	r9, r13
    82dc:	ae 1c       	adc	r10, r14
    82de:	bf 1c       	adc	r11, r15
    82e0:	6a 01       	movw	r12, r20
    82e2:	7b 01       	movw	r14, r22
    82e4:	c8 26       	eor	r12, r24
    82e6:	d9 26       	eor	r13, r25
    82e8:	ea 26       	eor	r14, r26
    82ea:	fb 26       	eor	r15, r27
    82ec:	c0 22       	and	r12, r16
    82ee:	d1 22       	and	r13, r17
    82f0:	e2 22       	and	r14, r18
    82f2:	f3 22       	and	r15, r19
    82f4:	c8 26       	eor	r12, r24
    82f6:	d9 26       	eor	r13, r25
    82f8:	ea 26       	eor	r14, r26
    82fa:	fb 26       	eor	r15, r27
    82fc:	8c 0c       	add	r8, r12
    82fe:	9d 1c       	adc	r9, r13
    8300:	ae 1c       	adc	r10, r14
    8302:	bf 1c       	adc	r11, r15
    8304:	75 01       	movw	r14, r10
    8306:	64 01       	movw	r12, r8
    8308:	0b 2e       	mov	r0, r27
    830a:	bf e0       	ldi	r27, 0x0F	; 15
    830c:	f6 94       	lsr	r15
    830e:	e7 94       	ror	r14
    8310:	d7 94       	ror	r13
    8312:	c7 94       	ror	r12
    8314:	ba 95       	dec	r27
    8316:	d1 f7       	brne	.-12     	; 0x830c <__stack+0x10d>
    8318:	b0 2d       	mov	r27, r0
    831a:	07 2e       	mov	r0, r23
    831c:	71 e1       	ldi	r23, 0x11	; 17
    831e:	88 0c       	add	r8, r8
    8320:	99 1c       	adc	r9, r9
    8322:	aa 1c       	adc	r10, r10
    8324:	bb 1c       	adc	r11, r11
    8326:	7a 95       	dec	r23
    8328:	d1 f7       	brne	.-12     	; 0x831e <__stack+0x11f>
    832a:	70 2d       	mov	r23, r0
    832c:	8c 28       	or	r8, r12
    832e:	9d 28       	or	r9, r13
    8330:	ae 28       	or	r10, r14
    8332:	bf 28       	or	r11, r15
    8334:	80 0e       	add	r8, r16
    8336:	91 1e       	adc	r9, r17
    8338:	a2 1e       	adc	r10, r18
    833a:	b3 1e       	adc	r11, r19
    833c:	29 96       	adiw	r28, 0x09	; 9
    833e:	cc ac       	ldd	r12, Y+60	; 0x3c
    8340:	dd ac       	ldd	r13, Y+61	; 0x3d
    8342:	ee ac       	ldd	r14, Y+62	; 0x3e
    8344:	ff ac       	ldd	r15, Y+63	; 0x3f
    8346:	29 97       	sbiw	r28, 0x09	; 9
    8348:	ff ed       	ldi	r31, 0xDF	; 223
    834a:	cf 1a       	sub	r12, r31
    834c:	f7 ef       	ldi	r31, 0xF7	; 247
    834e:	df 0a       	sbc	r13, r31
    8350:	fb e4       	ldi	r31, 0x4B	; 75
    8352:	ef 0a       	sbc	r14, r31
    8354:	f6 eb       	ldi	r31, 0xB6	; 182
    8356:	ff 0a       	sbc	r15, r31
    8358:	8c 0d       	add	r24, r12
    835a:	9d 1d       	adc	r25, r13
    835c:	ae 1d       	adc	r26, r14
    835e:	bf 1d       	adc	r27, r15
    8360:	68 01       	movw	r12, r16
    8362:	79 01       	movw	r14, r18
    8364:	c4 26       	eor	r12, r20
    8366:	d5 26       	eor	r13, r21
    8368:	e6 26       	eor	r14, r22
    836a:	f7 26       	eor	r15, r23
    836c:	c8 20       	and	r12, r8
    836e:	d9 20       	and	r13, r9
    8370:	ea 20       	and	r14, r10
    8372:	fb 20       	and	r15, r11
    8374:	c4 26       	eor	r12, r20
    8376:	d5 26       	eor	r13, r21
    8378:	e6 26       	eor	r14, r22
    837a:	f7 26       	eor	r15, r23
    837c:	8c 0d       	add	r24, r12
    837e:	9d 1d       	adc	r25, r13
    8380:	ae 1d       	adc	r26, r14
    8382:	bf 1d       	adc	r27, r15
    8384:	6c 01       	movw	r12, r24
    8386:	7d 01       	movw	r14, r26
    8388:	0b 2e       	mov	r0, r27
    838a:	ba e0       	ldi	r27, 0x0A	; 10
    838c:	f6 94       	lsr	r15
    838e:	e7 94       	ror	r14
    8390:	d7 94       	ror	r13
    8392:	c7 94       	ror	r12
    8394:	ba 95       	dec	r27
    8396:	d1 f7       	brne	.-12     	; 0x838c <__stack+0x18d>
    8398:	b0 2d       	mov	r27, r0
    839a:	07 2e       	mov	r0, r23
    839c:	76 e1       	ldi	r23, 0x16	; 22
    839e:	88 0f       	add	r24, r24
    83a0:	99 1f       	adc	r25, r25
    83a2:	aa 1f       	adc	r26, r26
    83a4:	bb 1f       	adc	r27, r27
    83a6:	7a 95       	dec	r23
    83a8:	d1 f7       	brne	.-12     	; 0x839e <__stack+0x19f>
    83aa:	70 2d       	mov	r23, r0
    83ac:	8c 29       	or	r24, r12
    83ae:	9d 29       	or	r25, r13
    83b0:	ae 29       	or	r26, r14
    83b2:	bf 29       	or	r27, r15
    83b4:	88 0d       	add	r24, r8
    83b6:	99 1d       	adc	r25, r9
    83b8:	aa 1d       	adc	r26, r10
    83ba:	bb 1d       	adc	r27, r11
    83bc:	cd 84       	ldd	r12, Y+13	; 0x0d
    83be:	de 84       	ldd	r13, Y+14	; 0x0e
    83c0:	ef 84       	ldd	r14, Y+15	; 0x0f
    83c2:	f8 88       	ldd	r15, Y+16	; 0x10
    83c4:	ee e9       	ldi	r30, 0x9E	; 158
    83c6:	ce 1a       	sub	r12, r30
    83c8:	ea ed       	ldi	r30, 0xDA	; 218
    83ca:	de 0a       	sbc	r13, r30
    83cc:	e1 ee       	ldi	r30, 0xE1	; 225
    83ce:	ee 0a       	sbc	r14, r30
    83d0:	e9 e0       	ldi	r30, 0x09	; 9
    83d2:	fe 0a       	sbc	r15, r30
    83d4:	4c 0d       	add	r20, r12
    83d6:	5d 1d       	adc	r21, r13
    83d8:	6e 1d       	adc	r22, r14
    83da:	7f 1d       	adc	r23, r15
    83dc:	6c 01       	movw	r12, r24
    83de:	7d 01       	movw	r14, r26
    83e0:	c8 24       	eor	r12, r8
    83e2:	d9 24       	eor	r13, r9
    83e4:	ea 24       	eor	r14, r10
    83e6:	fb 24       	eor	r15, r11
    83e8:	c0 22       	and	r12, r16
    83ea:	d1 22       	and	r13, r17
    83ec:	e2 22       	and	r14, r18
    83ee:	f3 22       	and	r15, r19
    83f0:	c8 24       	eor	r12, r8
    83f2:	d9 24       	eor	r13, r9
    83f4:	ea 24       	eor	r14, r10
    83f6:	fb 24       	eor	r15, r11
    83f8:	4c 0d       	add	r20, r12
    83fa:	5d 1d       	adc	r21, r13
    83fc:	6e 1d       	adc	r22, r14
    83fe:	7f 1d       	adc	r23, r15
    8400:	6a 01       	movw	r12, r20
    8402:	7b 01       	movw	r14, r22
    8404:	cc 0c       	add	r12, r12
    8406:	dd 1c       	adc	r13, r13
    8408:	ee 1c       	adc	r14, r14
    840a:	ff 1c       	adc	r15, r15
    840c:	cc 0c       	add	r12, r12
    840e:	dd 1c       	adc	r13, r13
    8410:	ee 1c       	adc	r14, r14
    8412:	ff 1c       	adc	r15, r15
    8414:	cc 0c       	add	r12, r12
    8416:	dd 1c       	adc	r13, r13
    8418:	ee 1c       	adc	r14, r14
    841a:	ff 1c       	adc	r15, r15
    841c:	cc 0c       	add	r12, r12
    841e:	dd 1c       	adc	r13, r13
    8420:	ee 1c       	adc	r14, r14
    8422:	ff 1c       	adc	r15, r15
    8424:	cc 0c       	add	r12, r12
    8426:	dd 1c       	adc	r13, r13
    8428:	ee 1c       	adc	r14, r14
    842a:	ff 1c       	adc	r15, r15
    842c:	03 2e       	mov	r0, r19
    842e:	3b e1       	ldi	r19, 0x1B	; 27
    8430:	76 95       	lsr	r23
    8432:	67 95       	ror	r22
    8434:	57 95       	ror	r21
    8436:	47 95       	ror	r20
    8438:	3a 95       	dec	r19
    843a:	d1 f7       	brne	.-12     	; 0x8430 <__stack+0x231>
    843c:	30 2d       	mov	r19, r0
    843e:	4c 29       	or	r20, r12
    8440:	5d 29       	or	r21, r13
    8442:	6e 29       	or	r22, r14
    8444:	7f 29       	or	r23, r15
    8446:	48 0f       	add	r20, r24
    8448:	59 1f       	adc	r21, r25
    844a:	6a 1f       	adc	r22, r26
    844c:	7b 1f       	adc	r23, r27
    844e:	c9 a0       	ldd	r12, Y+33	; 0x21
    8450:	da a0       	ldd	r13, Y+34	; 0x22
    8452:	eb a0       	ldd	r14, Y+35	; 0x23
    8454:	fc a0       	ldd	r15, Y+36	; 0x24
    8456:	f0 ec       	ldi	r31, 0xC0	; 192
    8458:	cf 1a       	sub	r12, r31
    845a:	fc e4       	ldi	r31, 0x4C	; 76
    845c:	df 0a       	sbc	r13, r31
    845e:	ff eb       	ldi	r31, 0xBF	; 191
    8460:	ef 0a       	sbc	r14, r31
    8462:	ff e3       	ldi	r31, 0x3F	; 63
    8464:	ff 0a       	sbc	r15, r31
    8466:	0c 0d       	add	r16, r12
    8468:	1d 1d       	adc	r17, r13
    846a:	2e 1d       	adc	r18, r14
    846c:	3f 1d       	adc	r19, r15
    846e:	6a 01       	movw	r12, r20
    8470:	7b 01       	movw	r14, r22
    8472:	c8 26       	eor	r12, r24
    8474:	d9 26       	eor	r13, r25
    8476:	ea 26       	eor	r14, r26
    8478:	fb 26       	eor	r15, r27
    847a:	c8 20       	and	r12, r8
    847c:	d9 20       	and	r13, r9
    847e:	ea 20       	and	r14, r10
    8480:	fb 20       	and	r15, r11
    8482:	c8 26       	eor	r12, r24
    8484:	d9 26       	eor	r13, r25
    8486:	ea 26       	eor	r14, r26
    8488:	fb 26       	eor	r15, r27
    848a:	0c 0d       	add	r16, r12
    848c:	1d 1d       	adc	r17, r13
    848e:	2e 1d       	adc	r18, r14
    8490:	3f 1d       	adc	r19, r15
    8492:	68 01       	movw	r12, r16
    8494:	79 01       	movw	r14, r18
    8496:	0b 2e       	mov	r0, r27
    8498:	b9 e0       	ldi	r27, 0x09	; 9
    849a:	cc 0c       	add	r12, r12
    849c:	dd 1c       	adc	r13, r13
    849e:	ee 1c       	adc	r14, r14
    84a0:	ff 1c       	adc	r15, r15
    84a2:	ba 95       	dec	r27
    84a4:	d1 f7       	brne	.-12     	; 0x849a <__stack+0x29b>
    84a6:	b0 2d       	mov	r27, r0
    84a8:	0f 2e       	mov	r0, r31
    84aa:	f7 e1       	ldi	r31, 0x17	; 23
    84ac:	36 95       	lsr	r19
    84ae:	27 95       	ror	r18
    84b0:	17 95       	ror	r17
    84b2:	07 95       	ror	r16
    84b4:	fa 95       	dec	r31
    84b6:	d1 f7       	brne	.-12     	; 0x84ac <__stack+0x2ad>
    84b8:	f0 2d       	mov	r31, r0
    84ba:	0c 29       	or	r16, r12
    84bc:	1d 29       	or	r17, r13
    84be:	2e 29       	or	r18, r14
    84c0:	3f 29       	or	r19, r15
    84c2:	04 0f       	add	r16, r20
    84c4:	15 1f       	adc	r17, r21
    84c6:	26 1f       	adc	r18, r22
    84c8:	37 1f       	adc	r19, r23
    84ca:	cd a8       	ldd	r12, Y+53	; 0x35
    84cc:	de a8       	ldd	r13, Y+54	; 0x36
    84ce:	ef a8       	ldd	r14, Y+55	; 0x37
    84d0:	f8 ac       	ldd	r15, Y+56	; 0x38
    84d2:	ef ea       	ldi	r30, 0xAF	; 175
    84d4:	ce 1a       	sub	r12, r30
    84d6:	e5 ea       	ldi	r30, 0xA5	; 165
    84d8:	de 0a       	sbc	r13, r30
    84da:	e1 ea       	ldi	r30, 0xA1	; 161
    84dc:	ee 0a       	sbc	r14, r30
    84de:	e9 ed       	ldi	r30, 0xD9	; 217
    84e0:	fe 0a       	sbc	r15, r30
    84e2:	8c 0c       	add	r8, r12
    84e4:	9d 1c       	adc	r9, r13
    84e6:	ae 1c       	adc	r10, r14
    84e8:	bf 1c       	adc	r11, r15
    84ea:	68 01       	movw	r12, r16
    84ec:	79 01       	movw	r14, r18
    84ee:	c4 26       	eor	r12, r20
    84f0:	d5 26       	eor	r13, r21
    84f2:	e6 26       	eor	r14, r22
    84f4:	f7 26       	eor	r15, r23
    84f6:	c8 22       	and	r12, r24
    84f8:	d9 22       	and	r13, r25
    84fa:	ea 22       	and	r14, r26
    84fc:	fb 22       	and	r15, r27
    84fe:	c4 26       	eor	r12, r20
    8500:	d5 26       	eor	r13, r21
    8502:	e6 26       	eor	r14, r22
    8504:	f7 26       	eor	r15, r23
    8506:	8c 0c       	add	r8, r12
    8508:	9d 1c       	adc	r9, r13
    850a:	ae 1c       	adc	r10, r14
    850c:	bf 1c       	adc	r11, r15
    850e:	75 01       	movw	r14, r10
    8510:	64 01       	movw	r12, r8
    8512:	0b 2e       	mov	r0, r27
    8514:	be e0       	ldi	r27, 0x0E	; 14
    8516:	cc 0c       	add	r12, r12
    8518:	dd 1c       	adc	r13, r13
    851a:	ee 1c       	adc	r14, r14
    851c:	ff 1c       	adc	r15, r15
    851e:	ba 95       	dec	r27
    8520:	d1 f7       	brne	.-12     	; 0x8516 <__stack+0x317>
    8522:	b0 2d       	mov	r27, r0
    8524:	07 2e       	mov	r0, r23
    8526:	72 e1       	ldi	r23, 0x12	; 18
    8528:	b6 94       	lsr	r11
    852a:	a7 94       	ror	r10
    852c:	97 94       	ror	r9
    852e:	87 94       	ror	r8
    8530:	7a 95       	dec	r23
    8532:	d1 f7       	brne	.-12     	; 0x8528 <__stack+0x329>
    8534:	70 2d       	mov	r23, r0
    8536:	8c 28       	or	r8, r12
    8538:	9d 28       	or	r9, r13
    853a:	ae 28       	or	r10, r14
    853c:	bf 28       	or	r11, r15
    853e:	80 0e       	add	r8, r16
    8540:	91 1e       	adc	r9, r17
    8542:	a2 1e       	adc	r10, r18
    8544:	b3 1e       	adc	r11, r19
    8546:	c9 84       	ldd	r12, Y+9	; 0x09
    8548:	da 84       	ldd	r13, Y+10	; 0x0a
    854a:	eb 84       	ldd	r14, Y+11	; 0x0b
    854c:	fc 84       	ldd	r15, Y+12	; 0x0c
    854e:	f6 e5       	ldi	r31, 0x56	; 86
    8550:	cf 1a       	sub	r12, r31
    8552:	f8 e3       	ldi	r31, 0x38	; 56
    8554:	df 0a       	sbc	r13, r31
    8556:	f9 e4       	ldi	r31, 0x49	; 73
    8558:	ef 0a       	sbc	r14, r31
    855a:	f6 e1       	ldi	r31, 0x16	; 22
    855c:	ff 0a       	sbc	r15, r31
    855e:	8c 0d       	add	r24, r12
    8560:	9d 1d       	adc	r25, r13
    8562:	ae 1d       	adc	r26, r14
    8564:	bf 1d       	adc	r27, r15
    8566:	75 01       	movw	r14, r10
    8568:	64 01       	movw	r12, r8
    856a:	c0 26       	eor	r12, r16
    856c:	d1 26       	eor	r13, r17
    856e:	e2 26       	eor	r14, r18
    8570:	f3 26       	eor	r15, r19
    8572:	c4 22       	and	r12, r20
    8574:	d5 22       	and	r13, r21
    8576:	e6 22       	and	r14, r22
    8578:	f7 22       	and	r15, r23
    857a:	c0 26       	eor	r12, r16
    857c:	d1 26       	eor	r13, r17
    857e:	e2 26       	eor	r14, r18
    8580:	f3 26       	eor	r15, r19
    8582:	8c 0d       	add	r24, r12
    8584:	9d 1d       	adc	r25, r13
    8586:	ae 1d       	adc	r26, r14
    8588:	bf 1d       	adc	r27, r15
    858a:	6c 01       	movw	r12, r24
    858c:	7d 01       	movw	r14, r26
    858e:	0b 2e       	mov	r0, r27
    8590:	bc e0       	ldi	r27, 0x0C	; 12
    8592:	f6 94       	lsr	r15
    8594:	e7 94       	ror	r14
    8596:	d7 94       	ror	r13
    8598:	c7 94       	ror	r12
    859a:	ba 95       	dec	r27
    859c:	d1 f7       	brne	.-12     	; 0x8592 <__stack+0x393>
    859e:	b0 2d       	mov	r27, r0
    85a0:	07 2e       	mov	r0, r23
    85a2:	74 e1       	ldi	r23, 0x14	; 20
    85a4:	88 0f       	add	r24, r24
    85a6:	99 1f       	adc	r25, r25
    85a8:	aa 1f       	adc	r26, r26
    85aa:	bb 1f       	adc	r27, r27
    85ac:	7a 95       	dec	r23
    85ae:	d1 f7       	brne	.-12     	; 0x85a4 <__stack+0x3a5>
    85b0:	70 2d       	mov	r23, r0
    85b2:	8c 29       	or	r24, r12
    85b4:	9d 29       	or	r25, r13
    85b6:	ae 29       	or	r26, r14
    85b8:	bf 29       	or	r27, r15
    85ba:	88 0d       	add	r24, r8
    85bc:	99 1d       	adc	r25, r9
    85be:	aa 1d       	adc	r26, r10
    85c0:	bb 1d       	adc	r27, r11
    85c2:	cd 8c       	ldd	r12, Y+29	; 0x1d
    85c4:	de 8c       	ldd	r13, Y+30	; 0x1e
    85c6:	ef 8c       	ldd	r14, Y+31	; 0x1f
    85c8:	f8 a0       	ldd	r15, Y+32	; 0x20
    85ca:	e3 ea       	ldi	r30, 0xA3	; 163
    85cc:	ce 1a       	sub	r12, r30
    85ce:	ef ee       	ldi	r30, 0xEF	; 239
    85d0:	de 0a       	sbc	r13, r30
    85d2:	e0 ed       	ldi	r30, 0xD0	; 208
    85d4:	ee 0a       	sbc	r14, r30
    85d6:	e9 e2       	ldi	r30, 0x29	; 41
    85d8:	fe 0a       	sbc	r15, r30
    85da:	4c 0d       	add	r20, r12
    85dc:	5d 1d       	adc	r21, r13
    85de:	6e 1d       	adc	r22, r14
    85e0:	7f 1d       	adc	r23, r15
    85e2:	6c 01       	movw	r12, r24
    85e4:	7d 01       	movw	r14, r26
    85e6:	c8 24       	eor	r12, r8
    85e8:	d9 24       	eor	r13, r9
    85ea:	ea 24       	eor	r14, r10
    85ec:	fb 24       	eor	r15, r11
    85ee:	c0 22       	and	r12, r16
    85f0:	d1 22       	and	r13, r17
    85f2:	e2 22       	and	r14, r18
    85f4:	f3 22       	and	r15, r19
    85f6:	c8 24       	eor	r12, r8
    85f8:	d9 24       	eor	r13, r9
    85fa:	ea 24       	eor	r14, r10
    85fc:	fb 24       	eor	r15, r11
    85fe:	4c 0d       	add	r20, r12
    8600:	5d 1d       	adc	r21, r13
    8602:	6e 1d       	adc	r22, r14
    8604:	7f 1d       	adc	r23, r15
    8606:	6a 01       	movw	r12, r20
    8608:	7b 01       	movw	r14, r22
    860a:	cc 0c       	add	r12, r12
    860c:	dd 1c       	adc	r13, r13
    860e:	ee 1c       	adc	r14, r14
    8610:	ff 1c       	adc	r15, r15
    8612:	cc 0c       	add	r12, r12
    8614:	dd 1c       	adc	r13, r13
    8616:	ee 1c       	adc	r14, r14
    8618:	ff 1c       	adc	r15, r15
    861a:	cc 0c       	add	r12, r12
    861c:	dd 1c       	adc	r13, r13
    861e:	ee 1c       	adc	r14, r14
    8620:	ff 1c       	adc	r15, r15
    8622:	cc 0c       	add	r12, r12
    8624:	dd 1c       	adc	r13, r13
    8626:	ee 1c       	adc	r14, r14
    8628:	ff 1c       	adc	r15, r15
    862a:	cc 0c       	add	r12, r12
    862c:	dd 1c       	adc	r13, r13
    862e:	ee 1c       	adc	r14, r14
    8630:	ff 1c       	adc	r15, r15
    8632:	03 2e       	mov	r0, r19
    8634:	3b e1       	ldi	r19, 0x1B	; 27
    8636:	76 95       	lsr	r23
    8638:	67 95       	ror	r22
    863a:	57 95       	ror	r21
    863c:	47 95       	ror	r20
    863e:	3a 95       	dec	r19
    8640:	d1 f7       	brne	.-12     	; 0x8636 <__stack+0x437>
    8642:	30 2d       	mov	r19, r0
    8644:	4c 29       	or	r20, r12
    8646:	5d 29       	or	r21, r13
    8648:	6e 29       	or	r22, r14
    864a:	7f 29       	or	r23, r15
    864c:	48 0f       	add	r20, r24
    864e:	59 1f       	adc	r21, r25
    8650:	6a 1f       	adc	r22, r26
    8652:	7b 1f       	adc	r23, r27
    8654:	c9 a8       	ldd	r12, Y+49	; 0x31
    8656:	da a8       	ldd	r13, Y+50	; 0x32
    8658:	eb a8       	ldd	r14, Y+51	; 0x33
    865a:	fc a8       	ldd	r15, Y+52	; 0x34
    865c:	fd ea       	ldi	r31, 0xAD	; 173
    865e:	cf 1a       	sub	r12, r31
    8660:	fb ee       	ldi	r31, 0xEB	; 235
    8662:	df 0a       	sbc	r13, r31
    8664:	fb eb       	ldi	r31, 0xBB	; 187
    8666:	ef 0a       	sbc	r14, r31
    8668:	fd ef       	ldi	r31, 0xFD	; 253
    866a:	ff 0a       	sbc	r15, r31
    866c:	0c 0d       	add	r16, r12
    866e:	1d 1d       	adc	r17, r13
    8670:	2e 1d       	adc	r18, r14
    8672:	3f 1d       	adc	r19, r15
    8674:	6a 01       	movw	r12, r20
    8676:	7b 01       	movw	r14, r22
    8678:	c8 26       	eor	r12, r24
    867a:	d9 26       	eor	r13, r25
    867c:	ea 26       	eor	r14, r26
    867e:	fb 26       	eor	r15, r27
    8680:	c8 20       	and	r12, r8
    8682:	d9 20       	and	r13, r9
    8684:	ea 20       	and	r14, r10
    8686:	fb 20       	and	r15, r11
    8688:	c8 26       	eor	r12, r24
    868a:	d9 26       	eor	r13, r25
    868c:	ea 26       	eor	r14, r26
    868e:	fb 26       	eor	r15, r27
    8690:	0c 0d       	add	r16, r12
    8692:	1d 1d       	adc	r17, r13
    8694:	2e 1d       	adc	r18, r14
    8696:	3f 1d       	adc	r19, r15
    8698:	68 01       	movw	r12, r16
    869a:	79 01       	movw	r14, r18
    869c:	0b 2e       	mov	r0, r27
    869e:	b9 e0       	ldi	r27, 0x09	; 9
    86a0:	cc 0c       	add	r12, r12
    86a2:	dd 1c       	adc	r13, r13
    86a4:	ee 1c       	adc	r14, r14
    86a6:	ff 1c       	adc	r15, r15
    86a8:	ba 95       	dec	r27
    86aa:	d1 f7       	brne	.-12     	; 0x86a0 <__stack+0x4a1>
    86ac:	b0 2d       	mov	r27, r0
    86ae:	0f 2e       	mov	r0, r31
    86b0:	f7 e1       	ldi	r31, 0x17	; 23
    86b2:	36 95       	lsr	r19
    86b4:	27 95       	ror	r18
    86b6:	17 95       	ror	r17
    86b8:	07 95       	ror	r16
    86ba:	fa 95       	dec	r31
    86bc:	d1 f7       	brne	.-12     	; 0x86b2 <__stack+0x4b3>
    86be:	f0 2d       	mov	r31, r0
    86c0:	0c 29       	or	r16, r12
    86c2:	1d 29       	or	r17, r13
    86c4:	2e 29       	or	r18, r14
    86c6:	3f 29       	or	r19, r15
    86c8:	04 0f       	add	r16, r20
    86ca:	15 1f       	adc	r17, r21
    86cc:	26 1f       	adc	r18, r22
    86ce:	37 1f       	adc	r19, r23
    86d0:	29 96       	adiw	r28, 0x09	; 9
    86d2:	cc ac       	ldd	r12, Y+60	; 0x3c
    86d4:	dd ac       	ldd	r13, Y+61	; 0x3d
    86d6:	ee ac       	ldd	r14, Y+62	; 0x3e
    86d8:	ff ac       	ldd	r15, Y+63	; 0x3f
    86da:	29 97       	sbiw	r28, 0x09	; 9
    86dc:	ef e7       	ldi	r30, 0x7F	; 127
    86de:	ce 1a       	sub	r12, r30
    86e0:	e9 e1       	ldi	r30, 0x19	; 25
    86e2:	de 0a       	sbc	r13, r30
    86e4:	ee e5       	ldi	r30, 0x5E	; 94
    86e6:	ee 0a       	sbc	r14, r30
    86e8:	e7 e2       	ldi	r30, 0x27	; 39
    86ea:	fe 0a       	sbc	r15, r30
    86ec:	8c 0c       	add	r8, r12
    86ee:	9d 1c       	adc	r9, r13
    86f0:	ae 1c       	adc	r10, r14
    86f2:	bf 1c       	adc	r11, r15
    86f4:	68 01       	movw	r12, r16
    86f6:	79 01       	movw	r14, r18
    86f8:	c4 26       	eor	r12, r20
    86fa:	d5 26       	eor	r13, r21
    86fc:	e6 26       	eor	r14, r22
    86fe:	f7 26       	eor	r15, r23
    8700:	c8 22       	and	r12, r24
    8702:	d9 22       	and	r13, r25
    8704:	ea 22       	and	r14, r26
    8706:	fb 22       	and	r15, r27
    8708:	c4 26       	eor	r12, r20
    870a:	d5 26       	eor	r13, r21
    870c:	e6 26       	eor	r14, r22
    870e:	f7 26       	eor	r15, r23
    8710:	8c 0c       	add	r8, r12
    8712:	9d 1c       	adc	r9, r13
    8714:	ae 1c       	adc	r10, r14
    8716:	bf 1c       	adc	r11, r15
    8718:	75 01       	movw	r14, r10
    871a:	64 01       	movw	r12, r8
    871c:	0b 2e       	mov	r0, r27
    871e:	be e0       	ldi	r27, 0x0E	; 14
    8720:	cc 0c       	add	r12, r12
    8722:	dd 1c       	adc	r13, r13
    8724:	ee 1c       	adc	r14, r14
    8726:	ff 1c       	adc	r15, r15
    8728:	ba 95       	dec	r27
    872a:	d1 f7       	brne	.-12     	; 0x8720 <__stack+0x521>
    872c:	b0 2d       	mov	r27, r0
    872e:	07 2e       	mov	r0, r23
    8730:	72 e1       	ldi	r23, 0x12	; 18
    8732:	b6 94       	lsr	r11
    8734:	a7 94       	ror	r10
    8736:	97 94       	ror	r9
    8738:	87 94       	ror	r8
    873a:	7a 95       	dec	r23
    873c:	d1 f7       	brne	.-12     	; 0x8732 <__stack+0x533>
    873e:	70 2d       	mov	r23, r0
    8740:	8c 28       	or	r8, r12
    8742:	9d 28       	or	r9, r13
    8744:	ae 28       	or	r10, r14
    8746:	bf 28       	or	r11, r15
    8748:	80 0e       	add	r8, r16
    874a:	91 1e       	adc	r9, r17
    874c:	a2 1e       	adc	r10, r18
    874e:	b3 1e       	adc	r11, r19
    8750:	c9 8c       	ldd	r12, Y+25	; 0x19
    8752:	da 8c       	ldd	r13, Y+26	; 0x1a
    8754:	eb 8c       	ldd	r14, Y+27	; 0x1b
    8756:	fc 8c       	ldd	r15, Y+28	; 0x1c
    8758:	f8 e3       	ldi	r31, 0x38	; 56
    875a:	cf 1a       	sub	r12, r31
    875c:	f4 e0       	ldi	r31, 0x04	; 4
    875e:	df 0a       	sbc	r13, r31
    8760:	fc e2       	ldi	r31, 0x2C	; 44
    8762:	ef 0a       	sbc	r14, r31
    8764:	f8 e1       	ldi	r31, 0x18	; 24
    8766:	ff 0a       	sbc	r15, r31
    8768:	8c 0d       	add	r24, r12
    876a:	9d 1d       	adc	r25, r13
    876c:	ae 1d       	adc	r26, r14
    876e:	bf 1d       	adc	r27, r15
    8770:	75 01       	movw	r14, r10
    8772:	64 01       	movw	r12, r8
    8774:	c0 26       	eor	r12, r16
    8776:	d1 26       	eor	r13, r17
    8778:	e2 26       	eor	r14, r18
    877a:	f3 26       	eor	r15, r19
    877c:	c4 22       	and	r12, r20
    877e:	d5 22       	and	r13, r21
    8780:	e6 22       	and	r14, r22
    8782:	f7 22       	and	r15, r23
    8784:	c0 26       	eor	r12, r16
    8786:	d1 26       	eor	r13, r17
    8788:	e2 26       	eor	r14, r18
    878a:	f3 26       	eor	r15, r19
    878c:	8c 0d       	add	r24, r12
    878e:	9d 1d       	adc	r25, r13
    8790:	ae 1d       	adc	r26, r14
    8792:	bf 1d       	adc	r27, r15
    8794:	6c 01       	movw	r12, r24
    8796:	7d 01       	movw	r14, r26
    8798:	0b 2e       	mov	r0, r27
    879a:	bc e0       	ldi	r27, 0x0C	; 12
    879c:	f6 94       	lsr	r15
    879e:	e7 94       	ror	r14
    87a0:	d7 94       	ror	r13
    87a2:	c7 94       	ror	r12
    87a4:	ba 95       	dec	r27
    87a6:	d1 f7       	brne	.-12     	; 0x879c <__stack+0x59d>
    87a8:	b0 2d       	mov	r27, r0
    87aa:	07 2e       	mov	r0, r23
    87ac:	74 e1       	ldi	r23, 0x14	; 20
    87ae:	88 0f       	add	r24, r24
    87b0:	99 1f       	adc	r25, r25
    87b2:	aa 1f       	adc	r26, r26
    87b4:	bb 1f       	adc	r27, r27
    87b6:	7a 95       	dec	r23
    87b8:	d1 f7       	brne	.-12     	; 0x87ae <__stack+0x5af>
    87ba:	70 2d       	mov	r23, r0
    87bc:	8c 29       	or	r24, r12
    87be:	9d 29       	or	r25, r13
    87c0:	ae 29       	or	r26, r14
    87c2:	bf 29       	or	r27, r15
    87c4:	88 0d       	add	r24, r8
    87c6:	99 1d       	adc	r25, r9
    87c8:	aa 1d       	adc	r26, r10
    87ca:	bb 1d       	adc	r27, r11
    87cc:	cd a4       	ldd	r12, Y+45	; 0x2d
    87ce:	de a4       	ldd	r13, Y+46	; 0x2e
    87d0:	ef a4       	ldd	r14, Y+47	; 0x2f
    87d2:	f8 a8       	ldd	r15, Y+48	; 0x30
    87d4:	ea e1       	ldi	r30, 0x1A	; 26
    87d6:	ce 1a       	sub	r12, r30
    87d8:	e2 e3       	ldi	r30, 0x32	; 50
    87da:	de 0a       	sbc	r13, r30
    87dc:	ee e1       	ldi	r30, 0x1E	; 30
    87de:	ee 0a       	sbc	r14, r30
    87e0:	ee ed       	ldi	r30, 0xDE	; 222
    87e2:	fe 0a       	sbc	r15, r30
    87e4:	4c 0d       	add	r20, r12
    87e6:	5d 1d       	adc	r21, r13
    87e8:	6e 1d       	adc	r22, r14
    87ea:	7f 1d       	adc	r23, r15
    87ec:	6c 01       	movw	r12, r24
    87ee:	7d 01       	movw	r14, r26
    87f0:	c8 24       	eor	r12, r8
    87f2:	d9 24       	eor	r13, r9
    87f4:	ea 24       	eor	r14, r10
    87f6:	fb 24       	eor	r15, r11
    87f8:	c0 22       	and	r12, r16
    87fa:	d1 22       	and	r13, r17
    87fc:	e2 22       	and	r14, r18
    87fe:	f3 22       	and	r15, r19
    8800:	c8 24       	eor	r12, r8
    8802:	d9 24       	eor	r13, r9
    8804:	ea 24       	eor	r14, r10
    8806:	fb 24       	eor	r15, r11
    8808:	4c 0d       	add	r20, r12
    880a:	5d 1d       	adc	r21, r13
    880c:	6e 1d       	adc	r22, r14
    880e:	7f 1d       	adc	r23, r15
    8810:	6a 01       	movw	r12, r20
    8812:	7b 01       	movw	r14, r22
    8814:	cc 0c       	add	r12, r12
    8816:	dd 1c       	adc	r13, r13
    8818:	ee 1c       	adc	r14, r14
    881a:	ff 1c       	adc	r15, r15
    881c:	cc 0c       	add	r12, r12
    881e:	dd 1c       	adc	r13, r13
    8820:	ee 1c       	adc	r14, r14
    8822:	ff 1c       	adc	r15, r15
    8824:	cc 0c       	add	r12, r12
    8826:	dd 1c       	adc	r13, r13
    8828:	ee 1c       	adc	r14, r14
    882a:	ff 1c       	adc	r15, r15
    882c:	cc 0c       	add	r12, r12
    882e:	dd 1c       	adc	r13, r13
    8830:	ee 1c       	adc	r14, r14
    8832:	ff 1c       	adc	r15, r15
    8834:	cc 0c       	add	r12, r12
    8836:	dd 1c       	adc	r13, r13
    8838:	ee 1c       	adc	r14, r14
    883a:	ff 1c       	adc	r15, r15
    883c:	03 2e       	mov	r0, r19
    883e:	3b e1       	ldi	r19, 0x1B	; 27
    8840:	76 95       	lsr	r23
    8842:	67 95       	ror	r22
    8844:	57 95       	ror	r21
    8846:	47 95       	ror	r20
    8848:	3a 95       	dec	r19
    884a:	d1 f7       	brne	.-12     	; 0x8840 <__stack+0x641>
    884c:	30 2d       	mov	r19, r0
    884e:	4c 29       	or	r20, r12
    8850:	5d 29       	or	r21, r13
    8852:	6e 29       	or	r22, r14
    8854:	7f 29       	or	r23, r15
    8856:	48 0f       	add	r20, r24
    8858:	59 1f       	adc	r21, r25
    885a:	6a 1f       	adc	r22, r26
    885c:	7b 1f       	adc	r23, r27
    885e:	25 96       	adiw	r28, 0x05	; 5
    8860:	cc ac       	ldd	r12, Y+60	; 0x3c
    8862:	dd ac       	ldd	r13, Y+61	; 0x3d
    8864:	ee ac       	ldd	r14, Y+62	; 0x3e
    8866:	ff ac       	ldd	r15, Y+63	; 0x3f
    8868:	25 97       	sbiw	r28, 0x05	; 5
    886a:	fa e2       	ldi	r31, 0x2A	; 42
    886c:	cf 1a       	sub	r12, r31
    886e:	f8 ef       	ldi	r31, 0xF8	; 248
    8870:	df 0a       	sbc	r13, r31
    8872:	f8 ec       	ldi	r31, 0xC8	; 200
    8874:	ef 0a       	sbc	r14, r31
    8876:	fc e3       	ldi	r31, 0x3C	; 60
    8878:	ff 0a       	sbc	r15, r31
    887a:	0c 0d       	add	r16, r12
    887c:	1d 1d       	adc	r17, r13
    887e:	2e 1d       	adc	r18, r14
    8880:	3f 1d       	adc	r19, r15
    8882:	6a 01       	movw	r12, r20
    8884:	7b 01       	movw	r14, r22
    8886:	c8 26       	eor	r12, r24
    8888:	d9 26       	eor	r13, r25
    888a:	ea 26       	eor	r14, r26
    888c:	fb 26       	eor	r15, r27
    888e:	c8 20       	and	r12, r8
    8890:	d9 20       	and	r13, r9
    8892:	ea 20       	and	r14, r10
    8894:	fb 20       	and	r15, r11
    8896:	c8 26       	eor	r12, r24
    8898:	d9 26       	eor	r13, r25
    889a:	ea 26       	eor	r14, r26
    889c:	fb 26       	eor	r15, r27
    889e:	0c 0d       	add	r16, r12
    88a0:	1d 1d       	adc	r17, r13
    88a2:	2e 1d       	adc	r18, r14
    88a4:	3f 1d       	adc	r19, r15
    88a6:	68 01       	movw	r12, r16
    88a8:	79 01       	movw	r14, r18
    88aa:	0b 2e       	mov	r0, r27
    88ac:	b9 e0       	ldi	r27, 0x09	; 9
    88ae:	cc 0c       	add	r12, r12
    88b0:	dd 1c       	adc	r13, r13
    88b2:	ee 1c       	adc	r14, r14
    88b4:	ff 1c       	adc	r15, r15
    88b6:	ba 95       	dec	r27
    88b8:	d1 f7       	brne	.-12     	; 0x88ae <__stack+0x6af>
    88ba:	b0 2d       	mov	r27, r0
    88bc:	0f 2e       	mov	r0, r31
    88be:	f7 e1       	ldi	r31, 0x17	; 23
    88c0:	36 95       	lsr	r19
    88c2:	27 95       	ror	r18
    88c4:	17 95       	ror	r17
    88c6:	07 95       	ror	r16
    88c8:	fa 95       	dec	r31
    88ca:	d1 f7       	brne	.-12     	; 0x88c0 <__stack+0x6c1>
    88cc:	f0 2d       	mov	r31, r0
    88ce:	0c 29       	or	r16, r12
    88d0:	1d 29       	or	r17, r13
    88d2:	2e 29       	or	r18, r14
    88d4:	3f 29       	or	r19, r15
    88d6:	04 0f       	add	r16, r20
    88d8:	15 1f       	adc	r17, r21
    88da:	26 1f       	adc	r18, r22
    88dc:	37 1f       	adc	r19, r23
    88de:	cd 88       	ldd	r12, Y+21	; 0x15
    88e0:	de 88       	ldd	r13, Y+22	; 0x16
    88e2:	ef 88       	ldd	r14, Y+23	; 0x17
    88e4:	f8 8c       	ldd	r15, Y+24	; 0x18
    88e6:	e9 e7       	ldi	r30, 0x79	; 121
    88e8:	ce 1a       	sub	r12, r30
    88ea:	e2 ef       	ldi	r30, 0xF2	; 242
    88ec:	de 0a       	sbc	r13, r30
    88ee:	ea e2       	ldi	r30, 0x2A	; 42
    88f0:	ee 0a       	sbc	r14, r30
    88f2:	eb e0       	ldi	r30, 0x0B	; 11
    88f4:	fe 0a       	sbc	r15, r30
    88f6:	8c 0c       	add	r8, r12
    88f8:	9d 1c       	adc	r9, r13
    88fa:	ae 1c       	adc	r10, r14
    88fc:	bf 1c       	adc	r11, r15
    88fe:	68 01       	movw	r12, r16
    8900:	79 01       	movw	r14, r18
    8902:	c4 26       	eor	r12, r20
    8904:	d5 26       	eor	r13, r21
    8906:	e6 26       	eor	r14, r22
    8908:	f7 26       	eor	r15, r23
    890a:	c8 22       	and	r12, r24
    890c:	d9 22       	and	r13, r25
    890e:	ea 22       	and	r14, r26
    8910:	fb 22       	and	r15, r27
    8912:	c4 26       	eor	r12, r20
    8914:	d5 26       	eor	r13, r21
    8916:	e6 26       	eor	r14, r22
    8918:	f7 26       	eor	r15, r23
    891a:	8c 0c       	add	r8, r12
    891c:	9d 1c       	adc	r9, r13
    891e:	ae 1c       	adc	r10, r14
    8920:	bf 1c       	adc	r11, r15
    8922:	75 01       	movw	r14, r10
    8924:	64 01       	movw	r12, r8
    8926:	0b 2e       	mov	r0, r27
    8928:	be e0       	ldi	r27, 0x0E	; 14
    892a:	cc 0c       	add	r12, r12
    892c:	dd 1c       	adc	r13, r13
    892e:	ee 1c       	adc	r14, r14
    8930:	ff 1c       	adc	r15, r15
    8932:	ba 95       	dec	r27
    8934:	d1 f7       	brne	.-12     	; 0x892a <__stack+0x72b>
    8936:	b0 2d       	mov	r27, r0
    8938:	07 2e       	mov	r0, r23
    893a:	72 e1       	ldi	r23, 0x12	; 18
    893c:	b6 94       	lsr	r11
    893e:	a7 94       	ror	r10
    8940:	97 94       	ror	r9
    8942:	87 94       	ror	r8
    8944:	7a 95       	dec	r23
    8946:	d1 f7       	brne	.-12     	; 0x893c <__stack+0x73d>
    8948:	70 2d       	mov	r23, r0
    894a:	8c 28       	or	r8, r12
    894c:	9d 28       	or	r9, r13
    894e:	ae 28       	or	r10, r14
    8950:	bf 28       	or	r11, r15
    8952:	80 0e       	add	r8, r16
    8954:	91 1e       	adc	r9, r17
    8956:	a2 1e       	adc	r10, r18
    8958:	b3 1e       	adc	r11, r19
    895a:	c9 a4       	ldd	r12, Y+41	; 0x29
    895c:	da a4       	ldd	r13, Y+42	; 0x2a
    895e:	eb a4       	ldd	r14, Y+43	; 0x2b
    8960:	fc a4       	ldd	r15, Y+44	; 0x2c
    8962:	f3 e1       	ldi	r31, 0x13	; 19
    8964:	cf 1a       	sub	r12, r31
    8966:	fb ee       	ldi	r31, 0xEB	; 235
    8968:	df 0a       	sbc	r13, r31
    896a:	f5 ea       	ldi	r31, 0xA5	; 165
    896c:	ef 0a       	sbc	r14, r31
    896e:	fa eb       	ldi	r31, 0xBA	; 186
    8970:	ff 0a       	sbc	r15, r31
    8972:	8c 0d       	add	r24, r12
    8974:	9d 1d       	adc	r25, r13
    8976:	ae 1d       	adc	r26, r14
    8978:	bf 1d       	adc	r27, r15
    897a:	75 01       	movw	r14, r10
    897c:	64 01       	movw	r12, r8
    897e:	c0 26       	eor	r12, r16
    8980:	d1 26       	eor	r13, r17
    8982:	e2 26       	eor	r14, r18
    8984:	f3 26       	eor	r15, r19
    8986:	c4 22       	and	r12, r20
    8988:	d5 22       	and	r13, r21
    898a:	e6 22       	and	r14, r22
    898c:	f7 22       	and	r15, r23
    898e:	c0 26       	eor	r12, r16
    8990:	d1 26       	eor	r13, r17
    8992:	e2 26       	eor	r14, r18
    8994:	f3 26       	eor	r15, r19
    8996:	8c 0d       	add	r24, r12
    8998:	9d 1d       	adc	r25, r13
    899a:	ae 1d       	adc	r26, r14
    899c:	bf 1d       	adc	r27, r15
    899e:	6c 01       	movw	r12, r24
    89a0:	7d 01       	movw	r14, r26
    89a2:	0b 2e       	mov	r0, r27
    89a4:	bc e0       	ldi	r27, 0x0C	; 12
    89a6:	f6 94       	lsr	r15
    89a8:	e7 94       	ror	r14
    89aa:	d7 94       	ror	r13
    89ac:	c7 94       	ror	r12
    89ae:	ba 95       	dec	r27
    89b0:	d1 f7       	brne	.-12     	; 0x89a6 <__stack+0x7a7>
    89b2:	b0 2d       	mov	r27, r0
    89b4:	07 2e       	mov	r0, r23
    89b6:	74 e1       	ldi	r23, 0x14	; 20
    89b8:	88 0f       	add	r24, r24
    89ba:	99 1f       	adc	r25, r25
    89bc:	aa 1f       	adc	r26, r26
    89be:	bb 1f       	adc	r27, r27
    89c0:	7a 95       	dec	r23
    89c2:	d1 f7       	brne	.-12     	; 0x89b8 <__stack+0x7b9>
    89c4:	70 2d       	mov	r23, r0
    89c6:	8c 29       	or	r24, r12
    89c8:	9d 29       	or	r25, r13
    89ca:	ae 29       	or	r26, r14
    89cc:	bf 29       	or	r27, r15
    89ce:	88 0d       	add	r24, r8
    89d0:	99 1d       	adc	r25, r9
    89d2:	aa 1d       	adc	r26, r10
    89d4:	bb 1d       	adc	r27, r11
    89d6:	21 96       	adiw	r28, 0x01	; 1
    89d8:	cc ac       	ldd	r12, Y+60	; 0x3c
    89da:	dd ac       	ldd	r13, Y+61	; 0x3d
    89dc:	ee ac       	ldd	r14, Y+62	; 0x3e
    89de:	ff ac       	ldd	r15, Y+63	; 0x3f
    89e0:	21 97       	sbiw	r28, 0x01	; 1
    89e2:	eb ef       	ldi	r30, 0xFB	; 251
    89e4:	ce 1a       	sub	r12, r30
    89e6:	e6 e1       	ldi	r30, 0x16	; 22
    89e8:	de 0a       	sbc	r13, r30
    89ea:	ec e1       	ldi	r30, 0x1C	; 28
    89ec:	ee 0a       	sbc	r14, r30
    89ee:	e6 e5       	ldi	r30, 0x56	; 86
    89f0:	fe 0a       	sbc	r15, r30
    89f2:	4c 0d       	add	r20, r12
    89f4:	5d 1d       	adc	r21, r13
    89f6:	6e 1d       	adc	r22, r14
    89f8:	7f 1d       	adc	r23, r15
    89fa:	6c 01       	movw	r12, r24
    89fc:	7d 01       	movw	r14, r26
    89fe:	c8 24       	eor	r12, r8
    8a00:	d9 24       	eor	r13, r9
    8a02:	ea 24       	eor	r14, r10
    8a04:	fb 24       	eor	r15, r11
    8a06:	c0 22       	and	r12, r16
    8a08:	d1 22       	and	r13, r17
    8a0a:	e2 22       	and	r14, r18
    8a0c:	f3 22       	and	r15, r19
    8a0e:	c8 24       	eor	r12, r8
    8a10:	d9 24       	eor	r13, r9
    8a12:	ea 24       	eor	r14, r10
    8a14:	fb 24       	eor	r15, r11
    8a16:	4c 0d       	add	r20, r12
    8a18:	5d 1d       	adc	r21, r13
    8a1a:	6e 1d       	adc	r22, r14
    8a1c:	7f 1d       	adc	r23, r15
    8a1e:	6a 01       	movw	r12, r20
    8a20:	7b 01       	movw	r14, r22
    8a22:	cc 0c       	add	r12, r12
    8a24:	dd 1c       	adc	r13, r13
    8a26:	ee 1c       	adc	r14, r14
    8a28:	ff 1c       	adc	r15, r15
    8a2a:	cc 0c       	add	r12, r12
    8a2c:	dd 1c       	adc	r13, r13
    8a2e:	ee 1c       	adc	r14, r14
    8a30:	ff 1c       	adc	r15, r15
    8a32:	cc 0c       	add	r12, r12
    8a34:	dd 1c       	adc	r13, r13
    8a36:	ee 1c       	adc	r14, r14
    8a38:	ff 1c       	adc	r15, r15
    8a3a:	cc 0c       	add	r12, r12
    8a3c:	dd 1c       	adc	r13, r13
    8a3e:	ee 1c       	adc	r14, r14
    8a40:	ff 1c       	adc	r15, r15
    8a42:	cc 0c       	add	r12, r12
    8a44:	dd 1c       	adc	r13, r13
    8a46:	ee 1c       	adc	r14, r14
    8a48:	ff 1c       	adc	r15, r15
    8a4a:	03 2e       	mov	r0, r19
    8a4c:	3b e1       	ldi	r19, 0x1B	; 27
    8a4e:	76 95       	lsr	r23
    8a50:	67 95       	ror	r22
    8a52:	57 95       	ror	r21
    8a54:	47 95       	ror	r20
    8a56:	3a 95       	dec	r19
    8a58:	d1 f7       	brne	.-12     	; 0x8a4e <__stack+0x84f>
    8a5a:	30 2d       	mov	r19, r0
    8a5c:	4c 29       	or	r20, r12
    8a5e:	5d 29       	or	r21, r13
    8a60:	6e 29       	or	r22, r14
    8a62:	7f 29       	or	r23, r15
    8a64:	48 0f       	add	r20, r24
    8a66:	59 1f       	adc	r21, r25
    8a68:	6a 1f       	adc	r22, r26
    8a6a:	7b 1f       	adc	r23, r27
    8a6c:	c9 88       	ldd	r12, Y+17	; 0x11
    8a6e:	da 88       	ldd	r13, Y+18	; 0x12
    8a70:	eb 88       	ldd	r14, Y+19	; 0x13
    8a72:	fc 88       	ldd	r15, Y+20	; 0x14
    8a74:	f8 e0       	ldi	r31, 0x08	; 8
    8a76:	cf 1a       	sub	r12, r31
    8a78:	fc e5       	ldi	r31, 0x5C	; 92
    8a7a:	df 0a       	sbc	r13, r31
    8a7c:	f0 e1       	ldi	r31, 0x10	; 16
    8a7e:	ef 0a       	sbc	r14, r31
    8a80:	f3 e0       	ldi	r31, 0x03	; 3
    8a82:	ff 0a       	sbc	r15, r31
    8a84:	0c 0d       	add	r16, r12
    8a86:	1d 1d       	adc	r17, r13
    8a88:	2e 1d       	adc	r18, r14
    8a8a:	3f 1d       	adc	r19, r15
    8a8c:	6a 01       	movw	r12, r20
    8a8e:	7b 01       	movw	r14, r22
    8a90:	c8 26       	eor	r12, r24
    8a92:	d9 26       	eor	r13, r25
    8a94:	ea 26       	eor	r14, r26
    8a96:	fb 26       	eor	r15, r27
    8a98:	c8 20       	and	r12, r8
    8a9a:	d9 20       	and	r13, r9
    8a9c:	ea 20       	and	r14, r10
    8a9e:	fb 20       	and	r15, r11
    8aa0:	c8 26       	eor	r12, r24
    8aa2:	d9 26       	eor	r13, r25
    8aa4:	ea 26       	eor	r14, r26
    8aa6:	fb 26       	eor	r15, r27
    8aa8:	0c 0d       	add	r16, r12
    8aaa:	1d 1d       	adc	r17, r13
    8aac:	2e 1d       	adc	r18, r14
    8aae:	3f 1d       	adc	r19, r15
    8ab0:	68 01       	movw	r12, r16
    8ab2:	79 01       	movw	r14, r18
    8ab4:	0b 2e       	mov	r0, r27
    8ab6:	b9 e0       	ldi	r27, 0x09	; 9
    8ab8:	cc 0c       	add	r12, r12
    8aba:	dd 1c       	adc	r13, r13
    8abc:	ee 1c       	adc	r14, r14
    8abe:	ff 1c       	adc	r15, r15
    8ac0:	ba 95       	dec	r27
    8ac2:	d1 f7       	brne	.-12     	; 0x8ab8 <__stack+0x8b9>
    8ac4:	b0 2d       	mov	r27, r0
    8ac6:	0f 2e       	mov	r0, r31
    8ac8:	f7 e1       	ldi	r31, 0x17	; 23
    8aca:	36 95       	lsr	r19
    8acc:	27 95       	ror	r18
    8ace:	17 95       	ror	r17
    8ad0:	07 95       	ror	r16
    8ad2:	fa 95       	dec	r31
    8ad4:	d1 f7       	brne	.-12     	; 0x8aca <__stack+0x8cb>
    8ad6:	f0 2d       	mov	r31, r0
    8ad8:	0c 29       	or	r16, r12
    8ada:	1d 29       	or	r17, r13
    8adc:	2e 29       	or	r18, r14
    8ade:	3f 29       	or	r19, r15
    8ae0:	04 0f       	add	r16, r20
    8ae2:	15 1f       	adc	r17, r21
    8ae4:	26 1f       	adc	r18, r22
    8ae6:	37 1f       	adc	r19, r23
    8ae8:	cd a0       	ldd	r12, Y+37	; 0x25
    8aea:	de a0       	ldd	r13, Y+38	; 0x26
    8aec:	ef a0       	ldd	r14, Y+39	; 0x27
    8aee:	f8 a4       	ldd	r15, Y+40	; 0x28
    8af0:	e7 e2       	ldi	r30, 0x27	; 39
    8af2:	ce 1a       	sub	r12, r30
    8af4:	ed ef       	ldi	r30, 0xFD	; 253
    8af6:	de 0a       	sbc	r13, r30
    8af8:	e0 e9       	ldi	r30, 0x90	; 144
    8afa:	ee 0a       	sbc	r14, r30
    8afc:	e8 e9       	ldi	r30, 0x98	; 152
    8afe:	fe 0a       	sbc	r15, r30
    8b00:	8c 0c       	add	r8, r12
    8b02:	9d 1c       	adc	r9, r13
    8b04:	ae 1c       	adc	r10, r14
    8b06:	bf 1c       	adc	r11, r15
    8b08:	68 01       	movw	r12, r16
    8b0a:	79 01       	movw	r14, r18
    8b0c:	c4 26       	eor	r12, r20
    8b0e:	d5 26       	eor	r13, r21
    8b10:	e6 26       	eor	r14, r22
    8b12:	f7 26       	eor	r15, r23
    8b14:	c8 22       	and	r12, r24
    8b16:	d9 22       	and	r13, r25
    8b18:	ea 22       	and	r14, r26
    8b1a:	fb 22       	and	r15, r27
    8b1c:	c4 26       	eor	r12, r20
    8b1e:	d5 26       	eor	r13, r21
    8b20:	e6 26       	eor	r14, r22
    8b22:	f7 26       	eor	r15, r23
    8b24:	8c 0c       	add	r8, r12
    8b26:	9d 1c       	adc	r9, r13
    8b28:	ae 1c       	adc	r10, r14
    8b2a:	bf 1c       	adc	r11, r15
    8b2c:	75 01       	movw	r14, r10
    8b2e:	64 01       	movw	r12, r8
    8b30:	0b 2e       	mov	r0, r27
    8b32:	be e0       	ldi	r27, 0x0E	; 14
    8b34:	cc 0c       	add	r12, r12
    8b36:	dd 1c       	adc	r13, r13
    8b38:	ee 1c       	adc	r14, r14
    8b3a:	ff 1c       	adc	r15, r15
    8b3c:	ba 95       	dec	r27
    8b3e:	d1 f7       	brne	.-12     	; 0x8b34 <__stack+0x935>
    8b40:	b0 2d       	mov	r27, r0
    8b42:	07 2e       	mov	r0, r23
    8b44:	72 e1       	ldi	r23, 0x12	; 18
    8b46:	b6 94       	lsr	r11
    8b48:	a7 94       	ror	r10
    8b4a:	97 94       	ror	r9
    8b4c:	87 94       	ror	r8
    8b4e:	7a 95       	dec	r23
    8b50:	d1 f7       	brne	.-12     	; 0x8b46 <__stack+0x947>
    8b52:	70 2d       	mov	r23, r0
    8b54:	8c 28       	or	r8, r12
    8b56:	9d 28       	or	r9, r13
    8b58:	ae 28       	or	r10, r14
    8b5a:	bf 28       	or	r11, r15
    8b5c:	80 0e       	add	r8, r16
    8b5e:	91 1e       	adc	r9, r17
    8b60:	a2 1e       	adc	r10, r18
    8b62:	b3 1e       	adc	r11, r19
    8b64:	75 01       	movw	r14, r10
    8b66:	64 01       	movw	r12, r8
    8b68:	c0 26       	eor	r12, r16
    8b6a:	d1 26       	eor	r13, r17
    8b6c:	e2 26       	eor	r14, r18
    8b6e:	f3 26       	eor	r15, r19
    8b70:	49 ac       	ldd	r4, Y+57	; 0x39
    8b72:	5a ac       	ldd	r5, Y+58	; 0x3a
    8b74:	6b ac       	ldd	r6, Y+59	; 0x3b
    8b76:	7c ac       	ldd	r7, Y+60	; 0x3c
    8b78:	f6 e7       	ldi	r31, 0x76	; 118
    8b7a:	4f 1a       	sub	r4, r31
    8b7c:	f3 eb       	ldi	r31, 0xB3	; 179
    8b7e:	5f 0a       	sbc	r5, r31
    8b80:	f5 ed       	ldi	r31, 0xD5	; 213
    8b82:	6f 0a       	sbc	r6, r31
    8b84:	f2 e7       	ldi	r31, 0x72	; 114
    8b86:	7f 0a       	sbc	r7, r31
    8b88:	84 0d       	add	r24, r4
    8b8a:	95 1d       	adc	r25, r5
    8b8c:	a6 1d       	adc	r26, r6
    8b8e:	b7 1d       	adc	r27, r7
    8b90:	26 01       	movw	r4, r12
    8b92:	37 01       	movw	r6, r14
    8b94:	44 22       	and	r4, r20
    8b96:	55 22       	and	r5, r21
    8b98:	66 22       	and	r6, r22
    8b9a:	77 22       	and	r7, r23
    8b9c:	40 26       	eor	r4, r16
    8b9e:	51 26       	eor	r5, r17
    8ba0:	62 26       	eor	r6, r18
    8ba2:	73 26       	eor	r7, r19
    8ba4:	84 0d       	add	r24, r4
    8ba6:	95 1d       	adc	r25, r5
    8ba8:	a6 1d       	adc	r26, r6
    8baa:	b7 1d       	adc	r27, r7
    8bac:	2c 01       	movw	r4, r24
    8bae:	3d 01       	movw	r6, r26
    8bb0:	03 2e       	mov	r0, r19
    8bb2:	3c e0       	ldi	r19, 0x0C	; 12
    8bb4:	76 94       	lsr	r7
    8bb6:	67 94       	ror	r6
    8bb8:	57 94       	ror	r5
    8bba:	47 94       	ror	r4
    8bbc:	3a 95       	dec	r19
    8bbe:	d1 f7       	brne	.-12     	; 0x8bb4 <__stack+0x9b5>
    8bc0:	30 2d       	mov	r19, r0
    8bc2:	07 2e       	mov	r0, r23
    8bc4:	74 e1       	ldi	r23, 0x14	; 20
    8bc6:	88 0f       	add	r24, r24
    8bc8:	99 1f       	adc	r25, r25
    8bca:	aa 1f       	adc	r26, r26
    8bcc:	bb 1f       	adc	r27, r27
    8bce:	7a 95       	dec	r23
    8bd0:	d1 f7       	brne	.-12     	; 0x8bc6 <__stack+0x9c7>
    8bd2:	70 2d       	mov	r23, r0
    8bd4:	84 29       	or	r24, r4
    8bd6:	95 29       	or	r25, r5
    8bd8:	a6 29       	or	r26, r6
    8bda:	b7 29       	or	r27, r7
    8bdc:	88 0d       	add	r24, r8
    8bde:	99 1d       	adc	r25, r9
    8be0:	aa 1d       	adc	r26, r10
    8be2:	bb 1d       	adc	r27, r11
    8be4:	4d 8c       	ldd	r4, Y+29	; 0x1d
    8be6:	5e 8c       	ldd	r5, Y+30	; 0x1e
    8be8:	6f 8c       	ldd	r6, Y+31	; 0x1f
    8bea:	78 a0       	ldd	r7, Y+32	; 0x20
    8bec:	ee eb       	ldi	r30, 0xBE	; 190
    8bee:	4e 1a       	sub	r4, r30
    8bf0:	e6 ec       	ldi	r30, 0xC6	; 198
    8bf2:	5e 0a       	sbc	r5, r30
    8bf4:	e5 e0       	ldi	r30, 0x05	; 5
    8bf6:	6e 0a       	sbc	r6, r30
    8bf8:	71 08       	sbc	r7, r1
    8bfa:	44 0d       	add	r20, r4
    8bfc:	55 1d       	adc	r21, r5
    8bfe:	66 1d       	adc	r22, r6
    8c00:	77 1d       	adc	r23, r7
    8c02:	c8 26       	eor	r12, r24
    8c04:	d9 26       	eor	r13, r25
    8c06:	ea 26       	eor	r14, r26
    8c08:	fb 26       	eor	r15, r27
    8c0a:	4c 0d       	add	r20, r12
    8c0c:	5d 1d       	adc	r21, r13
    8c0e:	6e 1d       	adc	r22, r14
    8c10:	7f 1d       	adc	r23, r15
    8c12:	6a 01       	movw	r12, r20
    8c14:	7b 01       	movw	r14, r22
    8c16:	cc 0c       	add	r12, r12
    8c18:	dd 1c       	adc	r13, r13
    8c1a:	ee 1c       	adc	r14, r14
    8c1c:	ff 1c       	adc	r15, r15
    8c1e:	cc 0c       	add	r12, r12
    8c20:	dd 1c       	adc	r13, r13
    8c22:	ee 1c       	adc	r14, r14
    8c24:	ff 1c       	adc	r15, r15
    8c26:	cc 0c       	add	r12, r12
    8c28:	dd 1c       	adc	r13, r13
    8c2a:	ee 1c       	adc	r14, r14
    8c2c:	ff 1c       	adc	r15, r15
    8c2e:	cc 0c       	add	r12, r12
    8c30:	dd 1c       	adc	r13, r13
    8c32:	ee 1c       	adc	r14, r14
    8c34:	ff 1c       	adc	r15, r15
    8c36:	03 2e       	mov	r0, r19
    8c38:	3c e1       	ldi	r19, 0x1C	; 28
    8c3a:	76 95       	lsr	r23
    8c3c:	67 95       	ror	r22
    8c3e:	57 95       	ror	r21
    8c40:	47 95       	ror	r20
    8c42:	3a 95       	dec	r19
    8c44:	d1 f7       	brne	.-12     	; 0x8c3a <__stack+0xa3b>
    8c46:	30 2d       	mov	r19, r0
    8c48:	4c 29       	or	r20, r12
    8c4a:	5d 29       	or	r21, r13
    8c4c:	6e 29       	or	r22, r14
    8c4e:	7f 29       	or	r23, r15
    8c50:	48 0f       	add	r20, r24
    8c52:	59 1f       	adc	r21, r25
    8c54:	6a 1f       	adc	r22, r26
    8c56:	7b 1f       	adc	r23, r27
    8c58:	c9 a4       	ldd	r12, Y+41	; 0x29
    8c5a:	da a4       	ldd	r13, Y+42	; 0x2a
    8c5c:	eb a4       	ldd	r14, Y+43	; 0x2b
    8c5e:	fc a4       	ldd	r15, Y+44	; 0x2c
    8c60:	ff e7       	ldi	r31, 0x7F	; 127
    8c62:	cf 1a       	sub	r12, r31
    8c64:	f9 e0       	ldi	r31, 0x09	; 9
    8c66:	df 0a       	sbc	r13, r31
    8c68:	fe e8       	ldi	r31, 0x8E	; 142
    8c6a:	ef 0a       	sbc	r14, r31
    8c6c:	f8 e7       	ldi	r31, 0x78	; 120
    8c6e:	ff 0a       	sbc	r15, r31
    8c70:	0c 0d       	add	r16, r12
    8c72:	1d 1d       	adc	r17, r13
    8c74:	2e 1d       	adc	r18, r14
    8c76:	3f 1d       	adc	r19, r15
    8c78:	6c 01       	movw	r12, r24
    8c7a:	7d 01       	movw	r14, r26
    8c7c:	c8 24       	eor	r12, r8
    8c7e:	d9 24       	eor	r13, r9
    8c80:	ea 24       	eor	r14, r10
    8c82:	fb 24       	eor	r15, r11
    8c84:	c4 26       	eor	r12, r20
    8c86:	d5 26       	eor	r13, r21
    8c88:	e6 26       	eor	r14, r22
    8c8a:	f7 26       	eor	r15, r23
    8c8c:	0c 0d       	add	r16, r12
    8c8e:	1d 1d       	adc	r17, r13
    8c90:	2e 1d       	adc	r18, r14
    8c92:	3f 1d       	adc	r19, r15
    8c94:	68 01       	movw	r12, r16
    8c96:	79 01       	movw	r14, r18
    8c98:	0b 2e       	mov	r0, r27
    8c9a:	bb e0       	ldi	r27, 0x0B	; 11
    8c9c:	cc 0c       	add	r12, r12
    8c9e:	dd 1c       	adc	r13, r13
    8ca0:	ee 1c       	adc	r14, r14
    8ca2:	ff 1c       	adc	r15, r15
    8ca4:	ba 95       	dec	r27
    8ca6:	d1 f7       	brne	.-12     	; 0x8c9c <__stack+0xa9d>
    8ca8:	b0 2d       	mov	r27, r0
    8caa:	0f 2e       	mov	r0, r31
    8cac:	f5 e1       	ldi	r31, 0x15	; 21
    8cae:	36 95       	lsr	r19
    8cb0:	27 95       	ror	r18
    8cb2:	17 95       	ror	r17
    8cb4:	07 95       	ror	r16
    8cb6:	fa 95       	dec	r31
    8cb8:	d1 f7       	brne	.-12     	; 0x8cae <__stack+0xaaf>
    8cba:	f0 2d       	mov	r31, r0
    8cbc:	0c 29       	or	r16, r12
    8cbe:	1d 29       	or	r17, r13
    8cc0:	2e 29       	or	r18, r14
    8cc2:	3f 29       	or	r19, r15
    8cc4:	04 0f       	add	r16, r20
    8cc6:	15 1f       	adc	r17, r21
    8cc8:	26 1f       	adc	r18, r22
    8cca:	37 1f       	adc	r19, r23
    8ccc:	cd a8       	ldd	r12, Y+53	; 0x35
    8cce:	de a8       	ldd	r13, Y+54	; 0x36
    8cd0:	ef a8       	ldd	r14, Y+55	; 0x37
    8cd2:	f8 ac       	ldd	r15, Y+56	; 0x38
    8cd4:	ee ed       	ldi	r30, 0xDE	; 222
    8cd6:	ce 1a       	sub	r12, r30
    8cd8:	ee e9       	ldi	r30, 0x9E	; 158
    8cda:	de 0a       	sbc	r13, r30
    8cdc:	e2 e6       	ldi	r30, 0x62	; 98
    8cde:	ee 0a       	sbc	r14, r30
    8ce0:	e2 e9       	ldi	r30, 0x92	; 146
    8ce2:	fe 0a       	sbc	r15, r30
    8ce4:	8c 0c       	add	r8, r12
    8ce6:	9d 1c       	adc	r9, r13
    8ce8:	ae 1c       	adc	r10, r14
    8cea:	bf 1c       	adc	r11, r15
    8cec:	6a 01       	movw	r12, r20
    8cee:	7b 01       	movw	r14, r22
    8cf0:	c8 26       	eor	r12, r24
    8cf2:	d9 26       	eor	r13, r25
    8cf4:	ea 26       	eor	r14, r26
    8cf6:	fb 26       	eor	r15, r27
    8cf8:	c0 26       	eor	r12, r16
    8cfa:	d1 26       	eor	r13, r17
    8cfc:	e2 26       	eor	r14, r18
    8cfe:	f3 26       	eor	r15, r19
    8d00:	8c 0c       	add	r8, r12
    8d02:	9d 1c       	adc	r9, r13
    8d04:	ae 1c       	adc	r10, r14
    8d06:	bf 1c       	adc	r11, r15
    8d08:	64 01       	movw	r12, r8
    8d0a:	45 01       	movw	r8, r10
    8d0c:	56 01       	movw	r10, r12
    8d0e:	80 0e       	add	r8, r16
    8d10:	91 1e       	adc	r9, r17
    8d12:	a2 1e       	adc	r10, r18
    8d14:	b3 1e       	adc	r11, r19
    8d16:	25 96       	adiw	r28, 0x05	; 5
    8d18:	cc ac       	ldd	r12, Y+60	; 0x3c
    8d1a:	dd ac       	ldd	r13, Y+61	; 0x3d
    8d1c:	ee ac       	ldd	r14, Y+62	; 0x3e
    8d1e:	ff ac       	ldd	r15, Y+63	; 0x3f
    8d20:	25 97       	sbiw	r28, 0x05	; 5
    8d22:	e4 ef       	ldi	r30, 0xF4	; 244
    8d24:	ce 1a       	sub	r12, r30
    8d26:	e7 ec       	ldi	r30, 0xC7	; 199
    8d28:	de 0a       	sbc	r13, r30
    8d2a:	ea e1       	ldi	r30, 0x1A	; 26
    8d2c:	ee 0a       	sbc	r14, r30
    8d2e:	e2 e0       	ldi	r30, 0x02	; 2
    8d30:	fe 0a       	sbc	r15, r30
    8d32:	8c 0d       	add	r24, r12
    8d34:	9d 1d       	adc	r25, r13
    8d36:	ae 1d       	adc	r26, r14
    8d38:	bf 1d       	adc	r27, r15
    8d3a:	68 01       	movw	r12, r16
    8d3c:	79 01       	movw	r14, r18
    8d3e:	c4 26       	eor	r12, r20
    8d40:	d5 26       	eor	r13, r21
    8d42:	e6 26       	eor	r14, r22
    8d44:	f7 26       	eor	r15, r23
    8d46:	c8 24       	eor	r12, r8
    8d48:	d9 24       	eor	r13, r9
    8d4a:	ea 24       	eor	r14, r10
    8d4c:	fb 24       	eor	r15, r11
    8d4e:	8c 0d       	add	r24, r12
    8d50:	9d 1d       	adc	r25, r13
    8d52:	ae 1d       	adc	r26, r14
    8d54:	bf 1d       	adc	r27, r15
    8d56:	6c 01       	movw	r12, r24
    8d58:	7d 01       	movw	r14, r26
    8d5a:	0b 2e       	mov	r0, r27
    8d5c:	b9 e0       	ldi	r27, 0x09	; 9
    8d5e:	f6 94       	lsr	r15
    8d60:	e7 94       	ror	r14
    8d62:	d7 94       	ror	r13
    8d64:	c7 94       	ror	r12
    8d66:	ba 95       	dec	r27
    8d68:	d1 f7       	brne	.-12     	; 0x8d5e <__stack+0xb5f>
    8d6a:	b0 2d       	mov	r27, r0
    8d6c:	07 2e       	mov	r0, r23
    8d6e:	77 e1       	ldi	r23, 0x17	; 23
    8d70:	88 0f       	add	r24, r24
    8d72:	99 1f       	adc	r25, r25
    8d74:	aa 1f       	adc	r26, r26
    8d76:	bb 1f       	adc	r27, r27
    8d78:	7a 95       	dec	r23
    8d7a:	d1 f7       	brne	.-12     	; 0x8d70 <__stack+0xb71>
    8d7c:	70 2d       	mov	r23, r0
    8d7e:	8c 29       	or	r24, r12
    8d80:	9d 29       	or	r25, r13
    8d82:	ae 29       	or	r26, r14
    8d84:	bf 29       	or	r27, r15
    8d86:	88 0d       	add	r24, r8
    8d88:	99 1d       	adc	r25, r9
    8d8a:	aa 1d       	adc	r26, r10
    8d8c:	bb 1d       	adc	r27, r11
    8d8e:	4d 84       	ldd	r4, Y+13	; 0x0d
    8d90:	5e 84       	ldd	r5, Y+14	; 0x0e
    8d92:	6f 84       	ldd	r6, Y+15	; 0x0f
    8d94:	78 88       	ldd	r7, Y+16	; 0x10
    8d96:	fc eb       	ldi	r31, 0xBC	; 188
    8d98:	4f 1a       	sub	r4, r31
    8d9a:	f5 e1       	ldi	r31, 0x15	; 21
    8d9c:	5f 0a       	sbc	r5, r31
    8d9e:	f1 e4       	ldi	r31, 0x41	; 65
    8da0:	6f 0a       	sbc	r6, r31
    8da2:	fb e5       	ldi	r31, 0x5B	; 91
    8da4:	7f 0a       	sbc	r7, r31
    8da6:	44 0d       	add	r20, r4
    8da8:	55 1d       	adc	r21, r5
    8daa:	66 1d       	adc	r22, r6
    8dac:	77 1d       	adc	r23, r7
    8dae:	24 01       	movw	r4, r8
    8db0:	35 01       	movw	r6, r10
    8db2:	40 26       	eor	r4, r16
    8db4:	51 26       	eor	r5, r17
    8db6:	62 26       	eor	r6, r18
    8db8:	73 26       	eor	r7, r19
    8dba:	48 26       	eor	r4, r24
    8dbc:	59 26       	eor	r5, r25
    8dbe:	6a 26       	eor	r6, r26
    8dc0:	7b 26       	eor	r7, r27
    8dc2:	44 0d       	add	r20, r4
    8dc4:	55 1d       	adc	r21, r5
    8dc6:	66 1d       	adc	r22, r6
    8dc8:	77 1d       	adc	r23, r7
    8dca:	6a 01       	movw	r12, r20
    8dcc:	7b 01       	movw	r14, r22
    8dce:	cc 0c       	add	r12, r12
    8dd0:	dd 1c       	adc	r13, r13
    8dd2:	ee 1c       	adc	r14, r14
    8dd4:	ff 1c       	adc	r15, r15
    8dd6:	cc 0c       	add	r12, r12
    8dd8:	dd 1c       	adc	r13, r13
    8dda:	ee 1c       	adc	r14, r14
    8ddc:	ff 1c       	adc	r15, r15
    8dde:	cc 0c       	add	r12, r12
    8de0:	dd 1c       	adc	r13, r13
    8de2:	ee 1c       	adc	r14, r14
    8de4:	ff 1c       	adc	r15, r15
    8de6:	cc 0c       	add	r12, r12
    8de8:	dd 1c       	adc	r13, r13
    8dea:	ee 1c       	adc	r14, r14
    8dec:	ff 1c       	adc	r15, r15
    8dee:	03 2e       	mov	r0, r19
    8df0:	3c e1       	ldi	r19, 0x1C	; 28
    8df2:	76 95       	lsr	r23
    8df4:	67 95       	ror	r22
    8df6:	57 95       	ror	r21
    8df8:	47 95       	ror	r20
    8dfa:	3a 95       	dec	r19
    8dfc:	d1 f7       	brne	.-12     	; 0x8df2 <__stack+0xbf3>
    8dfe:	30 2d       	mov	r19, r0
    8e00:	4c 29       	or	r20, r12
    8e02:	5d 29       	or	r21, r13
    8e04:	6e 29       	or	r22, r14
    8e06:	7f 29       	or	r23, r15
    8e08:	48 0f       	add	r20, r24
    8e0a:	59 1f       	adc	r21, r25
    8e0c:	6a 1f       	adc	r22, r26
    8e0e:	7b 1f       	adc	r23, r27
    8e10:	c9 8c       	ldd	r12, Y+25	; 0x19
    8e12:	da 8c       	ldd	r13, Y+26	; 0x1a
    8e14:	eb 8c       	ldd	r14, Y+27	; 0x1b
    8e16:	fc 8c       	ldd	r15, Y+28	; 0x1c
    8e18:	e7 e5       	ldi	r30, 0x57	; 87
    8e1a:	ce 1a       	sub	r12, r30
    8e1c:	e0 e3       	ldi	r30, 0x30	; 48
    8e1e:	de 0a       	sbc	r13, r30
    8e20:	e1 e2       	ldi	r30, 0x21	; 33
    8e22:	ee 0a       	sbc	r14, r30
    8e24:	e4 eb       	ldi	r30, 0xB4	; 180
    8e26:	fe 0a       	sbc	r15, r30
    8e28:	0c 0d       	add	r16, r12
    8e2a:	1d 1d       	adc	r17, r13
    8e2c:	2e 1d       	adc	r18, r14
    8e2e:	3f 1d       	adc	r19, r15
    8e30:	6c 01       	movw	r12, r24
    8e32:	7d 01       	movw	r14, r26
    8e34:	c8 24       	eor	r12, r8
    8e36:	d9 24       	eor	r13, r9
    8e38:	ea 24       	eor	r14, r10
    8e3a:	fb 24       	eor	r15, r11
    8e3c:	c4 26       	eor	r12, r20
    8e3e:	d5 26       	eor	r13, r21
    8e40:	e6 26       	eor	r14, r22
    8e42:	f7 26       	eor	r15, r23
    8e44:	0c 0d       	add	r16, r12
    8e46:	1d 1d       	adc	r17, r13
    8e48:	2e 1d       	adc	r18, r14
    8e4a:	3f 1d       	adc	r19, r15
    8e4c:	68 01       	movw	r12, r16
    8e4e:	79 01       	movw	r14, r18
    8e50:	0b 2e       	mov	r0, r27
    8e52:	bb e0       	ldi	r27, 0x0B	; 11
    8e54:	cc 0c       	add	r12, r12
    8e56:	dd 1c       	adc	r13, r13
    8e58:	ee 1c       	adc	r14, r14
    8e5a:	ff 1c       	adc	r15, r15
    8e5c:	ba 95       	dec	r27
    8e5e:	d1 f7       	brne	.-12     	; 0x8e54 <__stack+0xc55>
    8e60:	b0 2d       	mov	r27, r0
    8e62:	0f 2e       	mov	r0, r31
    8e64:	f5 e1       	ldi	r31, 0x15	; 21
    8e66:	36 95       	lsr	r19
    8e68:	27 95       	ror	r18
    8e6a:	17 95       	ror	r17
    8e6c:	07 95       	ror	r16
    8e6e:	fa 95       	dec	r31
    8e70:	d1 f7       	brne	.-12     	; 0x8e66 <__stack+0xc67>
    8e72:	f0 2d       	mov	r31, r0
    8e74:	0c 29       	or	r16, r12
    8e76:	1d 29       	or	r17, r13
    8e78:	2e 29       	or	r18, r14
    8e7a:	3f 29       	or	r19, r15
    8e7c:	04 0f       	add	r16, r20
    8e7e:	15 1f       	adc	r17, r21
    8e80:	26 1f       	adc	r18, r22
    8e82:	37 1f       	adc	r19, r23
    8e84:	cd a0       	ldd	r12, Y+37	; 0x25
    8e86:	de a0       	ldd	r13, Y+38	; 0x26
    8e88:	ef a0       	ldd	r14, Y+39	; 0x27
    8e8a:	f8 a4       	ldd	r15, Y+40	; 0x28
    8e8c:	f0 ea       	ldi	r31, 0xA0	; 160
    8e8e:	cf 1a       	sub	r12, r31
    8e90:	f4 eb       	ldi	r31, 0xB4	; 180
    8e92:	df 0a       	sbc	r13, r31
    8e94:	f4 e4       	ldi	r31, 0x44	; 68
    8e96:	ef 0a       	sbc	r14, r31
    8e98:	f9 e0       	ldi	r31, 0x09	; 9
    8e9a:	ff 0a       	sbc	r15, r31
    8e9c:	8c 0c       	add	r8, r12
    8e9e:	9d 1c       	adc	r9, r13
    8ea0:	ae 1c       	adc	r10, r14
    8ea2:	bf 1c       	adc	r11, r15
    8ea4:	6a 01       	movw	r12, r20
    8ea6:	7b 01       	movw	r14, r22
    8ea8:	c8 26       	eor	r12, r24
    8eaa:	d9 26       	eor	r13, r25
    8eac:	ea 26       	eor	r14, r26
    8eae:	fb 26       	eor	r15, r27
    8eb0:	c0 26       	eor	r12, r16
    8eb2:	d1 26       	eor	r13, r17
    8eb4:	e2 26       	eor	r14, r18
    8eb6:	f3 26       	eor	r15, r19
    8eb8:	8c 0c       	add	r8, r12
    8eba:	9d 1c       	adc	r9, r13
    8ebc:	ae 1c       	adc	r10, r14
    8ebe:	bf 1c       	adc	r11, r15
    8ec0:	64 01       	movw	r12, r8
    8ec2:	45 01       	movw	r8, r10
    8ec4:	56 01       	movw	r10, r12
    8ec6:	80 0e       	add	r8, r16
    8ec8:	91 1e       	adc	r9, r17
    8eca:	a2 1e       	adc	r10, r18
    8ecc:	b3 1e       	adc	r11, r19
    8ece:	c9 a8       	ldd	r12, Y+49	; 0x31
    8ed0:	da a8       	ldd	r13, Y+50	; 0x32
    8ed2:	eb a8       	ldd	r14, Y+51	; 0x33
    8ed4:	fc a8       	ldd	r15, Y+52	; 0x34
    8ed6:	e0 e9       	ldi	r30, 0x90	; 144
    8ed8:	ce 1a       	sub	r12, r30
    8eda:	e3 e4       	ldi	r30, 0x43	; 67
    8edc:	de 0a       	sbc	r13, r30
    8ede:	e0 e4       	ldi	r30, 0x40	; 64
    8ee0:	ee 0a       	sbc	r14, r30
    8ee2:	e1 e4       	ldi	r30, 0x41	; 65
    8ee4:	fe 0a       	sbc	r15, r30
    8ee6:	8c 0d       	add	r24, r12
    8ee8:	9d 1d       	adc	r25, r13
    8eea:	ae 1d       	adc	r26, r14
    8eec:	bf 1d       	adc	r27, r15
    8eee:	68 01       	movw	r12, r16
    8ef0:	79 01       	movw	r14, r18
    8ef2:	c4 26       	eor	r12, r20
    8ef4:	d5 26       	eor	r13, r21
    8ef6:	e6 26       	eor	r14, r22
    8ef8:	f7 26       	eor	r15, r23
    8efa:	c8 24       	eor	r12, r8
    8efc:	d9 24       	eor	r13, r9
    8efe:	ea 24       	eor	r14, r10
    8f00:	fb 24       	eor	r15, r11
    8f02:	8c 0d       	add	r24, r12
    8f04:	9d 1d       	adc	r25, r13
    8f06:	ae 1d       	adc	r26, r14
    8f08:	bf 1d       	adc	r27, r15
    8f0a:	6c 01       	movw	r12, r24
    8f0c:	7d 01       	movw	r14, r26
    8f0e:	0b 2e       	mov	r0, r27
    8f10:	b9 e0       	ldi	r27, 0x09	; 9
    8f12:	f6 94       	lsr	r15
    8f14:	e7 94       	ror	r14
    8f16:	d7 94       	ror	r13
    8f18:	c7 94       	ror	r12
    8f1a:	ba 95       	dec	r27
    8f1c:	d1 f7       	brne	.-12     	; 0x8f12 <__stack+0xd13>
    8f1e:	b0 2d       	mov	r27, r0
    8f20:	07 2e       	mov	r0, r23
    8f22:	77 e1       	ldi	r23, 0x17	; 23
    8f24:	88 0f       	add	r24, r24
    8f26:	99 1f       	adc	r25, r25
    8f28:	aa 1f       	adc	r26, r26
    8f2a:	bb 1f       	adc	r27, r27
    8f2c:	7a 95       	dec	r23
    8f2e:	d1 f7       	brne	.-12     	; 0x8f24 <__stack+0xd25>
    8f30:	70 2d       	mov	r23, r0
    8f32:	8c 29       	or	r24, r12
    8f34:	9d 29       	or	r25, r13
    8f36:	ae 29       	or	r26, r14
    8f38:	bf 29       	or	r27, r15
    8f3a:	88 0d       	add	r24, r8
    8f3c:	99 1d       	adc	r25, r9
    8f3e:	aa 1d       	adc	r26, r10
    8f40:	bb 1d       	adc	r27, r11
    8f42:	21 96       	adiw	r28, 0x01	; 1
    8f44:	4c ac       	ldd	r4, Y+60	; 0x3c
    8f46:	5d ac       	ldd	r5, Y+61	; 0x3d
    8f48:	6e ac       	ldd	r6, Y+62	; 0x3e
    8f4a:	7f ac       	ldd	r7, Y+63	; 0x3f
    8f4c:	21 97       	sbiw	r28, 0x01	; 1
    8f4e:	fa e3       	ldi	r31, 0x3A	; 58
    8f50:	4f 1a       	sub	r4, r31
    8f52:	f1 e8       	ldi	r31, 0x81	; 129
    8f54:	5f 0a       	sbc	r5, r31
    8f56:	f4 e6       	ldi	r31, 0x64	; 100
    8f58:	6f 0a       	sbc	r6, r31
    8f5a:	f7 ed       	ldi	r31, 0xD7	; 215
    8f5c:	7f 0a       	sbc	r7, r31
    8f5e:	44 0d       	add	r20, r4
    8f60:	55 1d       	adc	r21, r5
    8f62:	66 1d       	adc	r22, r6
    8f64:	77 1d       	adc	r23, r7
    8f66:	24 01       	movw	r4, r8
    8f68:	35 01       	movw	r6, r10
    8f6a:	40 26       	eor	r4, r16
    8f6c:	51 26       	eor	r5, r17
    8f6e:	62 26       	eor	r6, r18
    8f70:	73 26       	eor	r7, r19
    8f72:	73 01       	movw	r14, r6
    8f74:	62 01       	movw	r12, r4
    8f76:	c8 26       	eor	r12, r24
    8f78:	d9 26       	eor	r13, r25
    8f7a:	ea 26       	eor	r14, r26
    8f7c:	fb 26       	eor	r15, r27
    8f7e:	2a 01       	movw	r4, r20
    8f80:	3b 01       	movw	r6, r22
    8f82:	4c 0c       	add	r4, r12
    8f84:	5d 1c       	adc	r5, r13
    8f86:	6e 1c       	adc	r6, r14
    8f88:	7f 1c       	adc	r7, r15
    8f8a:	73 01       	movw	r14, r6
    8f8c:	62 01       	movw	r12, r4
    8f8e:	cc 0c       	add	r12, r12
    8f90:	dd 1c       	adc	r13, r13
    8f92:	ee 1c       	adc	r14, r14
    8f94:	ff 1c       	adc	r15, r15
    8f96:	cc 0c       	add	r12, r12
    8f98:	dd 1c       	adc	r13, r13
    8f9a:	ee 1c       	adc	r14, r14
    8f9c:	ff 1c       	adc	r15, r15
    8f9e:	cc 0c       	add	r12, r12
    8fa0:	dd 1c       	adc	r13, r13
    8fa2:	ee 1c       	adc	r14, r14
    8fa4:	ff 1c       	adc	r15, r15
    8fa6:	cc 0c       	add	r12, r12
    8fa8:	dd 1c       	adc	r13, r13
    8faa:	ee 1c       	adc	r14, r14
    8fac:	ff 1c       	adc	r15, r15
    8fae:	03 2e       	mov	r0, r19
    8fb0:	3c e1       	ldi	r19, 0x1C	; 28
    8fb2:	76 94       	lsr	r7
    8fb4:	67 94       	ror	r6
    8fb6:	57 94       	ror	r5
    8fb8:	47 94       	ror	r4
    8fba:	3a 95       	dec	r19
    8fbc:	d1 f7       	brne	.-12     	; 0x8fb2 <__stack+0xdb3>
    8fbe:	30 2d       	mov	r19, r0
    8fc0:	4c 28       	or	r4, r12
    8fc2:	5d 28       	or	r5, r13
    8fc4:	6e 28       	or	r6, r14
    8fc6:	7f 28       	or	r7, r15
    8fc8:	48 0e       	add	r4, r24
    8fca:	59 1e       	adc	r5, r25
    8fcc:	6a 1e       	adc	r6, r26
    8fce:	7b 1e       	adc	r7, r27
    8fd0:	49 85       	ldd	r20, Y+9	; 0x09
    8fd2:	5a 85       	ldd	r21, Y+10	; 0x0a
    8fd4:	6b 85       	ldd	r22, Y+11	; 0x0b
    8fd6:	7c 85       	ldd	r23, Y+12	; 0x0c
    8fd8:	46 50       	subi	r20, 0x06	; 6
    8fda:	58 4d       	sbci	r21, 0xD8	; 216
    8fdc:	6e 45       	sbci	r22, 0x5E	; 94
    8fde:	75 41       	sbci	r23, 0x15	; 21
    8fe0:	04 0f       	add	r16, r20
    8fe2:	15 1f       	adc	r17, r21
    8fe4:	26 1f       	adc	r18, r22
    8fe6:	37 1f       	adc	r19, r23
    8fe8:	ac 01       	movw	r20, r24
    8fea:	bd 01       	movw	r22, r26
    8fec:	48 25       	eor	r20, r8
    8fee:	59 25       	eor	r21, r9
    8ff0:	6a 25       	eor	r22, r10
    8ff2:	7b 25       	eor	r23, r11
    8ff4:	6a 01       	movw	r12, r20
    8ff6:	7b 01       	movw	r14, r22
    8ff8:	c4 24       	eor	r12, r4
    8ffa:	d5 24       	eor	r13, r5
    8ffc:	e6 24       	eor	r14, r6
    8ffe:	f7 24       	eor	r15, r7
    9000:	b9 01       	movw	r22, r18
    9002:	a8 01       	movw	r20, r16
    9004:	4c 0d       	add	r20, r12
    9006:	5d 1d       	adc	r21, r13
    9008:	6e 1d       	adc	r22, r14
    900a:	7f 1d       	adc	r23, r15
    900c:	6a 01       	movw	r12, r20
    900e:	7b 01       	movw	r14, r22
    9010:	0b 2e       	mov	r0, r27
    9012:	bb e0       	ldi	r27, 0x0B	; 11
    9014:	cc 0c       	add	r12, r12
    9016:	dd 1c       	adc	r13, r13
    9018:	ee 1c       	adc	r14, r14
    901a:	ff 1c       	adc	r15, r15
    901c:	ba 95       	dec	r27
    901e:	d1 f7       	brne	.-12     	; 0x9014 <__stack+0xe15>
    9020:	b0 2d       	mov	r27, r0
    9022:	03 2e       	mov	r0, r19
    9024:	35 e1       	ldi	r19, 0x15	; 21
    9026:	76 95       	lsr	r23
    9028:	67 95       	ror	r22
    902a:	57 95       	ror	r21
    902c:	47 95       	ror	r20
    902e:	3a 95       	dec	r19
    9030:	d1 f7       	brne	.-12     	; 0x9026 <__stack+0xe27>
    9032:	30 2d       	mov	r19, r0
    9034:	4c 29       	or	r20, r12
    9036:	5d 29       	or	r21, r13
    9038:	6e 29       	or	r22, r14
    903a:	7f 29       	or	r23, r15
    903c:	44 0d       	add	r20, r4
    903e:	55 1d       	adc	r21, r5
    9040:	66 1d       	adc	r22, r6
    9042:	77 1d       	adc	r23, r7
    9044:	0d 89       	ldd	r16, Y+21	; 0x15
    9046:	1e 89       	ldd	r17, Y+22	; 0x16
    9048:	2f 89       	ldd	r18, Y+23	; 0x17
    904a:	38 8d       	ldd	r19, Y+24	; 0x18
    904c:	0b 57       	subi	r16, 0x7B	; 123
    904e:	1f 4c       	sbci	r17, 0xCF	; 207
    9050:	20 41       	sbci	r18, 0x10	; 16
    9052:	3b 42       	sbci	r19, 0x2B	; 43
    9054:	80 0e       	add	r8, r16
    9056:	91 1e       	adc	r9, r17
    9058:	a2 1e       	adc	r10, r18
    905a:	b3 1e       	adc	r11, r19
    905c:	93 01       	movw	r18, r6
    905e:	82 01       	movw	r16, r4
    9060:	08 27       	eor	r16, r24
    9062:	19 27       	eor	r17, r25
    9064:	2a 27       	eor	r18, r26
    9066:	3b 27       	eor	r19, r27
    9068:	04 27       	eor	r16, r20
    906a:	15 27       	eor	r17, r21
    906c:	26 27       	eor	r18, r22
    906e:	37 27       	eor	r19, r23
    9070:	80 0e       	add	r8, r16
    9072:	91 1e       	adc	r9, r17
    9074:	a2 1e       	adc	r10, r18
    9076:	b3 1e       	adc	r11, r19
    9078:	64 01       	movw	r12, r8
    907a:	45 01       	movw	r8, r10
    907c:	56 01       	movw	r10, r12
    907e:	84 0e       	add	r8, r20
    9080:	95 1e       	adc	r9, r21
    9082:	a6 1e       	adc	r10, r22
    9084:	b7 1e       	adc	r11, r23
    9086:	c9 a0       	ldd	r12, Y+33	; 0x21
    9088:	da a0       	ldd	r13, Y+34	; 0x22
    908a:	eb a0       	ldd	r14, Y+35	; 0x23
    908c:	fc a0       	ldd	r15, Y+36	; 0x24
    908e:	0b ef       	ldi	r16, 0xFB	; 251
    9090:	c0 1a       	sub	r12, r16
    9092:	02 ee       	ldi	r16, 0xE2	; 226
    9094:	d0 0a       	sbc	r13, r16
    9096:	07 e7       	ldi	r16, 0x77	; 119
    9098:	e0 0a       	sbc	r14, r16
    909a:	0b ef       	ldi	r16, 0xFB	; 251
    909c:	f0 0a       	sbc	r15, r16
    909e:	8c 0d       	add	r24, r12
    90a0:	9d 1d       	adc	r25, r13
    90a2:	ae 1d       	adc	r26, r14
    90a4:	bf 1d       	adc	r27, r15
    90a6:	6a 01       	movw	r12, r20
    90a8:	7b 01       	movw	r14, r22
    90aa:	c4 24       	eor	r12, r4
    90ac:	d5 24       	eor	r13, r5
    90ae:	e6 24       	eor	r14, r6
    90b0:	f7 24       	eor	r15, r7
    90b2:	97 01       	movw	r18, r14
    90b4:	86 01       	movw	r16, r12
    90b6:	08 25       	eor	r16, r8
    90b8:	19 25       	eor	r17, r9
    90ba:	2a 25       	eor	r18, r10
    90bc:	3b 25       	eor	r19, r11
    90be:	6c 01       	movw	r12, r24
    90c0:	7d 01       	movw	r14, r26
    90c2:	c0 0e       	add	r12, r16
    90c4:	d1 1e       	adc	r13, r17
    90c6:	e2 1e       	adc	r14, r18
    90c8:	f3 1e       	adc	r15, r19
    90ca:	97 01       	movw	r18, r14
    90cc:	86 01       	movw	r16, r12
    90ce:	0f 2e       	mov	r0, r31
    90d0:	f9 e0       	ldi	r31, 0x09	; 9
    90d2:	36 95       	lsr	r19
    90d4:	27 95       	ror	r18
    90d6:	17 95       	ror	r17
    90d8:	07 95       	ror	r16
    90da:	fa 95       	dec	r31
    90dc:	d1 f7       	brne	.-12     	; 0x90d2 <__stack+0xed3>
    90de:	f0 2d       	mov	r31, r0
    90e0:	0b 2e       	mov	r0, r27
    90e2:	b7 e1       	ldi	r27, 0x17	; 23
    90e4:	cc 0c       	add	r12, r12
    90e6:	dd 1c       	adc	r13, r13
    90e8:	ee 1c       	adc	r14, r14
    90ea:	ff 1c       	adc	r15, r15
    90ec:	ba 95       	dec	r27
    90ee:	d1 f7       	brne	.-12     	; 0x90e4 <__stack+0xee5>
    90f0:	b0 2d       	mov	r27, r0
    90f2:	c0 2a       	or	r12, r16
    90f4:	d1 2a       	or	r13, r17
    90f6:	e2 2a       	or	r14, r18
    90f8:	f3 2a       	or	r15, r19
    90fa:	c8 0c       	add	r12, r8
    90fc:	d9 1c       	adc	r13, r9
    90fe:	ea 1c       	adc	r14, r10
    9100:	fb 1c       	adc	r15, r11
    9102:	8d a5       	ldd	r24, Y+45	; 0x2d
    9104:	9e a5       	ldd	r25, Y+46	; 0x2e
    9106:	af a5       	ldd	r26, Y+47	; 0x2f
    9108:	b8 a9       	ldd	r27, Y+48	; 0x30
    910a:	87 5c       	subi	r24, 0xC7	; 199
    910c:	9f 42       	sbci	r25, 0x2F	; 47
    910e:	ab 42       	sbci	r26, 0x2B	; 43
    9110:	b6 42       	sbci	r27, 0x26	; 38
    9112:	48 0e       	add	r4, r24
    9114:	59 1e       	adc	r5, r25
    9116:	6a 1e       	adc	r6, r26
    9118:	7b 1e       	adc	r7, r27
    911a:	95 01       	movw	r18, r10
    911c:	84 01       	movw	r16, r8
    911e:	04 27       	eor	r16, r20
    9120:	15 27       	eor	r17, r21
    9122:	26 27       	eor	r18, r22
    9124:	37 27       	eor	r19, r23
    9126:	0c 25       	eor	r16, r12
    9128:	1d 25       	eor	r17, r13
    912a:	2e 25       	eor	r18, r14
    912c:	3f 25       	eor	r19, r15
    912e:	40 0e       	add	r4, r16
    9130:	51 1e       	adc	r5, r17
    9132:	62 1e       	adc	r6, r18
    9134:	73 1e       	adc	r7, r19
    9136:	93 01       	movw	r18, r6
    9138:	82 01       	movw	r16, r4
    913a:	00 0f       	add	r16, r16
    913c:	11 1f       	adc	r17, r17
    913e:	22 1f       	adc	r18, r18
    9140:	33 1f       	adc	r19, r19
    9142:	00 0f       	add	r16, r16
    9144:	11 1f       	adc	r17, r17
    9146:	22 1f       	adc	r18, r18
    9148:	33 1f       	adc	r19, r19
    914a:	00 0f       	add	r16, r16
    914c:	11 1f       	adc	r17, r17
    914e:	22 1f       	adc	r18, r18
    9150:	33 1f       	adc	r19, r19
    9152:	00 0f       	add	r16, r16
    9154:	11 1f       	adc	r17, r17
    9156:	22 1f       	adc	r18, r18
    9158:	33 1f       	adc	r19, r19
    915a:	03 2e       	mov	r0, r19
    915c:	3c e1       	ldi	r19, 0x1C	; 28
    915e:	76 94       	lsr	r7
    9160:	67 94       	ror	r6
    9162:	57 94       	ror	r5
    9164:	47 94       	ror	r4
    9166:	3a 95       	dec	r19
    9168:	d1 f7       	brne	.-12     	; 0x915e <__stack+0xf5f>
    916a:	30 2d       	mov	r19, r0
    916c:	40 2a       	or	r4, r16
    916e:	51 2a       	or	r5, r17
    9170:	62 2a       	or	r6, r18
    9172:	73 2a       	or	r7, r19
    9174:	4c 0c       	add	r4, r12
    9176:	5d 1c       	adc	r5, r13
    9178:	6e 1c       	adc	r6, r14
    917a:	7f 1c       	adc	r7, r15
    917c:	89 ad       	ldd	r24, Y+57	; 0x39
    917e:	9a ad       	ldd	r25, Y+58	; 0x3a
    9180:	ab ad       	ldd	r26, Y+59	; 0x3b
    9182:	bc ad       	ldd	r27, Y+60	; 0x3c
    9184:	8b 51       	subi	r24, 0x1B	; 27
    9186:	96 46       	sbci	r25, 0x66	; 102
    9188:	a4 42       	sbci	r26, 0x24	; 36
    918a:	b9 41       	sbci	r27, 0x19	; 25
    918c:	48 0f       	add	r20, r24
    918e:	59 1f       	adc	r21, r25
    9190:	6a 1f       	adc	r22, r26
    9192:	7b 1f       	adc	r23, r27
    9194:	d7 01       	movw	r26, r14
    9196:	c6 01       	movw	r24, r12
    9198:	88 25       	eor	r24, r8
    919a:	99 25       	eor	r25, r9
    919c:	aa 25       	eor	r26, r10
    919e:	bb 25       	eor	r27, r11
    91a0:	84 25       	eor	r24, r4
    91a2:	95 25       	eor	r25, r5
    91a4:	a6 25       	eor	r26, r6
    91a6:	b7 25       	eor	r27, r7
    91a8:	48 0f       	add	r20, r24
    91aa:	59 1f       	adc	r21, r25
    91ac:	6a 1f       	adc	r22, r26
    91ae:	7b 1f       	adc	r23, r27
    91b0:	db 01       	movw	r26, r22
    91b2:	ca 01       	movw	r24, r20
    91b4:	07 2e       	mov	r0, r23
    91b6:	7b e0       	ldi	r23, 0x0B	; 11
    91b8:	88 0f       	add	r24, r24
    91ba:	99 1f       	adc	r25, r25
    91bc:	aa 1f       	adc	r26, r26
    91be:	bb 1f       	adc	r27, r27
    91c0:	7a 95       	dec	r23
    91c2:	d1 f7       	brne	.-12     	; 0x91b8 <__stack+0xfb9>
    91c4:	70 2d       	mov	r23, r0
    91c6:	03 2e       	mov	r0, r19
    91c8:	35 e1       	ldi	r19, 0x15	; 21
    91ca:	76 95       	lsr	r23
    91cc:	67 95       	ror	r22
    91ce:	57 95       	ror	r21
    91d0:	47 95       	ror	r20
    91d2:	3a 95       	dec	r19
    91d4:	d1 f7       	brne	.-12     	; 0x91ca <__stack+0xfcb>
    91d6:	30 2d       	mov	r19, r0
    91d8:	48 2b       	or	r20, r24
    91da:	59 2b       	or	r21, r25
    91dc:	6a 2b       	or	r22, r26
    91de:	7b 2b       	or	r23, r27
    91e0:	44 0d       	add	r20, r4
    91e2:	55 1d       	adc	r21, r5
    91e4:	66 1d       	adc	r22, r6
    91e6:	77 1d       	adc	r23, r7
    91e8:	29 96       	adiw	r28, 0x09	; 9
    91ea:	8c ad       	ldd	r24, Y+60	; 0x3c
    91ec:	9d ad       	ldd	r25, Y+61	; 0x3d
    91ee:	ae ad       	ldd	r26, Y+62	; 0x3e
    91f0:	bf ad       	ldd	r27, Y+63	; 0x3f
    91f2:	29 97       	sbiw	r28, 0x09	; 9
    91f4:	88 50       	subi	r24, 0x08	; 8
    91f6:	93 48       	sbci	r25, 0x83	; 131
    91f8:	ad 45       	sbci	r26, 0x5D	; 93
    91fa:	b0 4e       	sbci	r27, 0xE0	; 224
    91fc:	88 0e       	add	r8, r24
    91fe:	99 1e       	adc	r9, r25
    9200:	aa 1e       	adc	r10, r26
    9202:	bb 1e       	adc	r11, r27
    9204:	d3 01       	movw	r26, r6
    9206:	c2 01       	movw	r24, r4
    9208:	8c 25       	eor	r24, r12
    920a:	9d 25       	eor	r25, r13
    920c:	ae 25       	eor	r26, r14
    920e:	bf 25       	eor	r27, r15
    9210:	84 27       	eor	r24, r20
    9212:	95 27       	eor	r25, r21
    9214:	a6 27       	eor	r26, r22
    9216:	b7 27       	eor	r27, r23
    9218:	88 0e       	add	r8, r24
    921a:	99 1e       	adc	r9, r25
    921c:	aa 1e       	adc	r10, r26
    921e:	bb 1e       	adc	r11, r27
    9220:	94 01       	movw	r18, r8
    9222:	45 01       	movw	r8, r10
    9224:	59 01       	movw	r10, r18
    9226:	84 0e       	add	r8, r20
    9228:	95 1e       	adc	r9, r21
    922a:	a6 1e       	adc	r10, r22
    922c:	b7 1e       	adc	r11, r23
    922e:	89 89       	ldd	r24, Y+17	; 0x11
    9230:	9a 89       	ldd	r25, Y+18	; 0x12
    9232:	ab 89       	ldd	r26, Y+19	; 0x13
    9234:	bc 89       	ldd	r27, Y+20	; 0x14
    9236:	8b 59       	subi	r24, 0x9B	; 155
    9238:	99 4a       	sbci	r25, 0xA9	; 169
    923a:	a3 45       	sbci	r26, 0x53	; 83
    923c:	bb 43       	sbci	r27, 0x3B	; 59
    923e:	c8 0e       	add	r12, r24
    9240:	d9 1e       	adc	r13, r25
    9242:	ea 1e       	adc	r14, r26
    9244:	fb 1e       	adc	r15, r27
    9246:	8a 01       	movw	r16, r20
    9248:	9b 01       	movw	r18, r22
    924a:	04 25       	eor	r16, r4
    924c:	15 25       	eor	r17, r5
    924e:	26 25       	eor	r18, r6
    9250:	37 25       	eor	r19, r7
    9252:	08 25       	eor	r16, r8
    9254:	19 25       	eor	r17, r9
    9256:	2a 25       	eor	r18, r10
    9258:	3b 25       	eor	r19, r11
    925a:	c0 0e       	add	r12, r16
    925c:	d1 1e       	adc	r13, r17
    925e:	e2 1e       	adc	r14, r18
    9260:	f3 1e       	adc	r15, r19
    9262:	97 01       	movw	r18, r14
    9264:	86 01       	movw	r16, r12
    9266:	0f 2e       	mov	r0, r31
    9268:	f9 e0       	ldi	r31, 0x09	; 9
    926a:	36 95       	lsr	r19
    926c:	27 95       	ror	r18
    926e:	17 95       	ror	r17
    9270:	07 95       	ror	r16
    9272:	fa 95       	dec	r31
    9274:	d1 f7       	brne	.-12     	; 0x926a <__stack+0x106b>
    9276:	f0 2d       	mov	r31, r0
    9278:	0b 2e       	mov	r0, r27
    927a:	b7 e1       	ldi	r27, 0x17	; 23
    927c:	cc 0c       	add	r12, r12
    927e:	dd 1c       	adc	r13, r13
    9280:	ee 1c       	adc	r14, r14
    9282:	ff 1c       	adc	r15, r15
    9284:	ba 95       	dec	r27
    9286:	d1 f7       	brne	.-12     	; 0x927c <__stack+0x107d>
    9288:	b0 2d       	mov	r27, r0
    928a:	c0 2a       	or	r12, r16
    928c:	d1 2a       	or	r13, r17
    928e:	e2 2a       	or	r14, r18
    9290:	f3 2a       	or	r15, r19
    9292:	c8 0c       	add	r12, r8
    9294:	d9 1c       	adc	r13, r9
    9296:	ea 1c       	adc	r14, r10
    9298:	fb 1c       	adc	r15, r11
    929a:	89 85       	ldd	r24, Y+9	; 0x09
    929c:	9a 85       	ldd	r25, Y+10	; 0x0a
    929e:	ab 85       	ldd	r26, Y+11	; 0x0b
    92a0:	bc 85       	ldd	r27, Y+12	; 0x0c
    92a2:	8c 5b       	subi	r24, 0xBC	; 188
    92a4:	9d 4d       	sbci	r25, 0xDD	; 221
    92a6:	a6 4d       	sbci	r26, 0xD6	; 214
    92a8:	bb 40       	sbci	r27, 0x0B	; 11
    92aa:	48 0e       	add	r4, r24
    92ac:	59 1e       	adc	r5, r25
    92ae:	6a 1e       	adc	r6, r26
    92b0:	7b 1e       	adc	r7, r27
    92b2:	db 01       	movw	r26, r22
    92b4:	ca 01       	movw	r24, r20
    92b6:	80 95       	com	r24
    92b8:	90 95       	com	r25
    92ba:	a0 95       	com	r26
    92bc:	b0 95       	com	r27
    92be:	8c 29       	or	r24, r12
    92c0:	9d 29       	or	r25, r13
    92c2:	ae 29       	or	r26, r14
    92c4:	bf 29       	or	r27, r15
    92c6:	8c 01       	movw	r16, r24
    92c8:	9d 01       	movw	r18, r26
    92ca:	08 25       	eor	r16, r8
    92cc:	19 25       	eor	r17, r9
    92ce:	2a 25       	eor	r18, r10
    92d0:	3b 25       	eor	r19, r11
    92d2:	d3 01       	movw	r26, r6
    92d4:	c2 01       	movw	r24, r4
    92d6:	80 0f       	add	r24, r16
    92d8:	91 1f       	adc	r25, r17
    92da:	a2 1f       	adc	r26, r18
    92dc:	b3 1f       	adc	r27, r19
    92de:	8c 01       	movw	r16, r24
    92e0:	9d 01       	movw	r18, r26
    92e2:	00 0f       	add	r16, r16
    92e4:	11 1f       	adc	r17, r17
    92e6:	22 1f       	adc	r18, r18
    92e8:	33 1f       	adc	r19, r19
    92ea:	00 0f       	add	r16, r16
    92ec:	11 1f       	adc	r17, r17
    92ee:	22 1f       	adc	r18, r18
    92f0:	33 1f       	adc	r19, r19
    92f2:	00 0f       	add	r16, r16
    92f4:	11 1f       	adc	r17, r17
    92f6:	22 1f       	adc	r18, r18
    92f8:	33 1f       	adc	r19, r19
    92fa:	00 0f       	add	r16, r16
    92fc:	11 1f       	adc	r17, r17
    92fe:	22 1f       	adc	r18, r18
    9300:	33 1f       	adc	r19, r19
    9302:	00 0f       	add	r16, r16
    9304:	11 1f       	adc	r17, r17
    9306:	22 1f       	adc	r18, r18
    9308:	33 1f       	adc	r19, r19
    930a:	00 0f       	add	r16, r16
    930c:	11 1f       	adc	r17, r17
    930e:	22 1f       	adc	r18, r18
    9310:	33 1f       	adc	r19, r19
    9312:	07 2e       	mov	r0, r23
    9314:	7a e1       	ldi	r23, 0x1A	; 26
    9316:	b6 95       	lsr	r27
    9318:	a7 95       	ror	r26
    931a:	97 95       	ror	r25
    931c:	87 95       	ror	r24
    931e:	7a 95       	dec	r23
    9320:	d1 f7       	brne	.-12     	; 0x9316 <__stack+0x1117>
    9322:	70 2d       	mov	r23, r0
    9324:	80 2b       	or	r24, r16
    9326:	91 2b       	or	r25, r17
    9328:	a2 2b       	or	r26, r18
    932a:	b3 2b       	or	r27, r19
    932c:	8c 0d       	add	r24, r12
    932e:	9d 1d       	adc	r25, r13
    9330:	ae 1d       	adc	r26, r14
    9332:	bf 1d       	adc	r27, r15
    9334:	0d a1       	ldd	r16, Y+37	; 0x25
    9336:	1e a1       	ldd	r17, Y+38	; 0x26
    9338:	2f a1       	ldd	r18, Y+39	; 0x27
    933a:	38 a5       	ldd	r19, Y+40	; 0x28
    933c:	09 56       	subi	r16, 0x69	; 105
    933e:	11 09       	sbc	r17, r1
    9340:	25 4d       	sbci	r18, 0xD5	; 213
    9342:	3c 4b       	sbci	r19, 0xBC	; 188
    9344:	40 0f       	add	r20, r16
    9346:	51 1f       	adc	r21, r17
    9348:	62 1f       	adc	r22, r18
    934a:	73 1f       	adc	r23, r19
    934c:	95 01       	movw	r18, r10
    934e:	84 01       	movw	r16, r8
    9350:	00 95       	com	r16
    9352:	10 95       	com	r17
    9354:	20 95       	com	r18
    9356:	30 95       	com	r19
    9358:	08 2b       	or	r16, r24
    935a:	19 2b       	or	r17, r25
    935c:	2a 2b       	or	r18, r26
    935e:	3b 2b       	or	r19, r27
    9360:	0c 25       	eor	r16, r12
    9362:	1d 25       	eor	r17, r13
    9364:	2e 25       	eor	r18, r14
    9366:	3f 25       	eor	r19, r15
    9368:	40 0f       	add	r20, r16
    936a:	51 1f       	adc	r21, r17
    936c:	62 1f       	adc	r22, r18
    936e:	73 1f       	adc	r23, r19
    9370:	8a 01       	movw	r16, r20
    9372:	9b 01       	movw	r18, r22
    9374:	0f 2e       	mov	r0, r31
    9376:	fa e0       	ldi	r31, 0x0A	; 10
    9378:	00 0f       	add	r16, r16
    937a:	11 1f       	adc	r17, r17
    937c:	22 1f       	adc	r18, r18
    937e:	33 1f       	adc	r19, r19
    9380:	fa 95       	dec	r31
    9382:	d1 f7       	brne	.-12     	; 0x9378 <__stack+0x1179>
    9384:	f0 2d       	mov	r31, r0
    9386:	03 2e       	mov	r0, r19
    9388:	36 e1       	ldi	r19, 0x16	; 22
    938a:	76 95       	lsr	r23
    938c:	67 95       	ror	r22
    938e:	57 95       	ror	r21
    9390:	47 95       	ror	r20
    9392:	3a 95       	dec	r19
    9394:	d1 f7       	brne	.-12     	; 0x938a <__stack+0x118b>
    9396:	30 2d       	mov	r19, r0
    9398:	40 2b       	or	r20, r16
    939a:	51 2b       	or	r21, r17
    939c:	62 2b       	or	r22, r18
    939e:	73 2b       	or	r23, r19
    93a0:	48 0f       	add	r20, r24
    93a2:	59 1f       	adc	r21, r25
    93a4:	6a 1f       	adc	r22, r26
    93a6:	7b 1f       	adc	r23, r27
    93a8:	25 96       	adiw	r28, 0x05	; 5
    93aa:	0c ad       	ldd	r16, Y+60	; 0x3c
    93ac:	1d ad       	ldd	r17, Y+61	; 0x3d
    93ae:	2e ad       	ldd	r18, Y+62	; 0x3e
    93b0:	3f ad       	ldd	r19, Y+63	; 0x3f
    93b2:	25 97       	sbiw	r28, 0x05	; 5
    93b4:	09 55       	subi	r16, 0x59	; 89
    93b6:	1c 4d       	sbci	r17, 0xDC	; 220
    93b8:	2b 46       	sbci	r18, 0x6B	; 107
    93ba:	34 45       	sbci	r19, 0x54	; 84
    93bc:	80 0e       	add	r8, r16
    93be:	91 1e       	adc	r9, r17
    93c0:	a2 1e       	adc	r10, r18
    93c2:	b3 1e       	adc	r11, r19
    93c4:	26 01       	movw	r4, r12
    93c6:	37 01       	movw	r6, r14
    93c8:	40 94       	com	r4
    93ca:	50 94       	com	r5
    93cc:	60 94       	com	r6
    93ce:	70 94       	com	r7
    93d0:	44 2a       	or	r4, r20
    93d2:	55 2a       	or	r5, r21
    93d4:	66 2a       	or	r6, r22
    93d6:	77 2a       	or	r7, r23
    93d8:	48 26       	eor	r4, r24
    93da:	59 26       	eor	r5, r25
    93dc:	6a 26       	eor	r6, r26
    93de:	7b 26       	eor	r7, r27
    93e0:	84 0c       	add	r8, r4
    93e2:	95 1c       	adc	r9, r5
    93e4:	a6 1c       	adc	r10, r6
    93e6:	b7 1c       	adc	r11, r7
    93e8:	24 01       	movw	r4, r8
    93ea:	35 01       	movw	r6, r10
    93ec:	03 2e       	mov	r0, r19
    93ee:	3f e0       	ldi	r19, 0x0F	; 15
    93f0:	44 0c       	add	r4, r4
    93f2:	55 1c       	adc	r5, r5
    93f4:	66 1c       	adc	r6, r6
    93f6:	77 1c       	adc	r7, r7
    93f8:	3a 95       	dec	r19
    93fa:	d1 f7       	brne	.-12     	; 0x93f0 <__stack+0x11f1>
    93fc:	30 2d       	mov	r19, r0
    93fe:	07 2e       	mov	r0, r23
    9400:	71 e1       	ldi	r23, 0x11	; 17
    9402:	b6 94       	lsr	r11
    9404:	a7 94       	ror	r10
    9406:	97 94       	ror	r9
    9408:	87 94       	ror	r8
    940a:	7a 95       	dec	r23
    940c:	d1 f7       	brne	.-12     	; 0x9402 <__stack+0x1203>
    940e:	70 2d       	mov	r23, r0
    9410:	84 28       	or	r8, r4
    9412:	95 28       	or	r9, r5
    9414:	a6 28       	or	r10, r6
    9416:	b7 28       	or	r11, r7
    9418:	84 0e       	add	r8, r20
    941a:	95 1e       	adc	r9, r21
    941c:	a6 1e       	adc	r10, r22
    941e:	b7 1e       	adc	r11, r23
    9420:	0d 8d       	ldd	r16, Y+29	; 0x1d
    9422:	1e 8d       	ldd	r17, Y+30	; 0x1e
    9424:	2f 8d       	ldd	r18, Y+31	; 0x1f
    9426:	38 a1       	ldd	r19, Y+32	; 0x20
    9428:	07 5c       	subi	r16, 0xC7	; 199
    942a:	1f 45       	sbci	r17, 0x5F	; 95
    942c:	2c 46       	sbci	r18, 0x6C	; 108
    942e:	33 40       	sbci	r19, 0x03	; 3
    9430:	c0 0e       	add	r12, r16
    9432:	d1 1e       	adc	r13, r17
    9434:	e2 1e       	adc	r14, r18
    9436:	f3 1e       	adc	r15, r19
    9438:	8c 01       	movw	r16, r24
    943a:	9d 01       	movw	r18, r26
    943c:	00 95       	com	r16
    943e:	10 95       	com	r17
    9440:	20 95       	com	r18
    9442:	30 95       	com	r19
    9444:	08 29       	or	r16, r8
    9446:	19 29       	or	r17, r9
    9448:	2a 29       	or	r18, r10
    944a:	3b 29       	or	r19, r11
    944c:	04 27       	eor	r16, r20
    944e:	15 27       	eor	r17, r21
    9450:	26 27       	eor	r18, r22
    9452:	37 27       	eor	r19, r23
    9454:	c0 0e       	add	r12, r16
    9456:	d1 1e       	adc	r13, r17
    9458:	e2 1e       	adc	r14, r18
    945a:	f3 1e       	adc	r15, r19
    945c:	97 01       	movw	r18, r14
    945e:	86 01       	movw	r16, r12
    9460:	0f 2e       	mov	r0, r31
    9462:	fb e0       	ldi	r31, 0x0B	; 11
    9464:	36 95       	lsr	r19
    9466:	27 95       	ror	r18
    9468:	17 95       	ror	r17
    946a:	07 95       	ror	r16
    946c:	fa 95       	dec	r31
    946e:	d1 f7       	brne	.-12     	; 0x9464 <__stack+0x1265>
    9470:	f0 2d       	mov	r31, r0
    9472:	0b 2e       	mov	r0, r27
    9474:	b5 e1       	ldi	r27, 0x15	; 21
    9476:	cc 0c       	add	r12, r12
    9478:	dd 1c       	adc	r13, r13
    947a:	ee 1c       	adc	r14, r14
    947c:	ff 1c       	adc	r15, r15
    947e:	ba 95       	dec	r27
    9480:	d1 f7       	brne	.-12     	; 0x9476 <__stack+0x1277>
    9482:	b0 2d       	mov	r27, r0
    9484:	c0 2a       	or	r12, r16
    9486:	d1 2a       	or	r13, r17
    9488:	e2 2a       	or	r14, r18
    948a:	f3 2a       	or	r15, r19
    948c:	c8 0c       	add	r12, r8
    948e:	d9 1c       	adc	r13, r9
    9490:	ea 1c       	adc	r14, r10
    9492:	fb 1c       	adc	r15, r11
    9494:	09 ad       	ldd	r16, Y+57	; 0x39
    9496:	1a ad       	ldd	r17, Y+58	; 0x3a
    9498:	2b ad       	ldd	r18, Y+59	; 0x3b
    949a:	3c ad       	ldd	r19, Y+60	; 0x3c
    949c:	0d 53       	subi	r16, 0x3D	; 61
    949e:	16 4a       	sbci	r17, 0xA6	; 166
    94a0:	24 4a       	sbci	r18, 0xA4	; 164
    94a2:	3a 49       	sbci	r19, 0x9A	; 154
    94a4:	80 0f       	add	r24, r16
    94a6:	91 1f       	adc	r25, r17
    94a8:	a2 1f       	adc	r26, r18
    94aa:	b3 1f       	adc	r27, r19
    94ac:	2a 01       	movw	r4, r20
    94ae:	3b 01       	movw	r6, r22
    94b0:	40 94       	com	r4
    94b2:	50 94       	com	r5
    94b4:	60 94       	com	r6
    94b6:	70 94       	com	r7
    94b8:	4c 28       	or	r4, r12
    94ba:	5d 28       	or	r5, r13
    94bc:	6e 28       	or	r6, r14
    94be:	7f 28       	or	r7, r15
    94c0:	48 24       	eor	r4, r8
    94c2:	59 24       	eor	r5, r9
    94c4:	6a 24       	eor	r6, r10
    94c6:	7b 24       	eor	r7, r11
    94c8:	84 0d       	add	r24, r4
    94ca:	95 1d       	adc	r25, r5
    94cc:	a6 1d       	adc	r26, r6
    94ce:	b7 1d       	adc	r27, r7
    94d0:	8c 01       	movw	r16, r24
    94d2:	9d 01       	movw	r18, r26
    94d4:	00 0f       	add	r16, r16
    94d6:	11 1f       	adc	r17, r17
    94d8:	22 1f       	adc	r18, r18
    94da:	33 1f       	adc	r19, r19
    94dc:	00 0f       	add	r16, r16
    94de:	11 1f       	adc	r17, r17
    94e0:	22 1f       	adc	r18, r18
    94e2:	33 1f       	adc	r19, r19
    94e4:	00 0f       	add	r16, r16
    94e6:	11 1f       	adc	r17, r17
    94e8:	22 1f       	adc	r18, r18
    94ea:	33 1f       	adc	r19, r19
    94ec:	00 0f       	add	r16, r16
    94ee:	11 1f       	adc	r17, r17
    94f0:	22 1f       	adc	r18, r18
    94f2:	33 1f       	adc	r19, r19
    94f4:	00 0f       	add	r16, r16
    94f6:	11 1f       	adc	r17, r17
    94f8:	22 1f       	adc	r18, r18
    94fa:	33 1f       	adc	r19, r19
    94fc:	00 0f       	add	r16, r16
    94fe:	11 1f       	adc	r17, r17
    9500:	22 1f       	adc	r18, r18
    9502:	33 1f       	adc	r19, r19
    9504:	07 2e       	mov	r0, r23
    9506:	7a e1       	ldi	r23, 0x1A	; 26
    9508:	b6 95       	lsr	r27
    950a:	a7 95       	ror	r26
    950c:	97 95       	ror	r25
    950e:	87 95       	ror	r24
    9510:	7a 95       	dec	r23
    9512:	d1 f7       	brne	.-12     	; 0x9508 <__stack+0x1309>
    9514:	70 2d       	mov	r23, r0
    9516:	80 2b       	or	r24, r16
    9518:	91 2b       	or	r25, r17
    951a:	a2 2b       	or	r26, r18
    951c:	b3 2b       	or	r27, r19
    951e:	8c 0d       	add	r24, r12
    9520:	9d 1d       	adc	r25, r13
    9522:	ae 1d       	adc	r26, r14
    9524:	bf 1d       	adc	r27, r15
    9526:	0d 89       	ldd	r16, Y+21	; 0x15
    9528:	1e 89       	ldd	r17, Y+22	; 0x16
    952a:	2f 89       	ldd	r18, Y+23	; 0x17
    952c:	38 8d       	ldd	r19, Y+24	; 0x18
    952e:	0e 56       	subi	r16, 0x6E	; 110
    9530:	13 43       	sbci	r17, 0x33	; 51
    9532:	23 4f       	sbci	r18, 0xF3	; 243
    9534:	30 47       	sbci	r19, 0x70	; 112
    9536:	40 0f       	add	r20, r16
    9538:	51 1f       	adc	r21, r17
    953a:	62 1f       	adc	r22, r18
    953c:	73 1f       	adc	r23, r19
    953e:	95 01       	movw	r18, r10
    9540:	84 01       	movw	r16, r8
    9542:	00 95       	com	r16
    9544:	10 95       	com	r17
    9546:	20 95       	com	r18
    9548:	30 95       	com	r19
    954a:	08 2b       	or	r16, r24
    954c:	19 2b       	or	r17, r25
    954e:	2a 2b       	or	r18, r26
    9550:	3b 2b       	or	r19, r27
    9552:	0c 25       	eor	r16, r12
    9554:	1d 25       	eor	r17, r13
    9556:	2e 25       	eor	r18, r14
    9558:	3f 25       	eor	r19, r15
    955a:	40 0f       	add	r20, r16
    955c:	51 1f       	adc	r21, r17
    955e:	62 1f       	adc	r22, r18
    9560:	73 1f       	adc	r23, r19
    9562:	8a 01       	movw	r16, r20
    9564:	9b 01       	movw	r18, r22
    9566:	0f 2e       	mov	r0, r31
    9568:	fa e0       	ldi	r31, 0x0A	; 10
    956a:	00 0f       	add	r16, r16
    956c:	11 1f       	adc	r17, r17
    956e:	22 1f       	adc	r18, r18
    9570:	33 1f       	adc	r19, r19
    9572:	fa 95       	dec	r31
    9574:	d1 f7       	brne	.-12     	; 0x956a <__stack+0x136b>
    9576:	f0 2d       	mov	r31, r0
    9578:	03 2e       	mov	r0, r19
    957a:	36 e1       	ldi	r19, 0x16	; 22
    957c:	76 95       	lsr	r23
    957e:	67 95       	ror	r22
    9580:	57 95       	ror	r21
    9582:	47 95       	ror	r20
    9584:	3a 95       	dec	r19
    9586:	d1 f7       	brne	.-12     	; 0x957c <__stack+0x137d>
    9588:	30 2d       	mov	r19, r0
    958a:	40 2b       	or	r20, r16
    958c:	51 2b       	or	r21, r17
    958e:	62 2b       	or	r22, r18
    9590:	73 2b       	or	r23, r19
    9592:	48 0f       	add	r20, r24
    9594:	59 1f       	adc	r21, r25
    9596:	6a 1f       	adc	r22, r26
    9598:	7b 1f       	adc	r23, r27
    959a:	09 a9       	ldd	r16, Y+49	; 0x31
    959c:	1a a9       	ldd	r17, Y+50	; 0x32
    959e:	2b a9       	ldd	r18, Y+51	; 0x33
    95a0:	3c a9       	ldd	r19, Y+52	; 0x34
    95a2:	03 58       	subi	r16, 0x83	; 131
    95a4:	1b 40       	sbci	r17, 0x0B	; 11
    95a6:	20 41       	sbci	r18, 0x10	; 16
    95a8:	31 09       	sbc	r19, r1
    95aa:	80 0e       	add	r8, r16
    95ac:	91 1e       	adc	r9, r17
    95ae:	a2 1e       	adc	r10, r18
    95b0:	b3 1e       	adc	r11, r19
    95b2:	97 01       	movw	r18, r14
    95b4:	86 01       	movw	r16, r12
    95b6:	00 95       	com	r16
    95b8:	10 95       	com	r17
    95ba:	20 95       	com	r18
    95bc:	30 95       	com	r19
    95be:	04 2b       	or	r16, r20
    95c0:	15 2b       	or	r17, r21
    95c2:	26 2b       	or	r18, r22
    95c4:	37 2b       	or	r19, r23
    95c6:	28 01       	movw	r4, r16
    95c8:	39 01       	movw	r6, r18
    95ca:	48 26       	eor	r4, r24
    95cc:	59 26       	eor	r5, r25
    95ce:	6a 26       	eor	r6, r26
    95d0:	7b 26       	eor	r7, r27
    95d2:	95 01       	movw	r18, r10
    95d4:	84 01       	movw	r16, r8
    95d6:	04 0d       	add	r16, r4
    95d8:	15 1d       	adc	r17, r5
    95da:	26 1d       	adc	r18, r6
    95dc:	37 1d       	adc	r19, r7
    95de:	28 01       	movw	r4, r16
    95e0:	39 01       	movw	r6, r18
    95e2:	03 2e       	mov	r0, r19
    95e4:	3f e0       	ldi	r19, 0x0F	; 15
    95e6:	44 0c       	add	r4, r4
    95e8:	55 1c       	adc	r5, r5
    95ea:	66 1c       	adc	r6, r6
    95ec:	77 1c       	adc	r7, r7
    95ee:	3a 95       	dec	r19
    95f0:	d1 f7       	brne	.-12     	; 0x95e6 <__stack+0x13e7>
    95f2:	30 2d       	mov	r19, r0
    95f4:	0f 2e       	mov	r0, r31
    95f6:	f1 e1       	ldi	r31, 0x11	; 17
    95f8:	36 95       	lsr	r19
    95fa:	27 95       	ror	r18
    95fc:	17 95       	ror	r17
    95fe:	07 95       	ror	r16
    9600:	fa 95       	dec	r31
    9602:	d1 f7       	brne	.-12     	; 0x95f8 <__stack+0x13f9>
    9604:	f0 2d       	mov	r31, r0
    9606:	04 29       	or	r16, r4
    9608:	15 29       	or	r17, r5
    960a:	26 29       	or	r18, r6
    960c:	37 29       	or	r19, r7
    960e:	04 0f       	add	r16, r20
    9610:	15 1f       	adc	r17, r21
    9612:	26 1f       	adc	r18, r22
    9614:	37 1f       	adc	r19, r23
    9616:	8d 84       	ldd	r8, Y+13	; 0x0d
    9618:	9e 84       	ldd	r9, Y+14	; 0x0e
    961a:	af 84       	ldd	r10, Y+15	; 0x0f
    961c:	b8 88       	ldd	r11, Y+16	; 0x10
    961e:	ef e2       	ldi	r30, 0x2F	; 47
    9620:	8e 1a       	sub	r8, r30
    9622:	e2 ea       	ldi	r30, 0xA2	; 162
    9624:	9e 0a       	sbc	r9, r30
    9626:	eb e7       	ldi	r30, 0x7B	; 123
    9628:	ae 0a       	sbc	r10, r30
    962a:	ea e7       	ldi	r30, 0x7A	; 122
    962c:	be 0a       	sbc	r11, r30
    962e:	c8 0c       	add	r12, r8
    9630:	d9 1c       	adc	r13, r9
    9632:	ea 1c       	adc	r14, r10
    9634:	fb 1c       	adc	r15, r11
    9636:	4c 01       	movw	r8, r24
    9638:	5d 01       	movw	r10, r26
    963a:	80 94       	com	r8
    963c:	90 94       	com	r9
    963e:	a0 94       	com	r10
    9640:	b0 94       	com	r11
    9642:	80 2a       	or	r8, r16
    9644:	91 2a       	or	r9, r17
    9646:	a2 2a       	or	r10, r18
    9648:	b3 2a       	or	r11, r19
    964a:	84 26       	eor	r8, r20
    964c:	95 26       	eor	r9, r21
    964e:	a6 26       	eor	r10, r22
    9650:	b7 26       	eor	r11, r23
    9652:	c8 0c       	add	r12, r8
    9654:	d9 1c       	adc	r13, r9
    9656:	ea 1c       	adc	r14, r10
    9658:	fb 1c       	adc	r15, r11
    965a:	46 01       	movw	r8, r12
    965c:	57 01       	movw	r10, r14
    965e:	07 2e       	mov	r0, r23
    9660:	7b e0       	ldi	r23, 0x0B	; 11
    9662:	b6 94       	lsr	r11
    9664:	a7 94       	ror	r10
    9666:	97 94       	ror	r9
    9668:	87 94       	ror	r8
    966a:	7a 95       	dec	r23
    966c:	d1 f7       	brne	.-12     	; 0x9662 <__stack+0x1463>
    966e:	70 2d       	mov	r23, r0
    9670:	0b 2e       	mov	r0, r27
    9672:	b5 e1       	ldi	r27, 0x15	; 21
    9674:	cc 0c       	add	r12, r12
    9676:	dd 1c       	adc	r13, r13
    9678:	ee 1c       	adc	r14, r14
    967a:	ff 1c       	adc	r15, r15
    967c:	ba 95       	dec	r27
    967e:	d1 f7       	brne	.-12     	; 0x9674 <__stack+0x1475>
    9680:	b0 2d       	mov	r27, r0
    9682:	c8 28       	or	r12, r8
    9684:	d9 28       	or	r13, r9
    9686:	ea 28       	or	r14, r10
    9688:	fb 28       	or	r15, r11
    968a:	c0 0e       	add	r12, r16
    968c:	d1 1e       	adc	r13, r17
    968e:	e2 1e       	adc	r14, r18
    9690:	f3 1e       	adc	r15, r19
    9692:	89 a4       	ldd	r8, Y+41	; 0x29
    9694:	9a a4       	ldd	r9, Y+42	; 0x2a
    9696:	ab a4       	ldd	r10, Y+43	; 0x2b
    9698:	bc a4       	ldd	r11, Y+44	; 0x2c
    969a:	f1 eb       	ldi	r31, 0xB1	; 177
    969c:	8f 1a       	sub	r8, r31
    969e:	f1 e8       	ldi	r31, 0x81	; 129
    96a0:	9f 0a       	sbc	r9, r31
    96a2:	f7 e5       	ldi	r31, 0x57	; 87
    96a4:	af 0a       	sbc	r10, r31
    96a6:	f0 e9       	ldi	r31, 0x90	; 144
    96a8:	bf 0a       	sbc	r11, r31
    96aa:	88 0d       	add	r24, r8
    96ac:	99 1d       	adc	r25, r9
    96ae:	aa 1d       	adc	r26, r10
    96b0:	bb 1d       	adc	r27, r11
    96b2:	2a 01       	movw	r4, r20
    96b4:	3b 01       	movw	r6, r22
    96b6:	40 94       	com	r4
    96b8:	50 94       	com	r5
    96ba:	60 94       	com	r6
    96bc:	70 94       	com	r7
    96be:	4c 28       	or	r4, r12
    96c0:	5d 28       	or	r5, r13
    96c2:	6e 28       	or	r6, r14
    96c4:	7f 28       	or	r7, r15
    96c6:	40 26       	eor	r4, r16
    96c8:	51 26       	eor	r5, r17
    96ca:	62 26       	eor	r6, r18
    96cc:	73 26       	eor	r7, r19
    96ce:	84 0d       	add	r24, r4
    96d0:	95 1d       	adc	r25, r5
    96d2:	a6 1d       	adc	r26, r6
    96d4:	b7 1d       	adc	r27, r7
    96d6:	4c 01       	movw	r8, r24
    96d8:	5d 01       	movw	r10, r26
    96da:	88 0c       	add	r8, r8
    96dc:	99 1c       	adc	r9, r9
    96de:	aa 1c       	adc	r10, r10
    96e0:	bb 1c       	adc	r11, r11
    96e2:	88 0c       	add	r8, r8
    96e4:	99 1c       	adc	r9, r9
    96e6:	aa 1c       	adc	r10, r10
    96e8:	bb 1c       	adc	r11, r11
    96ea:	88 0c       	add	r8, r8
    96ec:	99 1c       	adc	r9, r9
    96ee:	aa 1c       	adc	r10, r10
    96f0:	bb 1c       	adc	r11, r11
    96f2:	88 0c       	add	r8, r8
    96f4:	99 1c       	adc	r9, r9
    96f6:	aa 1c       	adc	r10, r10
    96f8:	bb 1c       	adc	r11, r11
    96fa:	88 0c       	add	r8, r8
    96fc:	99 1c       	adc	r9, r9
    96fe:	aa 1c       	adc	r10, r10
    9700:	bb 1c       	adc	r11, r11
    9702:	88 0c       	add	r8, r8
    9704:	99 1c       	adc	r9, r9
    9706:	aa 1c       	adc	r10, r10
    9708:	bb 1c       	adc	r11, r11
    970a:	07 2e       	mov	r0, r23
    970c:	7a e1       	ldi	r23, 0x1A	; 26
    970e:	b6 95       	lsr	r27
    9710:	a7 95       	ror	r26
    9712:	97 95       	ror	r25
    9714:	87 95       	ror	r24
    9716:	7a 95       	dec	r23
    9718:	d1 f7       	brne	.-12     	; 0x970e <__stack+0x150f>
    971a:	70 2d       	mov	r23, r0
    971c:	88 29       	or	r24, r8
    971e:	99 29       	or	r25, r9
    9720:	aa 29       	or	r26, r10
    9722:	bb 29       	or	r27, r11
    9724:	8c 0d       	add	r24, r12
    9726:	9d 1d       	adc	r25, r13
    9728:	ae 1d       	adc	r26, r14
    972a:	bf 1d       	adc	r27, r15
    972c:	29 96       	adiw	r28, 0x09	; 9
    972e:	8c ac       	ldd	r8, Y+60	; 0x3c
    9730:	9d ac       	ldd	r9, Y+61	; 0x3d
    9732:	ae ac       	ldd	r10, Y+62	; 0x3e
    9734:	bf ac       	ldd	r11, Y+63	; 0x3f
    9736:	29 97       	sbiw	r28, 0x09	; 9
    9738:	e0 e2       	ldi	r30, 0x20	; 32
    973a:	8e 1a       	sub	r8, r30
    973c:	e9 e1       	ldi	r30, 0x19	; 25
    973e:	9e 0a       	sbc	r9, r30
    9740:	e3 ed       	ldi	r30, 0xD3	; 211
    9742:	ae 0a       	sbc	r10, r30
    9744:	e1 e0       	ldi	r30, 0x01	; 1
    9746:	be 0a       	sbc	r11, r30
    9748:	48 0d       	add	r20, r8
    974a:	59 1d       	adc	r21, r9
    974c:	6a 1d       	adc	r22, r10
    974e:	7b 1d       	adc	r23, r11
    9750:	48 01       	movw	r8, r16
    9752:	59 01       	movw	r10, r18
    9754:	80 94       	com	r8
    9756:	90 94       	com	r9
    9758:	a0 94       	com	r10
    975a:	b0 94       	com	r11
    975c:	88 2a       	or	r8, r24
    975e:	99 2a       	or	r9, r25
    9760:	aa 2a       	or	r10, r26
    9762:	bb 2a       	or	r11, r27
    9764:	8c 24       	eor	r8, r12
    9766:	9d 24       	eor	r9, r13
    9768:	ae 24       	eor	r10, r14
    976a:	bf 24       	eor	r11, r15
    976c:	48 0d       	add	r20, r8
    976e:	59 1d       	adc	r21, r9
    9770:	6a 1d       	adc	r22, r10
    9772:	7b 1d       	adc	r23, r11
    9774:	4a 01       	movw	r8, r20
    9776:	5b 01       	movw	r10, r22
    9778:	07 2e       	mov	r0, r23
    977a:	7a e0       	ldi	r23, 0x0A	; 10
    977c:	88 0c       	add	r8, r8
    977e:	99 1c       	adc	r9, r9
    9780:	aa 1c       	adc	r10, r10
    9782:	bb 1c       	adc	r11, r11
    9784:	7a 95       	dec	r23
    9786:	d1 f7       	brne	.-12     	; 0x977c <__stack+0x157d>
    9788:	70 2d       	mov	r23, r0
    978a:	03 2e       	mov	r0, r19
    978c:	36 e1       	ldi	r19, 0x16	; 22
    978e:	76 95       	lsr	r23
    9790:	67 95       	ror	r22
    9792:	57 95       	ror	r21
    9794:	47 95       	ror	r20
    9796:	3a 95       	dec	r19
    9798:	d1 f7       	brne	.-12     	; 0x978e <__stack+0x158f>
    979a:	30 2d       	mov	r19, r0
    979c:	48 29       	or	r20, r8
    979e:	59 29       	or	r21, r9
    97a0:	6a 29       	or	r22, r10
    97a2:	7b 29       	or	r23, r11
    97a4:	48 0f       	add	r20, r24
    97a6:	59 1f       	adc	r21, r25
    97a8:	6a 1f       	adc	r22, r26
    97aa:	7b 1f       	adc	r23, r27
    97ac:	89 a0       	ldd	r8, Y+33	; 0x21
    97ae:	9a a0       	ldd	r9, Y+34	; 0x22
    97b0:	ab a0       	ldd	r10, Y+35	; 0x23
    97b2:	bc a0       	ldd	r11, Y+36	; 0x24
    97b4:	fc ee       	ldi	r31, 0xEC	; 236
    97b6:	8f 1a       	sub	r8, r31
    97b8:	fc eb       	ldi	r31, 0xBC	; 188
    97ba:	9f 0a       	sbc	r9, r31
    97bc:	fe ef       	ldi	r31, 0xFE	; 254
    97be:	af 0a       	sbc	r10, r31
    97c0:	fc e5       	ldi	r31, 0x5C	; 92
    97c2:	bf 0a       	sbc	r11, r31
    97c4:	08 0d       	add	r16, r8
    97c6:	19 1d       	adc	r17, r9
    97c8:	2a 1d       	adc	r18, r10
    97ca:	3b 1d       	adc	r19, r11
    97cc:	46 01       	movw	r8, r12
    97ce:	57 01       	movw	r10, r14
    97d0:	80 94       	com	r8
    97d2:	90 94       	com	r9
    97d4:	a0 94       	com	r10
    97d6:	b0 94       	com	r11
    97d8:	84 2a       	or	r8, r20
    97da:	95 2a       	or	r9, r21
    97dc:	a6 2a       	or	r10, r22
    97de:	b7 2a       	or	r11, r23
    97e0:	88 26       	eor	r8, r24
    97e2:	99 26       	eor	r9, r25
    97e4:	aa 26       	eor	r10, r26
    97e6:	bb 26       	eor	r11, r27
    97e8:	08 0d       	add	r16, r8
    97ea:	19 1d       	adc	r17, r9
    97ec:	2a 1d       	adc	r18, r10
    97ee:	3b 1d       	adc	r19, r11
    97f0:	48 01       	movw	r8, r16
    97f2:	59 01       	movw	r10, r18
    97f4:	07 2e       	mov	r0, r23
    97f6:	7f e0       	ldi	r23, 0x0F	; 15
    97f8:	88 0c       	add	r8, r8
    97fa:	99 1c       	adc	r9, r9
    97fc:	aa 1c       	adc	r10, r10
    97fe:	bb 1c       	adc	r11, r11
    9800:	7a 95       	dec	r23
    9802:	d1 f7       	brne	.-12     	; 0x97f8 <__stack+0x15f9>
    9804:	70 2d       	mov	r23, r0
    9806:	0f 2e       	mov	r0, r31
    9808:	f1 e1       	ldi	r31, 0x11	; 17
    980a:	36 95       	lsr	r19
    980c:	27 95       	ror	r18
    980e:	17 95       	ror	r17
    9810:	07 95       	ror	r16
    9812:	fa 95       	dec	r31
    9814:	d1 f7       	brne	.-12     	; 0x980a <__stack+0x160b>
    9816:	f0 2d       	mov	r31, r0
    9818:	08 29       	or	r16, r8
    981a:	19 29       	or	r17, r9
    981c:	2a 29       	or	r18, r10
    981e:	3b 29       	or	r19, r11
    9820:	04 0f       	add	r16, r20
    9822:	15 1f       	adc	r17, r21
    9824:	26 1f       	adc	r18, r22
    9826:	37 1f       	adc	r19, r23
    9828:	21 96       	adiw	r28, 0x01	; 1
    982a:	8c ac       	ldd	r8, Y+60	; 0x3c
    982c:	9d ac       	ldd	r9, Y+61	; 0x3d
    982e:	ae ac       	ldd	r10, Y+62	; 0x3e
    9830:	bf ac       	ldd	r11, Y+63	; 0x3f
    9832:	21 97       	sbiw	r28, 0x01	; 1
    9834:	ef e5       	ldi	r30, 0x5F	; 95
    9836:	8e 1a       	sub	r8, r30
    9838:	ee ee       	ldi	r30, 0xEE	; 238
    983a:	9e 0a       	sbc	r9, r30
    983c:	e7 ef       	ldi	r30, 0xF7	; 247
    983e:	ae 0a       	sbc	r10, r30
    9840:	e1 eb       	ldi	r30, 0xB1	; 177
    9842:	be 0a       	sbc	r11, r30
    9844:	c8 0c       	add	r12, r8
    9846:	d9 1c       	adc	r13, r9
    9848:	ea 1c       	adc	r14, r10
    984a:	fb 1c       	adc	r15, r11
    984c:	4c 01       	movw	r8, r24
    984e:	5d 01       	movw	r10, r26
    9850:	80 94       	com	r8
    9852:	90 94       	com	r9
    9854:	a0 94       	com	r10
    9856:	b0 94       	com	r11
    9858:	80 2a       	or	r8, r16
    985a:	91 2a       	or	r9, r17
    985c:	a2 2a       	or	r10, r18
    985e:	b3 2a       	or	r11, r19
    9860:	84 26       	eor	r8, r20
    9862:	95 26       	eor	r9, r21
    9864:	a6 26       	eor	r10, r22
    9866:	b7 26       	eor	r11, r23
    9868:	c8 0c       	add	r12, r8
    986a:	d9 1c       	adc	r13, r9
    986c:	ea 1c       	adc	r14, r10
    986e:	fb 1c       	adc	r15, r11
    9870:	46 01       	movw	r8, r12
    9872:	57 01       	movw	r10, r14
    9874:	07 2e       	mov	r0, r23
    9876:	7b e0       	ldi	r23, 0x0B	; 11
    9878:	b6 94       	lsr	r11
    987a:	a7 94       	ror	r10
    987c:	97 94       	ror	r9
    987e:	87 94       	ror	r8
    9880:	7a 95       	dec	r23
    9882:	d1 f7       	brne	.-12     	; 0x9878 <__stack+0x1679>
    9884:	70 2d       	mov	r23, r0
    9886:	0b 2e       	mov	r0, r27
    9888:	b5 e1       	ldi	r27, 0x15	; 21
    988a:	cc 0c       	add	r12, r12
    988c:	dd 1c       	adc	r13, r13
    988e:	ee 1c       	adc	r14, r14
    9890:	ff 1c       	adc	r15, r15
    9892:	ba 95       	dec	r27
    9894:	d1 f7       	brne	.-12     	; 0x988a <__stack+0x168b>
    9896:	b0 2d       	mov	r27, r0
    9898:	c8 28       	or	r12, r8
    989a:	d9 28       	or	r13, r9
    989c:	ea 28       	or	r14, r10
    989e:	fb 28       	or	r15, r11
    98a0:	c0 0e       	add	r12, r16
    98a2:	d1 1e       	adc	r13, r17
    98a4:	e2 1e       	adc	r14, r18
    98a6:	f3 1e       	adc	r15, r19
    98a8:	89 8c       	ldd	r8, Y+25	; 0x19
    98aa:	9a 8c       	ldd	r9, Y+26	; 0x1a
    98ac:	ab 8c       	ldd	r10, Y+27	; 0x1b
    98ae:	bc 8c       	ldd	r11, Y+28	; 0x1c
    98b0:	fe e7       	ldi	r31, 0x7E	; 126
    98b2:	8f 1a       	sub	r8, r31
    98b4:	f1 e8       	ldi	r31, 0x81	; 129
    98b6:	9f 0a       	sbc	r9, r31
    98b8:	fc ea       	ldi	r31, 0xAC	; 172
    98ba:	af 0a       	sbc	r10, r31
    98bc:	f8 e0       	ldi	r31, 0x08	; 8
    98be:	bf 0a       	sbc	r11, r31
    98c0:	88 0d       	add	r24, r8
    98c2:	99 1d       	adc	r25, r9
    98c4:	aa 1d       	adc	r26, r10
    98c6:	bb 1d       	adc	r27, r11
    98c8:	2a 01       	movw	r4, r20
    98ca:	3b 01       	movw	r6, r22
    98cc:	40 94       	com	r4
    98ce:	50 94       	com	r5
    98d0:	60 94       	com	r6
    98d2:	70 94       	com	r7
    98d4:	4c 28       	or	r4, r12
    98d6:	5d 28       	or	r5, r13
    98d8:	6e 28       	or	r6, r14
    98da:	7f 28       	or	r7, r15
    98dc:	40 26       	eor	r4, r16
    98de:	51 26       	eor	r5, r17
    98e0:	62 26       	eor	r6, r18
    98e2:	73 26       	eor	r7, r19
    98e4:	84 0d       	add	r24, r4
    98e6:	95 1d       	adc	r25, r5
    98e8:	a6 1d       	adc	r26, r6
    98ea:	b7 1d       	adc	r27, r7
    98ec:	4c 01       	movw	r8, r24
    98ee:	5d 01       	movw	r10, r26
    98f0:	88 0c       	add	r8, r8
    98f2:	99 1c       	adc	r9, r9
    98f4:	aa 1c       	adc	r10, r10
    98f6:	bb 1c       	adc	r11, r11
    98f8:	88 0c       	add	r8, r8
    98fa:	99 1c       	adc	r9, r9
    98fc:	aa 1c       	adc	r10, r10
    98fe:	bb 1c       	adc	r11, r11
    9900:	88 0c       	add	r8, r8
    9902:	99 1c       	adc	r9, r9
    9904:	aa 1c       	adc	r10, r10
    9906:	bb 1c       	adc	r11, r11
    9908:	88 0c       	add	r8, r8
    990a:	99 1c       	adc	r9, r9
    990c:	aa 1c       	adc	r10, r10
    990e:	bb 1c       	adc	r11, r11
    9910:	88 0c       	add	r8, r8
    9912:	99 1c       	adc	r9, r9
    9914:	aa 1c       	adc	r10, r10
    9916:	bb 1c       	adc	r11, r11
    9918:	88 0c       	add	r8, r8
    991a:	99 1c       	adc	r9, r9
    991c:	aa 1c       	adc	r10, r10
    991e:	bb 1c       	adc	r11, r11
    9920:	07 2e       	mov	r0, r23
    9922:	7a e1       	ldi	r23, 0x1A	; 26
    9924:	b6 95       	lsr	r27
    9926:	a7 95       	ror	r26
    9928:	97 95       	ror	r25
    992a:	87 95       	ror	r24
    992c:	7a 95       	dec	r23
    992e:	d1 f7       	brne	.-12     	; 0x9924 <__stack+0x1725>
    9930:	70 2d       	mov	r23, r0
    9932:	88 29       	or	r24, r8
    9934:	99 29       	or	r25, r9
    9936:	aa 29       	or	r26, r10
    9938:	bb 29       	or	r27, r11
    993a:	8c 0d       	add	r24, r12
    993c:	9d 1d       	adc	r25, r13
    993e:	ae 1d       	adc	r26, r14
    9940:	bf 1d       	adc	r27, r15
    9942:	8d a8       	ldd	r8, Y+53	; 0x35
    9944:	9e a8       	ldd	r9, Y+54	; 0x36
    9946:	af a8       	ldd	r10, Y+55	; 0x37
    9948:	b8 ac       	ldd	r11, Y+56	; 0x38
    994a:	eb ec       	ldi	r30, 0xCB	; 203
    994c:	8e 1a       	sub	r8, r30
    994e:	ed e0       	ldi	r30, 0x0D	; 13
    9950:	9e 0a       	sbc	r9, r30
    9952:	e5 ec       	ldi	r30, 0xC5	; 197
    9954:	ae 0a       	sbc	r10, r30
    9956:	e2 e4       	ldi	r30, 0x42	; 66
    9958:	be 0a       	sbc	r11, r30
    995a:	48 0d       	add	r20, r8
    995c:	59 1d       	adc	r21, r9
    995e:	6a 1d       	adc	r22, r10
    9960:	7b 1d       	adc	r23, r11
    9962:	48 01       	movw	r8, r16
    9964:	59 01       	movw	r10, r18
    9966:	80 94       	com	r8
    9968:	90 94       	com	r9
    996a:	a0 94       	com	r10
    996c:	b0 94       	com	r11
    996e:	88 2a       	or	r8, r24
    9970:	99 2a       	or	r9, r25
    9972:	aa 2a       	or	r10, r26
    9974:	bb 2a       	or	r11, r27
    9976:	8c 24       	eor	r8, r12
    9978:	9d 24       	eor	r9, r13
    997a:	ae 24       	eor	r10, r14
    997c:	bf 24       	eor	r11, r15
    997e:	48 0d       	add	r20, r8
    9980:	59 1d       	adc	r21, r9
    9982:	6a 1d       	adc	r22, r10
    9984:	7b 1d       	adc	r23, r11
    9986:	4a 01       	movw	r8, r20
    9988:	5b 01       	movw	r10, r22
    998a:	07 2e       	mov	r0, r23
    998c:	7a e0       	ldi	r23, 0x0A	; 10
    998e:	88 0c       	add	r8, r8
    9990:	99 1c       	adc	r9, r9
    9992:	aa 1c       	adc	r10, r10
    9994:	bb 1c       	adc	r11, r11
    9996:	7a 95       	dec	r23
    9998:	d1 f7       	brne	.-12     	; 0x998e <__stack+0x178f>
    999a:	70 2d       	mov	r23, r0
    999c:	03 2e       	mov	r0, r19
    999e:	36 e1       	ldi	r19, 0x16	; 22
    99a0:	76 95       	lsr	r23
    99a2:	67 95       	ror	r22
    99a4:	57 95       	ror	r21
    99a6:	47 95       	ror	r20
    99a8:	3a 95       	dec	r19
    99aa:	d1 f7       	brne	.-12     	; 0x99a0 <__stack+0x17a1>
    99ac:	30 2d       	mov	r19, r0
    99ae:	48 29       	or	r20, r8
    99b0:	59 29       	or	r21, r9
    99b2:	6a 29       	or	r22, r10
    99b4:	7b 29       	or	r23, r11
    99b6:	48 0f       	add	r20, r24
    99b8:	59 1f       	adc	r21, r25
    99ba:	6a 1f       	adc	r22, r26
    99bc:	7b 1f       	adc	r23, r27
    99be:	89 88       	ldd	r8, Y+17	; 0x11
    99c0:	9a 88       	ldd	r9, Y+18	; 0x12
    99c2:	ab 88       	ldd	r10, Y+19	; 0x13
    99c4:	bc 88       	ldd	r11, Y+20	; 0x14
    99c6:	f5 e4       	ldi	r31, 0x45	; 69
    99c8:	8f 1a       	sub	r8, r31
    99ca:	fd e2       	ldi	r31, 0x2D	; 45
    99cc:	9f 0a       	sbc	r9, r31
    99ce:	f8 e2       	ldi	r31, 0x28	; 40
    99d0:	af 0a       	sbc	r10, r31
    99d2:	f5 ed       	ldi	r31, 0xD5	; 213
    99d4:	bf 0a       	sbc	r11, r31
    99d6:	08 0d       	add	r16, r8
    99d8:	19 1d       	adc	r17, r9
    99da:	2a 1d       	adc	r18, r10
    99dc:	3b 1d       	adc	r19, r11
    99de:	46 01       	movw	r8, r12
    99e0:	57 01       	movw	r10, r14
    99e2:	80 94       	com	r8
    99e4:	90 94       	com	r9
    99e6:	a0 94       	com	r10
    99e8:	b0 94       	com	r11
    99ea:	84 2a       	or	r8, r20
    99ec:	95 2a       	or	r9, r21
    99ee:	a6 2a       	or	r10, r22
    99f0:	b7 2a       	or	r11, r23
    99f2:	88 26       	eor	r8, r24
    99f4:	99 26       	eor	r9, r25
    99f6:	aa 26       	eor	r10, r26
    99f8:	bb 26       	eor	r11, r27
    99fa:	08 0d       	add	r16, r8
    99fc:	19 1d       	adc	r17, r9
    99fe:	2a 1d       	adc	r18, r10
    9a00:	3b 1d       	adc	r19, r11
    9a02:	48 01       	movw	r8, r16
    9a04:	59 01       	movw	r10, r18
    9a06:	07 2e       	mov	r0, r23
    9a08:	7f e0       	ldi	r23, 0x0F	; 15
    9a0a:	88 0c       	add	r8, r8
    9a0c:	99 1c       	adc	r9, r9
    9a0e:	aa 1c       	adc	r10, r10
    9a10:	bb 1c       	adc	r11, r11
    9a12:	7a 95       	dec	r23
    9a14:	d1 f7       	brne	.-12     	; 0x9a0a <__stack+0x180b>
    9a16:	70 2d       	mov	r23, r0
    9a18:	0f 2e       	mov	r0, r31
    9a1a:	f1 e1       	ldi	r31, 0x11	; 17
    9a1c:	36 95       	lsr	r19
    9a1e:	27 95       	ror	r18
    9a20:	17 95       	ror	r17
    9a22:	07 95       	ror	r16
    9a24:	fa 95       	dec	r31
    9a26:	d1 f7       	brne	.-12     	; 0x9a1c <__stack+0x181d>
    9a28:	f0 2d       	mov	r31, r0
    9a2a:	08 29       	or	r16, r8
    9a2c:	19 29       	or	r17, r9
    9a2e:	2a 29       	or	r18, r10
    9a30:	3b 29       	or	r19, r11
    9a32:	04 0f       	add	r16, r20
    9a34:	15 1f       	adc	r17, r21
    9a36:	26 1f       	adc	r18, r22
    9a38:	37 1f       	adc	r19, r23
    9a3a:	8d a4       	ldd	r8, Y+45	; 0x2d
    9a3c:	9e a4       	ldd	r9, Y+46	; 0x2e
    9a3e:	af a4       	ldd	r10, Y+47	; 0x2f
    9a40:	b8 a8       	ldd	r11, Y+48	; 0x30
    9a42:	ef e6       	ldi	r30, 0x6F	; 111
    9a44:	8e 1a       	sub	r8, r30
    9a46:	ec e2       	ldi	r30, 0x2C	; 44
    9a48:	9e 0a       	sbc	r9, r30
    9a4a:	e9 e7       	ldi	r30, 0x79	; 121
    9a4c:	ae 0a       	sbc	r10, r30
    9a4e:	e4 e1       	ldi	r30, 0x14	; 20
    9a50:	be 0a       	sbc	r11, r30
    9a52:	c8 0c       	add	r12, r8
    9a54:	d9 1c       	adc	r13, r9
    9a56:	ea 1c       	adc	r14, r10
    9a58:	fb 1c       	adc	r15, r11
    9a5a:	61 96       	adiw	r28, 0x11	; 17
    9a5c:	8c ac       	ldd	r8, Y+60	; 0x3c
    9a5e:	9d ac       	ldd	r9, Y+61	; 0x3d
    9a60:	ae ac       	ldd	r10, Y+62	; 0x3e
    9a62:	bf ac       	ldd	r11, Y+63	; 0x3f
    9a64:	61 97       	sbiw	r28, 0x11	; 17
    9a66:	88 0e       	add	r8, r24
    9a68:	99 1e       	adc	r9, r25
    9a6a:	aa 1e       	adc	r10, r26
    9a6c:	bb 1e       	adc	r11, r27
    9a6e:	f1 01       	movw	r30, r2
    9a70:	80 86       	std	Z+8, r8	; 0x08
    9a72:	91 86       	std	Z+9, r9	; 0x09
    9a74:	a2 86       	std	Z+10, r10	; 0x0a
    9a76:	b3 86       	std	Z+11, r11	; 0x0b
    9a78:	89 80       	ldd	r8, Y+1	; 0x01
    9a7a:	9a 80       	ldd	r9, Y+2	; 0x02
    9a7c:	ab 80       	ldd	r10, Y+3	; 0x03
    9a7e:	bc 80       	ldd	r11, Y+4	; 0x04
    9a80:	80 0e       	add	r8, r16
    9a82:	91 1e       	adc	r9, r17
    9a84:	a2 1e       	adc	r10, r18
    9a86:	b3 1e       	adc	r11, r19
    9a88:	80 95       	com	r24
    9a8a:	90 95       	com	r25
    9a8c:	a0 95       	com	r26
    9a8e:	b0 95       	com	r27
    9a90:	80 2b       	or	r24, r16
    9a92:	91 2b       	or	r25, r17
    9a94:	a2 2b       	or	r26, r18
    9a96:	b3 2b       	or	r27, r19
    9a98:	84 27       	eor	r24, r20
    9a9a:	95 27       	eor	r25, r21
    9a9c:	a6 27       	eor	r26, r22
    9a9e:	b7 27       	eor	r27, r23
    9aa0:	c8 0e       	add	r12, r24
    9aa2:	d9 1e       	adc	r13, r25
    9aa4:	ea 1e       	adc	r14, r26
    9aa6:	fb 1e       	adc	r15, r27
    9aa8:	26 01       	movw	r4, r12
    9aaa:	37 01       	movw	r6, r14
    9aac:	03 2e       	mov	r0, r19
    9aae:	3b e0       	ldi	r19, 0x0B	; 11
    9ab0:	76 94       	lsr	r7
    9ab2:	67 94       	ror	r6
    9ab4:	57 94       	ror	r5
    9ab6:	47 94       	ror	r4
    9ab8:	3a 95       	dec	r19
    9aba:	d1 f7       	brne	.-12     	; 0x9ab0 <__stack+0x18b1>
    9abc:	30 2d       	mov	r19, r0
    9abe:	0b 2e       	mov	r0, r27
    9ac0:	b5 e1       	ldi	r27, 0x15	; 21
    9ac2:	cc 0c       	add	r12, r12
    9ac4:	dd 1c       	adc	r13, r13
    9ac6:	ee 1c       	adc	r14, r14
    9ac8:	ff 1c       	adc	r15, r15
    9aca:	ba 95       	dec	r27
    9acc:	d1 f7       	brne	.-12     	; 0x9ac2 <__stack+0x18c3>
    9ace:	b0 2d       	mov	r27, r0
    9ad0:	c4 28       	or	r12, r4
    9ad2:	d5 28       	or	r13, r5
    9ad4:	e6 28       	or	r14, r6
    9ad6:	f7 28       	or	r15, r7
    9ad8:	8c 0c       	add	r8, r12
    9ada:	9d 1c       	adc	r9, r13
    9adc:	ae 1c       	adc	r10, r14
    9ade:	bf 1c       	adc	r11, r15
    9ae0:	84 86       	std	Z+12, r8	; 0x0c
    9ae2:	95 86       	std	Z+13, r9	; 0x0d
    9ae4:	a6 86       	std	Z+14, r10	; 0x0e
    9ae6:	b7 86       	std	Z+15, r11	; 0x0f
    9ae8:	cd 80       	ldd	r12, Y+5	; 0x05
    9aea:	de 80       	ldd	r13, Y+6	; 0x06
    9aec:	ef 80       	ldd	r14, Y+7	; 0x07
    9aee:	f8 84       	ldd	r15, Y+8	; 0x08
    9af0:	0c 0d       	add	r16, r12
    9af2:	1d 1d       	adc	r17, r13
    9af4:	2e 1d       	adc	r18, r14
    9af6:	3f 1d       	adc	r19, r15
    9af8:	00 8b       	std	Z+16, r16	; 0x10
    9afa:	11 8b       	std	Z+17, r17	; 0x11
    9afc:	22 8b       	std	Z+18, r18	; 0x12
    9afe:	33 8b       	std	Z+19, r19	; 0x13
    9b00:	2d 96       	adiw	r28, 0x0d	; 13
    9b02:	cc ac       	ldd	r12, Y+60	; 0x3c
    9b04:	dd ac       	ldd	r13, Y+61	; 0x3d
    9b06:	ee ac       	ldd	r14, Y+62	; 0x3e
    9b08:	ff ac       	ldd	r15, Y+63	; 0x3f
    9b0a:	2d 97       	sbiw	r28, 0x0d	; 13
    9b0c:	4c 0d       	add	r20, r12
    9b0e:	5d 1d       	adc	r21, r13
    9b10:	6e 1d       	adc	r22, r14
    9b12:	7f 1d       	adc	r23, r15
    9b14:	44 8b       	std	Z+20, r20	; 0x14
    9b16:	55 8b       	std	Z+21, r21	; 0x15
    9b18:	66 8b       	std	Z+22, r22	; 0x16
    9b1a:	77 8b       	std	Z+23, r23	; 0x17
    9b1c:	c0 5b       	subi	r28, 0xB0	; 176
    9b1e:	df 4f       	sbci	r29, 0xFF	; 255
    9b20:	0f b6       	in	r0, 0x3f	; 63
    9b22:	f8 94       	cli
    9b24:	de bf       	out	0x3e, r29	; 62
    9b26:	0f be       	out	0x3f, r0	; 63
    9b28:	cd bf       	out	0x3d, r28	; 61
    9b2a:	df 91       	pop	r29
    9b2c:	cf 91       	pop	r28
    9b2e:	1f 91       	pop	r17
    9b30:	0f 91       	pop	r16
    9b32:	ff 90       	pop	r15
    9b34:	ef 90       	pop	r14
    9b36:	df 90       	pop	r13
    9b38:	cf 90       	pop	r12
    9b3a:	bf 90       	pop	r11
    9b3c:	af 90       	pop	r10
    9b3e:	9f 90       	pop	r9
    9b40:	8f 90       	pop	r8
    9b42:	7f 90       	pop	r7
    9b44:	6f 90       	pop	r6
    9b46:	5f 90       	pop	r5
    9b48:	4f 90       	pop	r4
    9b4a:	3f 90       	pop	r3
    9b4c:	2f 90       	pop	r2
    9b4e:	08 95       	ret

00009b50 <md5_starts>:
    9b50:	fc 01       	movw	r30, r24
    9b52:	10 82       	st	Z, r1
    9b54:	11 82       	std	Z+1, r1	; 0x01
    9b56:	12 82       	std	Z+2, r1	; 0x02
    9b58:	13 82       	std	Z+3, r1	; 0x03
    9b5a:	14 82       	std	Z+4, r1	; 0x04
    9b5c:	15 82       	std	Z+5, r1	; 0x05
    9b5e:	16 82       	std	Z+6, r1	; 0x06
    9b60:	17 82       	std	Z+7, r1	; 0x07
    9b62:	81 e0       	ldi	r24, 0x01	; 1
    9b64:	93 e2       	ldi	r25, 0x23	; 35
    9b66:	a5 e4       	ldi	r26, 0x45	; 69
    9b68:	b7 e6       	ldi	r27, 0x67	; 103
    9b6a:	80 87       	std	Z+8, r24	; 0x08
    9b6c:	91 87       	std	Z+9, r25	; 0x09
    9b6e:	a2 87       	std	Z+10, r26	; 0x0a
    9b70:	b3 87       	std	Z+11, r27	; 0x0b
    9b72:	89 e8       	ldi	r24, 0x89	; 137
    9b74:	9b ea       	ldi	r25, 0xAB	; 171
    9b76:	ad ec       	ldi	r26, 0xCD	; 205
    9b78:	bf ee       	ldi	r27, 0xEF	; 239
    9b7a:	84 87       	std	Z+12, r24	; 0x0c
    9b7c:	95 87       	std	Z+13, r25	; 0x0d
    9b7e:	a6 87       	std	Z+14, r26	; 0x0e
    9b80:	b7 87       	std	Z+15, r27	; 0x0f
    9b82:	8e ef       	ldi	r24, 0xFE	; 254
    9b84:	9c ed       	ldi	r25, 0xDC	; 220
    9b86:	aa eb       	ldi	r26, 0xBA	; 186
    9b88:	b8 e9       	ldi	r27, 0x98	; 152
    9b8a:	80 8b       	std	Z+16, r24	; 0x10
    9b8c:	91 8b       	std	Z+17, r25	; 0x11
    9b8e:	a2 8b       	std	Z+18, r26	; 0x12
    9b90:	b3 8b       	std	Z+19, r27	; 0x13
    9b92:	86 e7       	ldi	r24, 0x76	; 118
    9b94:	94 e5       	ldi	r25, 0x54	; 84
    9b96:	a2 e3       	ldi	r26, 0x32	; 50
    9b98:	b0 e1       	ldi	r27, 0x10	; 16
    9b9a:	84 8b       	std	Z+20, r24	; 0x14
    9b9c:	95 8b       	std	Z+21, r25	; 0x15
    9b9e:	a6 8b       	std	Z+22, r26	; 0x16
    9ba0:	b7 8b       	std	Z+23, r27	; 0x17
    9ba2:	08 95       	ret

00009ba4 <md5_update>:
    9ba4:	8f 92       	push	r8
    9ba6:	9f 92       	push	r9
    9ba8:	af 92       	push	r10
    9baa:	bf 92       	push	r11
    9bac:	cf 92       	push	r12
    9bae:	df 92       	push	r13
    9bb0:	ef 92       	push	r14
    9bb2:	ff 92       	push	r15
    9bb4:	0f 93       	push	r16
    9bb6:	1f 93       	push	r17
    9bb8:	cf 93       	push	r28
    9bba:	df 93       	push	r29
    9bbc:	7c 01       	movw	r14, r24
    9bbe:	8b 01       	movw	r16, r22
    9bc0:	ea 01       	movw	r28, r20
    9bc2:	1c 16       	cp	r1, r28
    9bc4:	1d 06       	cpc	r1, r29
    9bc6:	0c f0       	brlt	.+2      	; 0x9bca <md5_update+0x26>
    9bc8:	6b c0       	rjmp	.+214    	; 0x9ca0 <md5_update+0xfc>
    9bca:	fc 01       	movw	r30, r24
    9bcc:	80 81       	ld	r24, Z
    9bce:	91 81       	ldd	r25, Z+1	; 0x01
    9bd0:	a2 81       	ldd	r26, Z+2	; 0x02
    9bd2:	b3 81       	ldd	r27, Z+3	; 0x03
    9bd4:	4c 01       	movw	r8, r24
    9bd6:	5d 01       	movw	r10, r26
    9bd8:	ff e3       	ldi	r31, 0x3F	; 63
    9bda:	8f 22       	and	r8, r31
    9bdc:	99 24       	eor	r9, r9
    9bde:	aa 24       	eor	r10, r10
    9be0:	bb 24       	eor	r11, r11
    9be2:	05 2e       	mov	r0, r21
    9be4:	00 0c       	add	r0, r0
    9be6:	66 0b       	sbc	r22, r22
    9be8:	77 0b       	sbc	r23, r23
    9bea:	84 0f       	add	r24, r20
    9bec:	95 1f       	adc	r25, r21
    9bee:	a6 1f       	adc	r26, r22
    9bf0:	b7 1f       	adc	r27, r23
    9bf2:	f7 01       	movw	r30, r14
    9bf4:	80 83       	st	Z, r24
    9bf6:	91 83       	std	Z+1, r25	; 0x01
    9bf8:	a2 83       	std	Z+2, r26	; 0x02
    9bfa:	b3 83       	std	Z+3, r27	; 0x03
    9bfc:	84 17       	cp	r24, r20
    9bfe:	95 07       	cpc	r25, r21
    9c00:	a6 07       	cpc	r26, r22
    9c02:	b7 07       	cpc	r27, r23
    9c04:	58 f4       	brcc	.+22     	; 0x9c1c <md5_update+0x78>
    9c06:	84 81       	ldd	r24, Z+4	; 0x04
    9c08:	95 81       	ldd	r25, Z+5	; 0x05
    9c0a:	a6 81       	ldd	r26, Z+6	; 0x06
    9c0c:	b7 81       	ldd	r27, Z+7	; 0x07
    9c0e:	01 96       	adiw	r24, 0x01	; 1
    9c10:	a1 1d       	adc	r26, r1
    9c12:	b1 1d       	adc	r27, r1
    9c14:	84 83       	std	Z+4, r24	; 0x04
    9c16:	95 83       	std	Z+5, r25	; 0x05
    9c18:	a6 83       	std	Z+6, r26	; 0x06
    9c1a:	b7 83       	std	Z+7, r27	; 0x07
    9c1c:	81 14       	cp	r8, r1
    9c1e:	91 04       	cpc	r9, r1
    9c20:	a1 04       	cpc	r10, r1
    9c22:	b1 04       	cpc	r11, r1
    9c24:	c9 f1       	breq	.+114    	; 0x9c98 <md5_update+0xf4>
    9c26:	80 e4       	ldi	r24, 0x40	; 64
    9c28:	90 e0       	ldi	r25, 0x00	; 0
    9c2a:	6c 01       	movw	r12, r24
    9c2c:	c8 18       	sub	r12, r8
    9c2e:	d9 08       	sbc	r13, r9
    9c30:	cc 15       	cp	r28, r12
    9c32:	dd 05       	cpc	r29, r13
    9c34:	8c f1       	brlt	.+98     	; 0x9c98 <md5_update+0xf4>
    9c36:	c4 01       	movw	r24, r8
    9c38:	48 96       	adiw	r24, 0x18	; 24
    9c3a:	a6 01       	movw	r20, r12
    9c3c:	b8 01       	movw	r22, r16
    9c3e:	8e 0d       	add	r24, r14
    9c40:	9f 1d       	adc	r25, r15
    9c42:	45 d3       	rcall	.+1674   	; 0xa2ce <memcpy>
    9c44:	b7 01       	movw	r22, r14
    9c46:	68 5e       	subi	r22, 0xE8	; 232
    9c48:	7f 4f       	sbci	r23, 0xFF	; 255
    9c4a:	c7 01       	movw	r24, r14
    9c4c:	0e 94 1a 3c 	call	0x7834	; 0x7834 <md5_process>
    9c50:	0c 0d       	add	r16, r12
    9c52:	1d 1d       	adc	r17, r13
    9c54:	cc 19       	sub	r28, r12
    9c56:	dd 09       	sbc	r29, r13
    9c58:	c0 34       	cpi	r28, 0x40	; 64
    9c5a:	d1 05       	cpc	r29, r1
    9c5c:	7c f0       	brlt	.+30     	; 0x9c7c <md5_update+0xd8>
    9c5e:	81 2c       	mov	r8, r1
    9c60:	91 2c       	mov	r9, r1
    9c62:	54 01       	movw	r10, r8
    9c64:	b8 01       	movw	r22, r16
    9c66:	c7 01       	movw	r24, r14
    9c68:	0e 94 1a 3c 	call	0x7834	; 0x7834 <md5_process>
    9c6c:	00 5c       	subi	r16, 0xC0	; 192
    9c6e:	1f 4f       	sbci	r17, 0xFF	; 255
    9c70:	c0 54       	subi	r28, 0x40	; 64
    9c72:	d1 09       	sbc	r29, r1
    9c74:	c0 34       	cpi	r28, 0x40	; 64
    9c76:	d1 05       	cpc	r29, r1
    9c78:	ac f7       	brge	.-22     	; 0x9c64 <md5_update+0xc0>
    9c7a:	03 c0       	rjmp	.+6      	; 0x9c82 <md5_update+0xde>
    9c7c:	81 2c       	mov	r8, r1
    9c7e:	91 2c       	mov	r9, r1
    9c80:	54 01       	movw	r10, r8
    9c82:	1c 16       	cp	r1, r28
    9c84:	1d 06       	cpc	r1, r29
    9c86:	64 f4       	brge	.+24     	; 0x9ca0 <md5_update+0xfc>
    9c88:	c4 01       	movw	r24, r8
    9c8a:	48 96       	adiw	r24, 0x18	; 24
    9c8c:	ae 01       	movw	r20, r28
    9c8e:	b8 01       	movw	r22, r16
    9c90:	8e 0d       	add	r24, r14
    9c92:	9f 1d       	adc	r25, r15
    9c94:	1c d3       	rcall	.+1592   	; 0xa2ce <memcpy>
    9c96:	04 c0       	rjmp	.+8      	; 0x9ca0 <md5_update+0xfc>
    9c98:	c0 34       	cpi	r28, 0x40	; 64
    9c9a:	d1 05       	cpc	r29, r1
    9c9c:	1c f7       	brge	.-58     	; 0x9c64 <md5_update+0xc0>
    9c9e:	f4 cf       	rjmp	.-24     	; 0x9c88 <md5_update+0xe4>
    9ca0:	df 91       	pop	r29
    9ca2:	cf 91       	pop	r28
    9ca4:	1f 91       	pop	r17
    9ca6:	0f 91       	pop	r16
    9ca8:	ff 90       	pop	r15
    9caa:	ef 90       	pop	r14
    9cac:	df 90       	pop	r13
    9cae:	cf 90       	pop	r12
    9cb0:	bf 90       	pop	r11
    9cb2:	af 90       	pop	r10
    9cb4:	9f 90       	pop	r9
    9cb6:	8f 90       	pop	r8
    9cb8:	08 95       	ret

00009cba <md5_finish>:
    9cba:	8f 92       	push	r8
    9cbc:	9f 92       	push	r9
    9cbe:	af 92       	push	r10
    9cc0:	bf 92       	push	r11
    9cc2:	ef 92       	push	r14
    9cc4:	ff 92       	push	r15
    9cc6:	0f 93       	push	r16
    9cc8:	1f 93       	push	r17
    9cca:	cf 93       	push	r28
    9ccc:	df 93       	push	r29
    9cce:	cd b7       	in	r28, 0x3d	; 61
    9cd0:	de b7       	in	r29, 0x3e	; 62
    9cd2:	28 97       	sbiw	r28, 0x08	; 8
    9cd4:	0f b6       	in	r0, 0x3f	; 63
    9cd6:	f8 94       	cli
    9cd8:	de bf       	out	0x3e, r29	; 62
    9cda:	0f be       	out	0x3f, r0	; 63
    9cdc:	cd bf       	out	0x3d, r28	; 61
    9cde:	8c 01       	movw	r16, r24
    9ce0:	7b 01       	movw	r14, r22
    9ce2:	fc 01       	movw	r30, r24
    9ce4:	80 81       	ld	r24, Z
    9ce6:	91 81       	ldd	r25, Z+1	; 0x01
    9ce8:	a2 81       	ldd	r26, Z+2	; 0x02
    9cea:	b3 81       	ldd	r27, Z+3	; 0x03
    9cec:	44 81       	ldd	r20, Z+4	; 0x04
    9cee:	55 81       	ldd	r21, Z+5	; 0x05
    9cf0:	66 81       	ldd	r22, Z+6	; 0x06
    9cf2:	77 81       	ldd	r23, Z+7	; 0x07
    9cf4:	44 0f       	add	r20, r20
    9cf6:	55 1f       	adc	r21, r21
    9cf8:	66 1f       	adc	r22, r22
    9cfa:	77 1f       	adc	r23, r23
    9cfc:	44 0f       	add	r20, r20
    9cfe:	55 1f       	adc	r21, r21
    9d00:	66 1f       	adc	r22, r22
    9d02:	77 1f       	adc	r23, r23
    9d04:	44 0f       	add	r20, r20
    9d06:	55 1f       	adc	r21, r21
    9d08:	66 1f       	adc	r22, r22
    9d0a:	77 1f       	adc	r23, r23
    9d0c:	4c 01       	movw	r8, r24
    9d0e:	5d 01       	movw	r10, r26
    9d10:	07 2e       	mov	r0, r23
    9d12:	7d e1       	ldi	r23, 0x1D	; 29
    9d14:	b6 94       	lsr	r11
    9d16:	a7 94       	ror	r10
    9d18:	97 94       	ror	r9
    9d1a:	87 94       	ror	r8
    9d1c:	7a 95       	dec	r23
    9d1e:	d1 f7       	brne	.-12     	; 0x9d14 <md5_finish+0x5a>
    9d20:	70 2d       	mov	r23, r0
    9d22:	48 29       	or	r20, r8
    9d24:	59 29       	or	r21, r9
    9d26:	6a 29       	or	r22, r10
    9d28:	7b 29       	or	r23, r11
    9d2a:	4c 01       	movw	r8, r24
    9d2c:	5d 01       	movw	r10, r26
    9d2e:	88 0c       	add	r8, r8
    9d30:	99 1c       	adc	r9, r9
    9d32:	aa 1c       	adc	r10, r10
    9d34:	bb 1c       	adc	r11, r11
    9d36:	88 0c       	add	r8, r8
    9d38:	99 1c       	adc	r9, r9
    9d3a:	aa 1c       	adc	r10, r10
    9d3c:	bb 1c       	adc	r11, r11
    9d3e:	88 0c       	add	r8, r8
    9d40:	99 1c       	adc	r9, r9
    9d42:	aa 1c       	adc	r10, r10
    9d44:	bb 1c       	adc	r11, r11
    9d46:	89 82       	std	Y+1, r8	; 0x01
    9d48:	9a 82       	std	Y+2, r9	; 0x02
    9d4a:	ab 82       	std	Y+3, r10	; 0x03
    9d4c:	bc 82       	std	Y+4, r11	; 0x04
    9d4e:	4d 83       	std	Y+5, r20	; 0x05
    9d50:	5e 83       	std	Y+6, r21	; 0x06
    9d52:	6f 83       	std	Y+7, r22	; 0x07
    9d54:	78 87       	std	Y+8, r23	; 0x08
    9d56:	8f 73       	andi	r24, 0x3F	; 63
    9d58:	99 27       	eor	r25, r25
    9d5a:	aa 27       	eor	r26, r26
    9d5c:	bb 27       	eor	r27, r27
    9d5e:	88 33       	cpi	r24, 0x38	; 56
    9d60:	91 05       	cpc	r25, r1
    9d62:	a1 05       	cpc	r26, r1
    9d64:	b1 05       	cpc	r27, r1
    9d66:	48 f4       	brcc	.+18     	; 0x9d7a <md5_finish+0xc0>
    9d68:	48 e3       	ldi	r20, 0x38	; 56
    9d6a:	50 e0       	ldi	r21, 0x00	; 0
    9d6c:	60 e0       	ldi	r22, 0x00	; 0
    9d6e:	70 e0       	ldi	r23, 0x00	; 0
    9d70:	48 1b       	sub	r20, r24
    9d72:	59 0b       	sbc	r21, r25
    9d74:	6a 0b       	sbc	r22, r26
    9d76:	7b 0b       	sbc	r23, r27
    9d78:	08 c0       	rjmp	.+16     	; 0x9d8a <md5_finish+0xd0>
    9d7a:	48 e7       	ldi	r20, 0x78	; 120
    9d7c:	50 e0       	ldi	r21, 0x00	; 0
    9d7e:	60 e0       	ldi	r22, 0x00	; 0
    9d80:	70 e0       	ldi	r23, 0x00	; 0
    9d82:	48 1b       	sub	r20, r24
    9d84:	59 0b       	sbc	r21, r25
    9d86:	6a 0b       	sbc	r22, r26
    9d88:	7b 0b       	sbc	r23, r27
    9d8a:	6f e5       	ldi	r22, 0x5F	; 95
    9d8c:	79 e0       	ldi	r23, 0x09	; 9
    9d8e:	c8 01       	movw	r24, r16
    9d90:	09 df       	rcall	.-494    	; 0x9ba4 <md5_update>
    9d92:	48 e0       	ldi	r20, 0x08	; 8
    9d94:	50 e0       	ldi	r21, 0x00	; 0
    9d96:	be 01       	movw	r22, r28
    9d98:	6f 5f       	subi	r22, 0xFF	; 255
    9d9a:	7f 4f       	sbci	r23, 0xFF	; 255
    9d9c:	c8 01       	movw	r24, r16
    9d9e:	02 df       	rcall	.-508    	; 0x9ba4 <md5_update>
    9da0:	f8 01       	movw	r30, r16
    9da2:	80 85       	ldd	r24, Z+8	; 0x08
    9da4:	f7 01       	movw	r30, r14
    9da6:	80 83       	st	Z, r24
    9da8:	f8 01       	movw	r30, r16
    9daa:	81 85       	ldd	r24, Z+9	; 0x09
    9dac:	f7 01       	movw	r30, r14
    9dae:	81 83       	std	Z+1, r24	; 0x01
    9db0:	f8 01       	movw	r30, r16
    9db2:	82 85       	ldd	r24, Z+10	; 0x0a
    9db4:	f7 01       	movw	r30, r14
    9db6:	82 83       	std	Z+2, r24	; 0x02
    9db8:	f8 01       	movw	r30, r16
    9dba:	83 85       	ldd	r24, Z+11	; 0x0b
    9dbc:	f7 01       	movw	r30, r14
    9dbe:	83 83       	std	Z+3, r24	; 0x03
    9dc0:	f8 01       	movw	r30, r16
    9dc2:	84 85       	ldd	r24, Z+12	; 0x0c
    9dc4:	f7 01       	movw	r30, r14
    9dc6:	84 83       	std	Z+4, r24	; 0x04
    9dc8:	f8 01       	movw	r30, r16
    9dca:	85 85       	ldd	r24, Z+13	; 0x0d
    9dcc:	f7 01       	movw	r30, r14
    9dce:	85 83       	std	Z+5, r24	; 0x05
    9dd0:	f8 01       	movw	r30, r16
    9dd2:	86 85       	ldd	r24, Z+14	; 0x0e
    9dd4:	f7 01       	movw	r30, r14
    9dd6:	86 83       	std	Z+6, r24	; 0x06
    9dd8:	f8 01       	movw	r30, r16
    9dda:	87 85       	ldd	r24, Z+15	; 0x0f
    9ddc:	f7 01       	movw	r30, r14
    9dde:	87 83       	std	Z+7, r24	; 0x07
    9de0:	f8 01       	movw	r30, r16
    9de2:	80 89       	ldd	r24, Z+16	; 0x10
    9de4:	f7 01       	movw	r30, r14
    9de6:	80 87       	std	Z+8, r24	; 0x08
    9de8:	f8 01       	movw	r30, r16
    9dea:	81 89       	ldd	r24, Z+17	; 0x11
    9dec:	f7 01       	movw	r30, r14
    9dee:	81 87       	std	Z+9, r24	; 0x09
    9df0:	f8 01       	movw	r30, r16
    9df2:	82 89       	ldd	r24, Z+18	; 0x12
    9df4:	f7 01       	movw	r30, r14
    9df6:	82 87       	std	Z+10, r24	; 0x0a
    9df8:	f8 01       	movw	r30, r16
    9dfa:	83 89       	ldd	r24, Z+19	; 0x13
    9dfc:	f7 01       	movw	r30, r14
    9dfe:	83 87       	std	Z+11, r24	; 0x0b
    9e00:	f8 01       	movw	r30, r16
    9e02:	84 89       	ldd	r24, Z+20	; 0x14
    9e04:	f7 01       	movw	r30, r14
    9e06:	84 87       	std	Z+12, r24	; 0x0c
    9e08:	f8 01       	movw	r30, r16
    9e0a:	85 89       	ldd	r24, Z+21	; 0x15
    9e0c:	f7 01       	movw	r30, r14
    9e0e:	85 87       	std	Z+13, r24	; 0x0d
    9e10:	f8 01       	movw	r30, r16
    9e12:	86 89       	ldd	r24, Z+22	; 0x16
    9e14:	f7 01       	movw	r30, r14
    9e16:	86 87       	std	Z+14, r24	; 0x0e
    9e18:	f8 01       	movw	r30, r16
    9e1a:	87 89       	ldd	r24, Z+23	; 0x17
    9e1c:	f7 01       	movw	r30, r14
    9e1e:	87 87       	std	Z+15, r24	; 0x0f
    9e20:	28 96       	adiw	r28, 0x08	; 8
    9e22:	0f b6       	in	r0, 0x3f	; 63
    9e24:	f8 94       	cli
    9e26:	de bf       	out	0x3e, r29	; 62
    9e28:	0f be       	out	0x3f, r0	; 63
    9e2a:	cd bf       	out	0x3d, r28	; 61
    9e2c:	df 91       	pop	r29
    9e2e:	cf 91       	pop	r28
    9e30:	1f 91       	pop	r17
    9e32:	0f 91       	pop	r16
    9e34:	ff 90       	pop	r15
    9e36:	ef 90       	pop	r14
    9e38:	bf 90       	pop	r11
    9e3a:	af 90       	pop	r10
    9e3c:	9f 90       	pop	r9
    9e3e:	8f 90       	pop	r8
    9e40:	08 95       	ret

00009e42 <md5>:
    9e42:	af 92       	push	r10
    9e44:	bf 92       	push	r11
    9e46:	cf 92       	push	r12
    9e48:	df 92       	push	r13
    9e4a:	ef 92       	push	r14
    9e4c:	ff 92       	push	r15
    9e4e:	0f 93       	push	r16
    9e50:	1f 93       	push	r17
    9e52:	cf 93       	push	r28
    9e54:	df 93       	push	r29
    9e56:	cd b7       	in	r28, 0x3d	; 61
    9e58:	de b7       	in	r29, 0x3e	; 62
    9e5a:	c8 5d       	subi	r28, 0xD8	; 216
    9e5c:	d1 09       	sbc	r29, r1
    9e5e:	0f b6       	in	r0, 0x3f	; 63
    9e60:	f8 94       	cli
    9e62:	de bf       	out	0x3e, r29	; 62
    9e64:	0f be       	out	0x3f, r0	; 63
    9e66:	cd bf       	out	0x3d, r28	; 61
    9e68:	6c 01       	movw	r12, r24
    9e6a:	5b 01       	movw	r10, r22
    9e6c:	7a 01       	movw	r14, r20
    9e6e:	8e 01       	movw	r16, r28
    9e70:	0f 5f       	subi	r16, 0xFF	; 255
    9e72:	1f 4f       	sbci	r17, 0xFF	; 255
    9e74:	c8 01       	movw	r24, r16
    9e76:	6c de       	rcall	.-808    	; 0x9b50 <md5_starts>
    9e78:	a5 01       	movw	r20, r10
    9e7a:	b6 01       	movw	r22, r12
    9e7c:	c8 01       	movw	r24, r16
    9e7e:	92 de       	rcall	.-732    	; 0x9ba4 <md5_update>
    9e80:	b7 01       	movw	r22, r14
    9e82:	c8 01       	movw	r24, r16
    9e84:	1a df       	rcall	.-460    	; 0x9cba <md5_finish>
    9e86:	88 ed       	ldi	r24, 0xD8	; 216
    9e88:	f8 01       	movw	r30, r16
    9e8a:	11 92       	st	Z+, r1
    9e8c:	8a 95       	dec	r24
    9e8e:	e9 f7       	brne	.-6      	; 0x9e8a <md5+0x48>
    9e90:	c8 52       	subi	r28, 0x28	; 40
    9e92:	df 4f       	sbci	r29, 0xFF	; 255
    9e94:	0f b6       	in	r0, 0x3f	; 63
    9e96:	f8 94       	cli
    9e98:	de bf       	out	0x3e, r29	; 62
    9e9a:	0f be       	out	0x3f, r0	; 63
    9e9c:	cd bf       	out	0x3d, r28	; 61
    9e9e:	df 91       	pop	r29
    9ea0:	cf 91       	pop	r28
    9ea2:	1f 91       	pop	r17
    9ea4:	0f 91       	pop	r16
    9ea6:	ff 90       	pop	r15
    9ea8:	ef 90       	pop	r14
    9eaa:	df 90       	pop	r13
    9eac:	cf 90       	pop	r12
    9eae:	bf 90       	pop	r11
    9eb0:	af 90       	pop	r10
    9eb2:	08 95       	ret

00009eb4 <md5_hmac_starts>:
    9eb4:	8f 92       	push	r8
    9eb6:	9f 92       	push	r9
    9eb8:	af 92       	push	r10
    9eba:	bf 92       	push	r11
    9ebc:	cf 92       	push	r12
    9ebe:	df 92       	push	r13
    9ec0:	ef 92       	push	r14
    9ec2:	ff 92       	push	r15
    9ec4:	0f 93       	push	r16
    9ec6:	1f 93       	push	r17
    9ec8:	cf 93       	push	r28
    9eca:	df 93       	push	r29
    9ecc:	cd b7       	in	r28, 0x3d	; 61
    9ece:	de b7       	in	r29, 0x3e	; 62
    9ed0:	60 97       	sbiw	r28, 0x10	; 16
    9ed2:	0f b6       	in	r0, 0x3f	; 63
    9ed4:	f8 94       	cli
    9ed6:	de bf       	out	0x3e, r29	; 62
    9ed8:	0f be       	out	0x3f, r0	; 63
    9eda:	cd bf       	out	0x3d, r28	; 61
    9edc:	8c 01       	movw	r16, r24
    9ede:	a6 2e       	mov	r10, r22
    9ee0:	b7 2e       	mov	r11, r23
    9ee2:	6a 01       	movw	r12, r20
    9ee4:	41 34       	cpi	r20, 0x41	; 65
    9ee6:	51 05       	cpc	r21, r1
    9ee8:	0c f1       	brlt	.+66     	; 0x9f2c <md5_hmac_starts+0x78>
    9eea:	de 01       	movw	r26, r28
    9eec:	11 96       	adiw	r26, 0x01	; 1
    9eee:	4d 01       	movw	r8, r26
    9ef0:	ad 01       	movw	r20, r26
    9ef2:	b6 01       	movw	r22, r12
    9ef4:	8a 2d       	mov	r24, r10
    9ef6:	9b 2d       	mov	r25, r11
    9ef8:	a4 df       	rcall	.-184    	; 0x9e42 <md5>
    9efa:	78 01       	movw	r14, r16
    9efc:	b8 e5       	ldi	r27, 0x58	; 88
    9efe:	eb 0e       	add	r14, r27
    9f00:	f1 1c       	adc	r15, r1
    9f02:	40 e4       	ldi	r20, 0x40	; 64
    9f04:	50 e0       	ldi	r21, 0x00	; 0
    9f06:	66 e3       	ldi	r22, 0x36	; 54
    9f08:	70 e0       	ldi	r23, 0x00	; 0
    9f0a:	c7 01       	movw	r24, r14
    9f0c:	e9 d1       	rcall	.+978    	; 0xa2e0 <memset>
    9f0e:	40 e4       	ldi	r20, 0x40	; 64
    9f10:	50 e0       	ldi	r21, 0x00	; 0
    9f12:	6c e5       	ldi	r22, 0x5C	; 92
    9f14:	70 e0       	ldi	r23, 0x00	; 0
    9f16:	c8 01       	movw	r24, r16
    9f18:	88 56       	subi	r24, 0x68	; 104
    9f1a:	9f 4f       	sbci	r25, 0xFF	; 255
    9f1c:	e1 d1       	rcall	.+962    	; 0xa2e0 <memset>
    9f1e:	68 94       	set
    9f20:	cc 24       	eor	r12, r12
    9f22:	c4 f8       	bld	r12, 4
    9f24:	d1 2c       	mov	r13, r1
    9f26:	a8 2c       	mov	r10, r8
    9f28:	b9 2c       	mov	r11, r9
    9f2a:	15 c0       	rjmp	.+42     	; 0x9f56 <md5_hmac_starts+0xa2>
    9f2c:	78 01       	movw	r14, r16
    9f2e:	e8 e5       	ldi	r30, 0x58	; 88
    9f30:	ee 0e       	add	r14, r30
    9f32:	f1 1c       	adc	r15, r1
    9f34:	40 e4       	ldi	r20, 0x40	; 64
    9f36:	50 e0       	ldi	r21, 0x00	; 0
    9f38:	66 e3       	ldi	r22, 0x36	; 54
    9f3a:	70 e0       	ldi	r23, 0x00	; 0
    9f3c:	c7 01       	movw	r24, r14
    9f3e:	d0 d1       	rcall	.+928    	; 0xa2e0 <memset>
    9f40:	40 e4       	ldi	r20, 0x40	; 64
    9f42:	50 e0       	ldi	r21, 0x00	; 0
    9f44:	6c e5       	ldi	r22, 0x5C	; 92
    9f46:	70 e0       	ldi	r23, 0x00	; 0
    9f48:	c8 01       	movw	r24, r16
    9f4a:	88 56       	subi	r24, 0x68	; 104
    9f4c:	9f 4f       	sbci	r25, 0xFF	; 255
    9f4e:	c8 d1       	rcall	.+912    	; 0xa2e0 <memset>
    9f50:	1c 14       	cp	r1, r12
    9f52:	1d 04       	cpc	r1, r13
    9f54:	f4 f4       	brge	.+60     	; 0x9f92 <md5_hmac_starts+0xde>
    9f56:	a8 01       	movw	r20, r16
    9f58:	48 5a       	subi	r20, 0xA8	; 168
    9f5a:	5f 4f       	sbci	r21, 0xFF	; 255
    9f5c:	8a 2c       	mov	r8, r10
    9f5e:	9b 2c       	mov	r9, r11
    9f60:	d8 01       	movw	r26, r16
    9f62:	a8 56       	subi	r26, 0x68	; 104
    9f64:	bf 4f       	sbci	r27, 0xFF	; 255
    9f66:	20 e0       	ldi	r18, 0x00	; 0
    9f68:	30 e0       	ldi	r19, 0x00	; 0
    9f6a:	b4 01       	movw	r22, r8
    9f6c:	fa 01       	movw	r30, r20
    9f6e:	80 81       	ld	r24, Z
    9f70:	f4 01       	movw	r30, r8
    9f72:	91 91       	ld	r25, Z+
    9f74:	4f 01       	movw	r8, r30
    9f76:	98 27       	eor	r25, r24
    9f78:	fa 01       	movw	r30, r20
    9f7a:	91 93       	st	Z+, r25
    9f7c:	af 01       	movw	r20, r30
    9f7e:	8c 91       	ld	r24, X
    9f80:	fb 01       	movw	r30, r22
    9f82:	90 81       	ld	r25, Z
    9f84:	98 27       	eor	r25, r24
    9f86:	9d 93       	st	X+, r25
    9f88:	2f 5f       	subi	r18, 0xFF	; 255
    9f8a:	3f 4f       	sbci	r19, 0xFF	; 255
    9f8c:	2c 15       	cp	r18, r12
    9f8e:	3d 05       	cpc	r19, r13
    9f90:	64 f3       	brlt	.-40     	; 0x9f6a <md5_hmac_starts+0xb6>
    9f92:	c8 01       	movw	r24, r16
    9f94:	dd dd       	rcall	.-1094   	; 0x9b50 <md5_starts>
    9f96:	40 e4       	ldi	r20, 0x40	; 64
    9f98:	50 e0       	ldi	r21, 0x00	; 0
    9f9a:	b7 01       	movw	r22, r14
    9f9c:	c8 01       	movw	r24, r16
    9f9e:	02 de       	rcall	.-1020   	; 0x9ba4 <md5_update>
    9fa0:	fe 01       	movw	r30, r28
    9fa2:	31 96       	adiw	r30, 0x01	; 1
    9fa4:	80 e1       	ldi	r24, 0x10	; 16
    9fa6:	df 01       	movw	r26, r30
    9fa8:	1d 92       	st	X+, r1
    9faa:	8a 95       	dec	r24
    9fac:	e9 f7       	brne	.-6      	; 0x9fa8 <md5_hmac_starts+0xf4>
    9fae:	60 96       	adiw	r28, 0x10	; 16
    9fb0:	0f b6       	in	r0, 0x3f	; 63
    9fb2:	f8 94       	cli
    9fb4:	de bf       	out	0x3e, r29	; 62
    9fb6:	0f be       	out	0x3f, r0	; 63
    9fb8:	cd bf       	out	0x3d, r28	; 61
    9fba:	df 91       	pop	r29
    9fbc:	cf 91       	pop	r28
    9fbe:	1f 91       	pop	r17
    9fc0:	0f 91       	pop	r16
    9fc2:	ff 90       	pop	r15
    9fc4:	ef 90       	pop	r14
    9fc6:	df 90       	pop	r13
    9fc8:	cf 90       	pop	r12
    9fca:	bf 90       	pop	r11
    9fcc:	af 90       	pop	r10
    9fce:	9f 90       	pop	r9
    9fd0:	8f 90       	pop	r8
    9fd2:	08 95       	ret

00009fd4 <md5_hmac_finish>:
    9fd4:	cf 92       	push	r12
    9fd6:	df 92       	push	r13
    9fd8:	ef 92       	push	r14
    9fda:	ff 92       	push	r15
    9fdc:	0f 93       	push	r16
    9fde:	1f 93       	push	r17
    9fe0:	cf 93       	push	r28
    9fe2:	df 93       	push	r29
    9fe4:	cd b7       	in	r28, 0x3d	; 61
    9fe6:	de b7       	in	r29, 0x3e	; 62
    9fe8:	60 97       	sbiw	r28, 0x10	; 16
    9fea:	0f b6       	in	r0, 0x3f	; 63
    9fec:	f8 94       	cli
    9fee:	de bf       	out	0x3e, r29	; 62
    9ff0:	0f be       	out	0x3f, r0	; 63
    9ff2:	cd bf       	out	0x3d, r28	; 61
    9ff4:	8c 01       	movw	r16, r24
    9ff6:	6b 01       	movw	r12, r22
    9ff8:	ce 01       	movw	r24, r28
    9ffa:	01 96       	adiw	r24, 0x01	; 1
    9ffc:	7c 01       	movw	r14, r24
    9ffe:	bc 01       	movw	r22, r24
    a000:	c8 01       	movw	r24, r16
    a002:	5b de       	rcall	.-842    	; 0x9cba <md5_finish>
    a004:	c8 01       	movw	r24, r16
    a006:	a4 dd       	rcall	.-1208   	; 0x9b50 <md5_starts>
    a008:	b8 01       	movw	r22, r16
    a00a:	68 56       	subi	r22, 0x68	; 104
    a00c:	7f 4f       	sbci	r23, 0xFF	; 255
    a00e:	40 e4       	ldi	r20, 0x40	; 64
    a010:	50 e0       	ldi	r21, 0x00	; 0
    a012:	c8 01       	movw	r24, r16
    a014:	c7 dd       	rcall	.-1138   	; 0x9ba4 <md5_update>
    a016:	40 e1       	ldi	r20, 0x10	; 16
    a018:	50 e0       	ldi	r21, 0x00	; 0
    a01a:	b7 01       	movw	r22, r14
    a01c:	c8 01       	movw	r24, r16
    a01e:	c2 dd       	rcall	.-1148   	; 0x9ba4 <md5_update>
    a020:	b6 01       	movw	r22, r12
    a022:	c8 01       	movw	r24, r16
    a024:	4a de       	rcall	.-876    	; 0x9cba <md5_finish>
    a026:	80 e1       	ldi	r24, 0x10	; 16
    a028:	f7 01       	movw	r30, r14
    a02a:	11 92       	st	Z+, r1
    a02c:	8a 95       	dec	r24
    a02e:	e9 f7       	brne	.-6      	; 0xa02a <md5_hmac_finish+0x56>
    a030:	60 96       	adiw	r28, 0x10	; 16
    a032:	0f b6       	in	r0, 0x3f	; 63
    a034:	f8 94       	cli
    a036:	de bf       	out	0x3e, r29	; 62
    a038:	0f be       	out	0x3f, r0	; 63
    a03a:	cd bf       	out	0x3d, r28	; 61
    a03c:	df 91       	pop	r29
    a03e:	cf 91       	pop	r28
    a040:	1f 91       	pop	r17
    a042:	0f 91       	pop	r16
    a044:	ff 90       	pop	r15
    a046:	ef 90       	pop	r14
    a048:	df 90       	pop	r13
    a04a:	cf 90       	pop	r12
    a04c:	08 95       	ret

0000a04e <md5_hmac>:
 * output = HMAC-MD5( hmac key, input buffer )
 */
void md5_hmac( const unsigned char *key, int keylen,
               const unsigned char *input, int ilen,
               unsigned char output[16] )
{
    a04e:	af 92       	push	r10
    a050:	bf 92       	push	r11
    a052:	cf 92       	push	r12
    a054:	df 92       	push	r13
    a056:	ef 92       	push	r14
    a058:	ff 92       	push	r15
    a05a:	0f 93       	push	r16
    a05c:	1f 93       	push	r17
    a05e:	cf 93       	push	r28
    a060:	df 93       	push	r29
    a062:	cd b7       	in	r28, 0x3d	; 61
    a064:	de b7       	in	r29, 0x3e	; 62
    a066:	c8 5d       	subi	r28, 0xD8	; 216
    a068:	d1 09       	sbc	r29, r1
    a06a:	0f b6       	in	r0, 0x3f	; 63
    a06c:	f8 94       	cli
    a06e:	de bf       	out	0x3e, r29	; 62
    a070:	0f be       	out	0x3f, r0	; 63
    a072:	cd bf       	out	0x3d, r28	; 61
    a074:	6a 01       	movw	r12, r20
    a076:	59 01       	movw	r10, r18
    md5_context ctx;

    md5_hmac_starts( &ctx, key, keylen );
    a078:	ab 01       	movw	r20, r22
    a07a:	bc 01       	movw	r22, r24
    a07c:	ce 01       	movw	r24, r28
    a07e:	01 96       	adiw	r24, 0x01	; 1
    a080:	7c 01       	movw	r14, r24
    a082:	18 df       	rcall	.-464    	; 0x9eb4 <md5_hmac_starts>
/*
 * MD5 HMAC process buffer
 */
void md5_hmac_update( md5_context *ctx, const unsigned char *input, int ilen )
{
    md5_update( ctx, input, ilen );
    a084:	a5 01       	movw	r20, r10
    a086:	b6 01       	movw	r22, r12
    a088:	c7 01       	movw	r24, r14
    a08a:	8c dd       	rcall	.-1256   	; 0x9ba4 <md5_update>
{
    md5_context ctx;

    md5_hmac_starts( &ctx, key, keylen );
    md5_hmac_update( &ctx, input, ilen );
    md5_hmac_finish( &ctx, output );
    a08c:	b8 01       	movw	r22, r16
    a08e:	c7 01       	movw	r24, r14
    a090:	a1 df       	rcall	.-190    	; 0x9fd4 <md5_hmac_finish>

    memset( &ctx, 0, sizeof( md5_context ) );
    a092:	88 ed       	ldi	r24, 0xD8	; 216
    a094:	f7 01       	movw	r30, r14
    a096:	11 92       	st	Z+, r1
    a098:	8a 95       	dec	r24
    a09a:	e9 f7       	brne	.-6      	; 0xa096 <md5_hmac+0x48>
}
    a09c:	c8 52       	subi	r28, 0x28	; 40
    a09e:	df 4f       	sbci	r29, 0xFF	; 255
    a0a0:	0f b6       	in	r0, 0x3f	; 63
    a0a2:	f8 94       	cli
    a0a4:	de bf       	out	0x3e, r29	; 62
    a0a6:	0f be       	out	0x3f, r0	; 63
    a0a8:	cd bf       	out	0x3d, r28	; 61
    a0aa:	df 91       	pop	r29
    a0ac:	cf 91       	pop	r28
    a0ae:	1f 91       	pop	r17
    a0b0:	0f 91       	pop	r16
    a0b2:	ff 90       	pop	r15
    a0b4:	ef 90       	pop	r14
    a0b6:	df 90       	pop	r13
    a0b8:	cf 90       	pop	r12
    a0ba:	bf 90       	pop	r11
    a0bc:	af 90       	pop	r10
    a0be:	08 95       	ret

0000a0c0 <pnesign>:

uint16_t pnesign(const unsigned char* data, uint16_t dataLen, const unsigned char* key, uint16_t keyLen)
{
    a0c0:	0f 93       	push	r16
    a0c2:	1f 93       	push	r17
    a0c4:	cf 93       	push	r28
    a0c6:	df 93       	push	r29
    a0c8:	cd b7       	in	r28, 0x3d	; 61
    a0ca:	de b7       	in	r29, 0x3e	; 62
    a0cc:	60 97       	sbiw	r28, 0x10	; 16
    a0ce:	0f b6       	in	r0, 0x3f	; 63
    a0d0:	f8 94       	cli
    a0d2:	de bf       	out	0x3e, r29	; 62
    a0d4:	0f be       	out	0x3f, r0	; 63
    a0d6:	cd bf       	out	0x3d, r28	; 61
    a0d8:	fc 01       	movw	r30, r24
    a0da:	db 01       	movw	r26, r22
    a0dc:	ca 01       	movw	r24, r20
    a0de:	b9 01       	movw	r22, r18
// 	}
	//int_to_ascii(keyLen);

	
		
	md5_hmac(key, keyLen, data, dataLen, tmpbuf);//md5_hmac(key, 6, data1, 80, tmpbuf);
    a0e0:	8e 01       	movw	r16, r28
    a0e2:	0f 5f       	subi	r16, 0xFF	; 255
    a0e4:	1f 4f       	sbci	r17, 0xFF	; 255
    a0e6:	9d 01       	movw	r18, r26
    a0e8:	af 01       	movw	r20, r30
    a0ea:	b1 df       	rcall	.-158    	; 0xa04e <md5_hmac>
// 	{
// 		int_to_ascii(tmpbuf[i]);
// 	}
// 	send_usart_char("\r\n");
	
	sign = ((uint16_t*)tmpbuf)[0] ^ ((uint16_t*)tmpbuf)[1] ^ ((uint16_t*)tmpbuf)[2] ^ ((uint16_t*)tmpbuf)[3];
    a0ec:	2b 81       	ldd	r18, Y+3	; 0x03
    a0ee:	3c 81       	ldd	r19, Y+4	; 0x04
    a0f0:	89 81       	ldd	r24, Y+1	; 0x01
    a0f2:	9a 81       	ldd	r25, Y+2	; 0x02
    a0f4:	82 27       	eor	r24, r18
    a0f6:	93 27       	eor	r25, r19
    a0f8:	2d 81       	ldd	r18, Y+5	; 0x05
    a0fa:	3e 81       	ldd	r19, Y+6	; 0x06
    a0fc:	82 27       	eor	r24, r18
    a0fe:	93 27       	eor	r25, r19
    a100:	2f 81       	ldd	r18, Y+7	; 0x07
    a102:	38 85       	ldd	r19, Y+8	; 0x08
	return sign;
}
    a104:	82 27       	eor	r24, r18
    a106:	93 27       	eor	r25, r19
    a108:	60 96       	adiw	r28, 0x10	; 16
    a10a:	0f b6       	in	r0, 0x3f	; 63
    a10c:	f8 94       	cli
    a10e:	de bf       	out	0x3e, r29	; 62
    a110:	0f be       	out	0x3f, r0	; 63
    a112:	cd bf       	out	0x3d, r28	; 61
    a114:	df 91       	pop	r29
    a116:	cf 91       	pop	r28
    a118:	1f 91       	pop	r17
    a11a:	0f 91       	pop	r16
    a11c:	08 95       	ret

0000a11e <__divmodhi4>:
    a11e:	97 fb       	bst	r25, 7
    a120:	07 2e       	mov	r0, r23
    a122:	16 f4       	brtc	.+4      	; 0xa128 <__divmodhi4+0xa>
    a124:	00 94       	com	r0
    a126:	06 d0       	rcall	.+12     	; 0xa134 <__divmodhi4_neg1>
    a128:	77 fd       	sbrc	r23, 7
    a12a:	08 d0       	rcall	.+16     	; 0xa13c <__divmodhi4_neg2>
    a12c:	50 d0       	rcall	.+160    	; 0xa1ce <__udivmodhi4>
    a12e:	07 fc       	sbrc	r0, 7
    a130:	05 d0       	rcall	.+10     	; 0xa13c <__divmodhi4_neg2>
    a132:	3e f4       	brtc	.+14     	; 0xa142 <__divmodhi4_exit>

0000a134 <__divmodhi4_neg1>:
    a134:	90 95       	com	r25
    a136:	81 95       	neg	r24
    a138:	9f 4f       	sbci	r25, 0xFF	; 255
    a13a:	08 95       	ret

0000a13c <__divmodhi4_neg2>:
    a13c:	70 95       	com	r23
    a13e:	61 95       	neg	r22
    a140:	7f 4f       	sbci	r23, 0xFF	; 255

0000a142 <__divmodhi4_exit>:
    a142:	08 95       	ret

0000a144 <__udivmodsi4>:
    a144:	a1 e2       	ldi	r26, 0x21	; 33
    a146:	1a 2e       	mov	r1, r26
    a148:	aa 1b       	sub	r26, r26
    a14a:	bb 1b       	sub	r27, r27
    a14c:	fd 01       	movw	r30, r26
    a14e:	0d c0       	rjmp	.+26     	; 0xa16a <__udivmodsi4_ep>

0000a150 <__udivmodsi4_loop>:
    a150:	aa 1f       	adc	r26, r26
    a152:	bb 1f       	adc	r27, r27
    a154:	ee 1f       	adc	r30, r30
    a156:	ff 1f       	adc	r31, r31
    a158:	a2 17       	cp	r26, r18
    a15a:	b3 07       	cpc	r27, r19
    a15c:	e4 07       	cpc	r30, r20
    a15e:	f5 07       	cpc	r31, r21
    a160:	20 f0       	brcs	.+8      	; 0xa16a <__udivmodsi4_ep>
    a162:	a2 1b       	sub	r26, r18
    a164:	b3 0b       	sbc	r27, r19
    a166:	e4 0b       	sbc	r30, r20
    a168:	f5 0b       	sbc	r31, r21

0000a16a <__udivmodsi4_ep>:
    a16a:	66 1f       	adc	r22, r22
    a16c:	77 1f       	adc	r23, r23
    a16e:	88 1f       	adc	r24, r24
    a170:	99 1f       	adc	r25, r25
    a172:	1a 94       	dec	r1
    a174:	69 f7       	brne	.-38     	; 0xa150 <__udivmodsi4_loop>
    a176:	60 95       	com	r22
    a178:	70 95       	com	r23
    a17a:	80 95       	com	r24
    a17c:	90 95       	com	r25
    a17e:	9b 01       	movw	r18, r22
    a180:	ac 01       	movw	r20, r24
    a182:	bd 01       	movw	r22, r26
    a184:	cf 01       	movw	r24, r30
    a186:	08 95       	ret

0000a188 <__tablejump2__>:
    a188:	ee 0f       	add	r30, r30
    a18a:	ff 1f       	adc	r31, r31
    a18c:	88 1f       	adc	r24, r24
    a18e:	8b bf       	out	0x3b, r24	; 59
    a190:	07 90       	elpm	r0, Z+
    a192:	f6 91       	elpm	r31, Z
    a194:	e0 2d       	mov	r30, r0
    a196:	19 94       	eijmp

0000a198 <__umulhisi3>:
    a198:	a2 9f       	mul	r26, r18
    a19a:	b0 01       	movw	r22, r0
    a19c:	b3 9f       	mul	r27, r19
    a19e:	c0 01       	movw	r24, r0
    a1a0:	a3 9f       	mul	r26, r19
    a1a2:	70 0d       	add	r23, r0
    a1a4:	81 1d       	adc	r24, r1
    a1a6:	11 24       	eor	r1, r1
    a1a8:	91 1d       	adc	r25, r1
    a1aa:	b2 9f       	mul	r27, r18
    a1ac:	70 0d       	add	r23, r0
    a1ae:	81 1d       	adc	r24, r1
    a1b0:	11 24       	eor	r1, r1
    a1b2:	91 1d       	adc	r25, r1
    a1b4:	08 95       	ret

0000a1b6 <__usmulhisi3>:
    a1b6:	f0 df       	rcall	.-32     	; 0xa198 <__umulhisi3>

0000a1b8 <__usmulhisi3_tail>:
    a1b8:	b7 ff       	sbrs	r27, 7
    a1ba:	08 95       	ret
    a1bc:	82 1b       	sub	r24, r18
    a1be:	93 0b       	sbc	r25, r19
    a1c0:	08 95       	ret

0000a1c2 <__mulshisi3>:
    a1c2:	b7 ff       	sbrs	r27, 7
    a1c4:	18 c0       	rjmp	.+48     	; 0xa1f6 <__muluhisi3>

0000a1c6 <__mulohisi3>:
    a1c6:	17 d0       	rcall	.+46     	; 0xa1f6 <__muluhisi3>
    a1c8:	82 1b       	sub	r24, r18
    a1ca:	93 0b       	sbc	r25, r19
    a1cc:	08 95       	ret

0000a1ce <__udivmodhi4>:
    a1ce:	aa 1b       	sub	r26, r26
    a1d0:	bb 1b       	sub	r27, r27
    a1d2:	51 e1       	ldi	r21, 0x11	; 17
    a1d4:	07 c0       	rjmp	.+14     	; 0xa1e4 <__udivmodhi4_ep>

0000a1d6 <__udivmodhi4_loop>:
    a1d6:	aa 1f       	adc	r26, r26
    a1d8:	bb 1f       	adc	r27, r27
    a1da:	a6 17       	cp	r26, r22
    a1dc:	b7 07       	cpc	r27, r23
    a1de:	10 f0       	brcs	.+4      	; 0xa1e4 <__udivmodhi4_ep>
    a1e0:	a6 1b       	sub	r26, r22
    a1e2:	b7 0b       	sbc	r27, r23

0000a1e4 <__udivmodhi4_ep>:
    a1e4:	88 1f       	adc	r24, r24
    a1e6:	99 1f       	adc	r25, r25
    a1e8:	5a 95       	dec	r21
    a1ea:	a9 f7       	brne	.-22     	; 0xa1d6 <__udivmodhi4_loop>
    a1ec:	80 95       	com	r24
    a1ee:	90 95       	com	r25
    a1f0:	bc 01       	movw	r22, r24
    a1f2:	cd 01       	movw	r24, r26
    a1f4:	08 95       	ret

0000a1f6 <__muluhisi3>:
    a1f6:	d0 df       	rcall	.-96     	; 0xa198 <__umulhisi3>
    a1f8:	a5 9f       	mul	r26, r21
    a1fa:	90 0d       	add	r25, r0
    a1fc:	b4 9f       	mul	r27, r20
    a1fe:	90 0d       	add	r25, r0
    a200:	a4 9f       	mul	r26, r20
    a202:	80 0d       	add	r24, r0
    a204:	91 1d       	adc	r25, r1
    a206:	11 24       	eor	r1, r1
    a208:	08 95       	ret

0000a20a <do_rand>:
    a20a:	8f 92       	push	r8
    a20c:	9f 92       	push	r9
    a20e:	af 92       	push	r10
    a210:	bf 92       	push	r11
    a212:	cf 92       	push	r12
    a214:	df 92       	push	r13
    a216:	ef 92       	push	r14
    a218:	ff 92       	push	r15
    a21a:	cf 93       	push	r28
    a21c:	df 93       	push	r29
    a21e:	ec 01       	movw	r28, r24
    a220:	68 81       	ld	r22, Y
    a222:	79 81       	ldd	r23, Y+1	; 0x01
    a224:	8a 81       	ldd	r24, Y+2	; 0x02
    a226:	9b 81       	ldd	r25, Y+3	; 0x03
    a228:	61 15       	cp	r22, r1
    a22a:	71 05       	cpc	r23, r1
    a22c:	81 05       	cpc	r24, r1
    a22e:	91 05       	cpc	r25, r1
    a230:	21 f4       	brne	.+8      	; 0xa23a <do_rand+0x30>
    a232:	64 e2       	ldi	r22, 0x24	; 36
    a234:	79 ed       	ldi	r23, 0xD9	; 217
    a236:	8b e5       	ldi	r24, 0x5B	; 91
    a238:	97 e0       	ldi	r25, 0x07	; 7
    a23a:	2d e1       	ldi	r18, 0x1D	; 29
    a23c:	33 ef       	ldi	r19, 0xF3	; 243
    a23e:	41 e0       	ldi	r20, 0x01	; 1
    a240:	50 e0       	ldi	r21, 0x00	; 0
    a242:	55 d0       	rcall	.+170    	; 0xa2ee <__divmodsi4>
    a244:	49 01       	movw	r8, r18
    a246:	5a 01       	movw	r10, r20
    a248:	9b 01       	movw	r18, r22
    a24a:	ac 01       	movw	r20, r24
    a24c:	a7 ea       	ldi	r26, 0xA7	; 167
    a24e:	b1 e4       	ldi	r27, 0x41	; 65
    a250:	d2 df       	rcall	.-92     	; 0xa1f6 <__muluhisi3>
    a252:	6b 01       	movw	r12, r22
    a254:	7c 01       	movw	r14, r24
    a256:	ac ee       	ldi	r26, 0xEC	; 236
    a258:	b4 ef       	ldi	r27, 0xF4	; 244
    a25a:	a5 01       	movw	r20, r10
    a25c:	94 01       	movw	r18, r8
    a25e:	b3 df       	rcall	.-154    	; 0xa1c6 <__mulohisi3>
    a260:	dc 01       	movw	r26, r24
    a262:	cb 01       	movw	r24, r22
    a264:	8c 0d       	add	r24, r12
    a266:	9d 1d       	adc	r25, r13
    a268:	ae 1d       	adc	r26, r14
    a26a:	bf 1d       	adc	r27, r15
    a26c:	b7 ff       	sbrs	r27, 7
    a26e:	03 c0       	rjmp	.+6      	; 0xa276 <do_rand+0x6c>
    a270:	01 97       	sbiw	r24, 0x01	; 1
    a272:	a1 09       	sbc	r26, r1
    a274:	b0 48       	sbci	r27, 0x80	; 128
    a276:	88 83       	st	Y, r24
    a278:	99 83       	std	Y+1, r25	; 0x01
    a27a:	aa 83       	std	Y+2, r26	; 0x02
    a27c:	bb 83       	std	Y+3, r27	; 0x03
    a27e:	9f 77       	andi	r25, 0x7F	; 127
    a280:	df 91       	pop	r29
    a282:	cf 91       	pop	r28
    a284:	ff 90       	pop	r15
    a286:	ef 90       	pop	r14
    a288:	df 90       	pop	r13
    a28a:	cf 90       	pop	r12
    a28c:	bf 90       	pop	r11
    a28e:	af 90       	pop	r10
    a290:	9f 90       	pop	r9
    a292:	8f 90       	pop	r8
    a294:	08 95       	ret

0000a296 <rand_r>:
    a296:	b9 cf       	rjmp	.-142    	; 0xa20a <do_rand>

0000a298 <rand>:
    a298:	80 e0       	ldi	r24, 0x00	; 0
    a29a:	92 e0       	ldi	r25, 0x02	; 2
    a29c:	b6 cf       	rjmp	.-148    	; 0xa20a <do_rand>

0000a29e <srand>:
    a29e:	a0 e0       	ldi	r26, 0x00	; 0
    a2a0:	b0 e0       	ldi	r27, 0x00	; 0
    a2a2:	80 93 00 02 	sts	0x0200, r24
    a2a6:	90 93 01 02 	sts	0x0201, r25
    a2aa:	a0 93 02 02 	sts	0x0202, r26
    a2ae:	b0 93 03 02 	sts	0x0203, r27
    a2b2:	08 95       	ret

0000a2b4 <memcmp>:
    a2b4:	fb 01       	movw	r30, r22
    a2b6:	dc 01       	movw	r26, r24
    a2b8:	04 c0       	rjmp	.+8      	; 0xa2c2 <memcmp+0xe>
    a2ba:	8d 91       	ld	r24, X+
    a2bc:	01 90       	ld	r0, Z+
    a2be:	80 19       	sub	r24, r0
    a2c0:	21 f4       	brne	.+8      	; 0xa2ca <memcmp+0x16>
    a2c2:	41 50       	subi	r20, 0x01	; 1
    a2c4:	50 40       	sbci	r21, 0x00	; 0
    a2c6:	c8 f7       	brcc	.-14     	; 0xa2ba <memcmp+0x6>
    a2c8:	88 1b       	sub	r24, r24
    a2ca:	99 0b       	sbc	r25, r25
    a2cc:	08 95       	ret

0000a2ce <memcpy>:
    a2ce:	fb 01       	movw	r30, r22
    a2d0:	dc 01       	movw	r26, r24
    a2d2:	02 c0       	rjmp	.+4      	; 0xa2d8 <memcpy+0xa>
    a2d4:	01 90       	ld	r0, Z+
    a2d6:	0d 92       	st	X+, r0
    a2d8:	41 50       	subi	r20, 0x01	; 1
    a2da:	50 40       	sbci	r21, 0x00	; 0
    a2dc:	d8 f7       	brcc	.-10     	; 0xa2d4 <memcpy+0x6>
    a2de:	08 95       	ret

0000a2e0 <memset>:
    a2e0:	dc 01       	movw	r26, r24
    a2e2:	01 c0       	rjmp	.+2      	; 0xa2e6 <memset+0x6>
    a2e4:	6d 93       	st	X+, r22
    a2e6:	41 50       	subi	r20, 0x01	; 1
    a2e8:	50 40       	sbci	r21, 0x00	; 0
    a2ea:	e0 f7       	brcc	.-8      	; 0xa2e4 <memset+0x4>
    a2ec:	08 95       	ret

0000a2ee <__divmodsi4>:
    a2ee:	05 2e       	mov	r0, r21
    a2f0:	97 fb       	bst	r25, 7
    a2f2:	16 f4       	brtc	.+4      	; 0xa2f8 <__divmodsi4+0xa>
    a2f4:	00 94       	com	r0
    a2f6:	0f d0       	rcall	.+30     	; 0xa316 <__negsi2>
    a2f8:	57 fd       	sbrc	r21, 7
    a2fa:	05 d0       	rcall	.+10     	; 0xa306 <__divmodsi4_neg2>
    a2fc:	23 df       	rcall	.-442    	; 0xa144 <__udivmodsi4>
    a2fe:	07 fc       	sbrc	r0, 7
    a300:	02 d0       	rcall	.+4      	; 0xa306 <__divmodsi4_neg2>
    a302:	46 f4       	brtc	.+16     	; 0xa314 <__divmodsi4_exit>
    a304:	08 c0       	rjmp	.+16     	; 0xa316 <__negsi2>

0000a306 <__divmodsi4_neg2>:
    a306:	50 95       	com	r21
    a308:	40 95       	com	r20
    a30a:	30 95       	com	r19
    a30c:	21 95       	neg	r18
    a30e:	3f 4f       	sbci	r19, 0xFF	; 255
    a310:	4f 4f       	sbci	r20, 0xFF	; 255
    a312:	5f 4f       	sbci	r21, 0xFF	; 255

0000a314 <__divmodsi4_exit>:
    a314:	08 95       	ret

0000a316 <__negsi2>:
    a316:	90 95       	com	r25
    a318:	80 95       	com	r24
    a31a:	70 95       	com	r23
    a31c:	61 95       	neg	r22
    a31e:	7f 4f       	sbci	r23, 0xFF	; 255
    a320:	8f 4f       	sbci	r24, 0xFF	; 255
    a322:	9f 4f       	sbci	r25, 0xFF	; 255
    a324:	08 95       	ret

0000a326 <_exit>:
    a326:	f8 94       	cli

0000a328 <__stop_program>:
    a328:	ff cf       	rjmp	.-2      	; 0xa328 <__stop_program>
